
TEST.elf:     file format elf32-littlenios2
TEST.elf
architecture: nios2:r1, flags 0x00000112:
EXEC_P, HAS_SYMS, D_PAGED
start address 0x01000230

Program Header:
    LOAD off    0x00001020 vaddr 0x01000020 paddr 0x01000020 align 2**12
         filesz 0x0001369c memsz 0x000137fc flags rwx
    LOAD off    0x00015000 vaddr 0x02001000 paddr 0x02001000 align 2**12
         filesz 0x00000000 memsz 0x00000000 flags r-x

Sections:
Idx Name          Size      VMA       LMA       File off  Algn
  0 .entry        00000000  02001000  02001000  00015000  2**5
                  CONTENTS, ALLOC, LOAD, READONLY, CODE
  1 .exceptions   00000210  01000020  01000020  00001020  2**2
                  CONTENTS, ALLOC, LOAD, READONLY, CODE
  2 .text         000113fc  01000230  01000230  00001230  2**2
                  CONTENTS, ALLOC, LOAD, READONLY, CODE
  3 .rodata       00000348  0101162c  0101162c  0001262c  2**2
                  CONTENTS, ALLOC, LOAD, READONLY, DATA
  4 .rwdata       00001d48  01011974  01011974  00012974  2**2
                  CONTENTS, ALLOC, LOAD, DATA, SMALL_DATA
  5 .bss          00000160  010136bc  010136bc  000146bc  2**2
                  ALLOC, SMALL_DATA
  6 .sdram        00000000  0101381c  0101381c  00015000  2**0
                  CONTENTS
  7 .epcs         00000000  02001020  02001020  00015000  2**0
                  CONTENTS
  8 .comment      00000023  00000000  00000000  00015000  2**0
                  CONTENTS, READONLY
  9 .debug_aranges 00000f70  00000000  00000000  00015028  2**3
                  CONTENTS, READONLY, DEBUGGING
 10 .debug_info   000254f0  00000000  00000000  00015f98  2**0
                  CONTENTS, READONLY, DEBUGGING
 11 .debug_abbrev 0000988d  00000000  00000000  0003b488  2**0
                  CONTENTS, READONLY, DEBUGGING
 12 .debug_line   0000bece  00000000  00000000  00044d15  2**0
                  CONTENTS, READONLY, DEBUGGING
 13 .debug_frame  0000260c  00000000  00000000  00050be4  2**2
                  CONTENTS, READONLY, DEBUGGING
 14 .debug_str    00003f31  00000000  00000000  000531f0  2**0
                  CONTENTS, READONLY, DEBUGGING
 15 .debug_loc    0001786c  00000000  00000000  00057121  2**0
                  CONTENTS, READONLY, DEBUGGING
 16 .debug_alt_sim_info 00000040  00000000  00000000  0006e990  2**2
                  CONTENTS, READONLY, DEBUGGING
 17 .debug_ranges 000018b0  00000000  00000000  0006e9d0  2**3
                  CONTENTS, READONLY, DEBUGGING
 18 .thread_model 00000003  00000000  00000000  00073866  2**0
                  CONTENTS, READONLY
 19 .cpu          00000005  00000000  00000000  00073869  2**0
                  CONTENTS, READONLY
 20 .qsys         00000001  00000000  00000000  0007386e  2**0
                  CONTENTS, READONLY
 21 .simulation_enabled 00000001  00000000  00000000  0007386f  2**0
                  CONTENTS, READONLY
 22 .sysid_hash   00000004  00000000  00000000  00073870  2**0
                  CONTENTS, READONLY
 23 .sysid_base   00000004  00000000  00000000  00073874  2**0
                  CONTENTS, READONLY
 24 .sysid_time   00000004  00000000  00000000  00073878  2**0
                  CONTENTS, READONLY
 25 .stderr_dev   00000009  00000000  00000000  0007387c  2**0
                  CONTENTS, READONLY
 26 .stdin_dev    00000009  00000000  00000000  00073885  2**0
                  CONTENTS, READONLY
 27 .stdout_dev   00000008  00000000  00000000  0007388e  2**0
                  CONTENTS, READONLY
 28 .sopc_system_name 00000003  00000000  00000000  00073896  2**0
                  CONTENTS, READONLY
 29 .quartus_project_dir 00000036  00000000  00000000  00073899  2**0
                  CONTENTS, READONLY
 30 .jdi          00004312  00000000  00000000  000738cf  2**0
                  CONTENTS, READONLY
 31 .sopcinfo     000676b9  00000000  00000000  00077be1  2**0
                  CONTENTS, READONLY
SYMBOL TABLE:
02001000 l    d  .entry	00000000 .entry
01000020 l    d  .exceptions	00000000 .exceptions
01000230 l    d  .text	00000000 .text
0101162c l    d  .rodata	00000000 .rodata
01011974 l    d  .rwdata	00000000 .rwdata
010136bc l    d  .bss	00000000 .bss
0101381c l    d  .sdram	00000000 .sdram
02001020 l    d  .epcs	00000000 .epcs
00000000 l    d  .comment	00000000 .comment
00000000 l    d  .debug_aranges	00000000 .debug_aranges
00000000 l    d  .debug_info	00000000 .debug_info
00000000 l    d  .debug_abbrev	00000000 .debug_abbrev
00000000 l    d  .debug_line	00000000 .debug_line
00000000 l    d  .debug_frame	00000000 .debug_frame
00000000 l    d  .debug_str	00000000 .debug_str
00000000 l    d  .debug_loc	00000000 .debug_loc
00000000 l    d  .debug_alt_sim_info	00000000 .debug_alt_sim_info
00000000 l    d  .debug_ranges	00000000 .debug_ranges
00000000 l    df *ABS*	00000000 ../TEST_bsp//obj/HAL/src/crt0.o
01000264 l       .text	00000000 alt_after_alt_main
00000000 l    df *ABS*	00000000 alt_irq_handler.c
00000000 l    df *ABS*	00000000 alt_instruction_exception_entry.c
00000000 l    df *ABS*	00000000 hello_world.c
00000000 l    df *ABS*	00000000 printf.c
00000000 l    df *ABS*	00000000 puts.c
00000000 l    df *ABS*	00000000 strlen.c
00000000 l    df *ABS*	00000000 vfprintf.c
0101168a l     O .rodata	00000010 zeroes.4404
010027ac l     F .text	000000bc __sbprintf
0101169a l     O .rodata	00000010 blanks.4403
00000000 l    df *ABS*	00000000 wsetup.c
00000000 l    df *ABS*	00000000 dtoa.c
010029bc l     F .text	00000228 quorem
00000000 l    df *ABS*	00000000 fflush.c
00000000 l    df *ABS*	00000000 findfp.c
01004514 l     F .text	00000008 __fp_unlock
01004528 l     F .text	0000019c __sinit.part.1
010046c4 l     F .text	00000008 __fp_lock
00000000 l    df *ABS*	00000000 mallocr.c
00000000 l    df *ABS*	00000000 fvwrite.c
00000000 l    df *ABS*	00000000 fwalk.c
00000000 l    df *ABS*	00000000 impure.c
01011974 l     O .rwdata	00000424 impure_data
00000000 l    df *ABS*	00000000 locale.c
01011db8 l     O .rwdata	00000020 lc_ctype_charset
01011d98 l     O .rwdata	00000020 lc_message_charset
01011dd8 l     O .rwdata	00000038 lconv
00000000 l    df *ABS*	00000000 makebuf.c
00000000 l    df *ABS*	00000000 mallocr.c
00000000 l    df *ABS*	00000000 memchr.c
00000000 l    df *ABS*	00000000 memcpy.c
00000000 l    df *ABS*	00000000 memmove.c
00000000 l    df *ABS*	00000000 memset.c
00000000 l    df *ABS*	00000000 mprec.c
010116cc l     O .rodata	0000000c p05.2768
00000000 l    df *ABS*	00000000 mallocr.c
00000000 l    df *ABS*	00000000 s_fpclassify.c
00000000 l    df *ABS*	00000000 sbrkr.c
00000000 l    df *ABS*	00000000 stdio.c
00000000 l    df *ABS*	00000000 strcmp.c
00000000 l    df *ABS*	00000000 vfprintf.c
01007b98 l     F .text	000000fc __sprint_r.part.0
010117f0 l     O .rodata	00000010 zeroes.4349
010091d4 l     F .text	000000bc __sbprintf
01011800 l     O .rodata	00000010 blanks.4348
00000000 l    df *ABS*	00000000 writer.c
00000000 l    df *ABS*	00000000 closer.c
00000000 l    df *ABS*	00000000 mallocr.c
00000000 l    df *ABS*	00000000 fclose.c
00000000 l    df *ABS*	00000000 fputwc.c
00000000 l    df *ABS*	00000000 fstatr.c
00000000 l    df *ABS*	00000000 int_errno.c
00000000 l    df *ABS*	00000000 isattyr.c
00000000 l    df *ABS*	00000000 lseekr.c
00000000 l    df *ABS*	00000000 readr.c
00000000 l    df *ABS*	00000000 wbuf.c
00000000 l    df *ABS*	00000000 wcrtomb.c
00000000 l    df *ABS*	00000000 wctomb_r.c
00000000 l    df *ABS*	00000000 libgcc2.c
00000000 l    df *ABS*	00000000 libgcc2.c
00000000 l    df *ABS*	00000000 lib2-divmod.c
00000000 l    df *ABS*	00000000 lib2-mul.c
00000000 l    df *ABS*	00000000 adddf3.c
00000000 l    df *ABS*	00000000 divdf3.c
00000000 l    df *ABS*	00000000 eqdf2.c
00000000 l    df *ABS*	00000000 gedf2.c
00000000 l    df *ABS*	00000000 ledf2.c
00000000 l    df *ABS*	00000000 muldf3.c
00000000 l    df *ABS*	00000000 subdf3.c
00000000 l    df *ABS*	00000000 fixdfsi.c
00000000 l    df *ABS*	00000000 floatsidf.c
00000000 l    df *ABS*	00000000 floatunsidf.c
00000000 l    df *ABS*	00000000 libgcc2.c
00000000 l    df *ABS*	00000000 libgcc2.c
00000000 l    df *ABS*	00000000 alt_close.c
0100d21c l     F .text	0000003c alt_get_errno
00000000 l    df *ABS*	00000000 alt_dev.c
0100d330 l     F .text	0000002c alt_dev_null_write
00000000 l    df *ABS*	00000000 alt_errno.c
00000000 l    df *ABS*	00000000 alt_fstat.c
0100d35c l     F .text	0000003c alt_get_errno
00000000 l    df *ABS*	00000000 alt_isatty.c
0100d450 l     F .text	0000003c alt_get_errno
00000000 l    df *ABS*	00000000 alt_lseek.c
0100d538 l     F .text	0000003c alt_get_errno
00000000 l    df *ABS*	00000000 alt_main.c
00000000 l    df *ABS*	00000000 alt_malloc_lock.c
00000000 l    df *ABS*	00000000 alt_read.c
0100d714 l     F .text	0000003c alt_get_errno
00000000 l    df *ABS*	00000000 alt_release_fd.c
00000000 l    df *ABS*	00000000 alt_sbrk.c
010136a4 l     O .rwdata	00000004 heap_end
00000000 l    df *ABS*	00000000 alt_usleep.c
00000000 l    df *ABS*	00000000 alt_write.c
0100d9b8 l     F .text	0000003c alt_get_errno
00000000 l    df *ABS*	00000000 alt_sys_init.c
0100daf4 l     F .text	00000034 alt_dev_reg
010123c0 l     O .rwdata	000000cc epcs
0101248c l     O .rwdata	00001060 jtag_uart
010134ec l     O .rwdata	000000c4 uart
010135b0 l     O .rwdata	000000c4 uart_dbg
00000000 l    df *ABS*	00000000 altera_avalon_epcs_flash_controller.c
0100dc00 l     F .text	00000034 alt_flash_device_register
0100dc88 l     F .text	000003f8 alt_epcs_flash_query
0100e080 l     F .text	000000ec alt_epcs_flash_memcmp
0100e458 l     F .text	00000094 alt_epcs_test_address
00000000 l    df *ABS*	00000000 altera_avalon_jtag_uart_fd.c
00000000 l    df *ABS*	00000000 altera_avalon_jtag_uart_init.c
0100e920 l     F .text	0000020c altera_avalon_jtag_uart_irq
0100eb2c l     F .text	000000a0 altera_avalon_jtag_uart_timeout
00000000 l    df *ABS*	00000000 altera_avalon_jtag_uart_ioctl.c
00000000 l    df *ABS*	00000000 altera_avalon_jtag_uart_read.c
00000000 l    df *ABS*	00000000 altera_avalon_jtag_uart_write.c
00000000 l    df *ABS*	00000000 altera_avalon_uart_fd.c
00000000 l    df *ABS*	00000000 altera_avalon_uart_init.c
0100f320 l     F .text	0000009c altera_avalon_uart_irq
0100f3bc l     F .text	000000e4 altera_avalon_uart_rxirq
0100f4a0 l     F .text	00000148 altera_avalon_uart_txirq
00000000 l    df *ABS*	00000000 altera_avalon_uart_read.c
0100f63c l     F .text	0000003c alt_get_errno
00000000 l    df *ABS*	00000000 altera_avalon_uart_write.c
0100f854 l     F .text	0000003c alt_get_errno
00000000 l    df *ABS*	00000000 epcs_commands.c
0100fa98 l     F .text	00000038 epcs_test_wip
0100fad0 l     F .text	0000003c epcs_await_wip_released
00000000 l    df *ABS*	00000000 alt_alarm_start.c
00000000 l    df *ABS*	00000000 alt_busy_sleep.c
00000000 l    df *ABS*	00000000 alt_dev_llist_insert.c
010102fc l     F .text	0000003c alt_get_errno
00000000 l    df *ABS*	00000000 alt_do_ctors.c
00000000 l    df *ABS*	00000000 alt_do_dtors.c
00000000 l    df *ABS*	00000000 alt_flash_dev.c
00000000 l    df *ABS*	00000000 alt_iic.c
00000000 l    df *ABS*	00000000 alt_iic_isr_register.c
00000000 l    df *ABS*	00000000 alt_io_redirect.c
010107f8 l     F .text	000000e4 alt_open_fd
00000000 l    df *ABS*	00000000 alt_irq_vars.c
00000000 l    df *ABS*	00000000 alt_open.c
01010958 l     F .text	0000003c alt_get_errno
01010994 l     F .text	000000ec alt_file_locked
00000000 l    df *ABS*	00000000 alt_tick.c
00000000 l    df *ABS*	00000000 altera_nios2_gen2_irq.c
00000000 l    df *ABS*	00000000 altera_avalon_spi.c
00000000 l    df *ABS*	00000000 alt_find_dev.c
00000000 l    df *ABS*	00000000 alt_find_file.c
00000000 l    df *ABS*	00000000 alt_get_fd.c
00000000 l    df *ABS*	00000000 atexit.c
00000000 l    df *ABS*	00000000 exit.c
00000000 l    df *ABS*	00000000 memcmp.c
00000000 l    df *ABS*	00000000 __atexit.c
00000000 l    df *ABS*	00000000 __call_atexit.c
00000000 l    df *ABS*	00000000 alt_exit.c
010136f0 g     O .bss	00000004 alt_instruction_exception_handler
010071dc g     F .text	00000074 _mprec_log10
0100e3cc g     F .text	0000008c alt_epcs_flash_get_info
010072c8 g     F .text	0000008c __any_on
01009788 g     F .text	00000054 _isatty_r
010116d8 g     O .rodata	00000028 __mprec_tinytens
0100d650 g     F .text	0000007c alt_main
01000348 g     F .text	000000c0 _puts_r
0101371c g     O .bss	00000100 alt_irq
010097dc g     F .text	00000060 _lseek_r
0100bbf4 g     F .text	00000088 .hidden __eqdf2
0101381c g       *ABS*	00000000 __alt_heap_start
0100030c g     F .text	0000003c printf
010099f4 g     F .text	0000009c _wcrtomb_r
01007a58 g     F .text	0000005c __sseek
01004874 g     F .text	00000010 __sinit
0100989c g     F .text	00000140 __swbuf_r
01005348 g     F .text	0000007c _setlocale_r
010046cc g     F .text	00000078 __sfmoreglue
0100d6f0 g     F .text	00000024 __malloc_unlock
01006018 g     F .text	0000015c memmove
0100485c g     F .text	00000018 _cleanup
0100629c g     F .text	000000a8 _Balloc
0100bc7c g     F .text	000000dc .hidden __gtdf2
01010d80 g     F .text	00000024 altera_nios2_gen2_irq_init
0100fb0c g     F .text	000000fc epcs_sector_erase
02001000 g     F .entry	00000000 __reset
0100972c g     F .text	0000005c _fstat_r
010136d4 g     O .bss	00000004 errno
010079d4 g     F .text	00000008 __seofread
010136dc g     O .bss	00000004 alt_argv
0101b674 g       *ABS*	00000000 _gp
0100d988 g     F .text	00000030 usleep
01012240 g     O .rwdata	00000180 alt_fd_list
0100fd50 g     F .text	0000006c epcs_write_status_register
01010fa0 g     F .text	00000090 alt_find_dev
01005ed0 g     F .text	00000148 memcpy
0100451c g     F .text	0000000c _cleanup_r
0100d034 g     F .text	000000dc .hidden __floatsidf
010108dc g     F .text	0000007c alt_io_redirect
0100bd58 g     F .text	000000f4 .hidden __ltdf2
0101162c g       *ABS*	00000000 __DTOR_END__
01000408 g     F .text	00000014 puts
010111fc g     F .text	0000009c alt_exception_cause_generated_bad_addr
0100e564 g     F .text	00000100 alt_epcs_flash_write_block
010078b8 g     F .text	00000074 __fpclassifyd
01007138 g     F .text	000000a4 __ratio
010091b8 g     F .text	0000001c __vfiprintf_internal
0100ed24 g     F .text	0000021c altera_avalon_jtag_uart_read
010002dc g     F .text	00000030 _printf_r
0100a894 g     F .text	00000064 .hidden __udivsi3
0100d48c g     F .text	000000ac isatty
01011728 g     O .rodata	000000c8 __mprec_tens
010053c4 g     F .text	0000000c __locale_charset
010136d0 g     O .bss	00000004 __malloc_top_pad
0101367c g     O .rwdata	00000004 __mb_cur_max
010053f4 g     F .text	0000000c _localeconv_r
010066d0 g     F .text	0000003c __i2b
01004cf8 g     F .text	000004c8 __sfvwrite_r
0100792c g     F .text	00000054 _sbrk_r
0100983c g     F .text	00000060 _read_r
0101369c g     O .rwdata	00000004 alt_max_fd
01009420 g     F .text	000000f0 _fclose_r
010044e4 g     F .text	00000030 fflush
010136cc g     O .bss	00000004 __malloc_max_sbrked_mem
0100a978 g     F .text	000008ac .hidden __adddf3
0100e4ec g     F .text	00000078 alt_epcs_flash_erase_block
01006ee0 g     F .text	0000010c __b2d
0100a1d8 g     F .text	000005c4 .hidden __umoddi3
0100d574 g     F .text	000000dc lseek
01013674 g     O .rwdata	00000004 _global_impure_ptr
0101001c g     F .text	0000005c epcs_exit_4_bytes_mode
01007354 g     F .text	00000564 _realloc_r
0101381c g       *ABS*	00000000 __bss_end
01010708 g     F .text	000000f0 alt_iic_isr_register
01010c78 g     F .text	00000108 alt_tick
01009bdc g     F .text	000005fc .hidden __udivdi3
01009688 g     F .text	00000024 _fputwc_r
01011700 g     O .rodata	00000028 __mprec_bigtens
010064b4 g     F .text	00000104 __s2b
0100d110 g     F .text	000000a8 .hidden __floatunsidf
01006c20 g     F .text	00000060 __mcmp
0100f274 g     F .text	000000ac altera_avalon_uart_init
01004894 g     F .text	00000018 __fp_lock_all
010106bc g     F .text	0000004c alt_ic_irq_enabled
01010bdc g     F .text	0000009c alt_alarm_stop
010136e4 g     O .bss	00000004 alt_irq_active
010000fc g     F .exceptions	000000d4 alt_irq_handler
01012218 g     O .rwdata	00000028 alt_dev_null
010065b8 g     F .text	00000068 __hi0bits
0100cfb4 g     F .text	00000080 .hidden __fixdfsi
01013694 g     O .rwdata	00000008 alt_dev_list
0100d9f4 g     F .text	00000100 write
0100d398 g     F .text	000000b8 fstat
0100bd58 g     F .text	000000f4 .hidden __ledf2
01006998 g     F .text	00000140 __pow5mult
01007cac g     F .text	0000150c ___vfiprintf_internal_r
010136c4 g     O .bss	00000004 __nlocale_changed
0100a8f8 g     F .text	00000058 .hidden __umodsi3
0100fed8 g     F .text	00000068 epcs_read_electronic_signature
0101381c g       *ABS*	00000000 end
0100f890 g     F .text	000001ac altera_avalon_uart_write
0100e860 g     F .text	000000c0 altera_avalon_jtag_uart_init
010001d0 g     F .exceptions	00000060 alt_instruction_exception_entry
0101162c g       *ABS*	00000000 __CTOR_LIST__
02000000 g       *ABS*	00000000 __alt_stack_pointer
0100f1c4 g     F .text	00000060 altera_avalon_uart_write_fd
0100d1b8 g     F .text	00000064 .hidden __clzsi2
0100f224 g     F .text	00000050 altera_avalon_uart_close_fd
0100ef40 g     F .text	00000224 altera_avalon_jtag_uart_write
01004884 g     F .text	00000004 __sfp_lock_acquire
01005dec g     F .text	000000e4 memchr
010004b4 g     F .text	000022dc ___vfprintf_internal_r
010049e8 g     F .text	00000310 _free_r
010053d0 g     F .text	00000010 __locale_mb_cur_max
01011478 g     F .text	00000180 __call_exitprocs
010136c0 g     O .bss	00000004 __mlocale_changed
01013680 g     O .rwdata	00000004 __malloc_sbrk_base
01000230 g     F .text	00000038 _start
010136e8 g     O .bss	00000004 _alt_tick_rate
01006ad8 g     F .text	00000148 __lshift
01010da4 g     F .text	000001fc alt_avalon_spi_command
010136ec g     O .bss	00000004 _alt_nticks
0100d750 g     F .text	00000104 read
0100db60 g     F .text	000000a0 alt_sys_init
01011360 g     F .text	00000118 __register_exitproc
0100670c g     F .text	0000028c __multiply
0100ebcc g     F .text	00000068 altera_avalon_jtag_uart_close
0100a950 g     F .text	00000028 .hidden __mulsi3
010136f4 g     O .bss	00000028 __malloc_current_mallinfo
01006fec g     F .text	0000014c __d2b
0100fa3c g     F .text	0000005c epcs_read_status_register
0100e6fc g     F .text	00000060 altera_avalon_jtag_uart_read_fd
01011138 g     F .text	000000c4 alt_get_fd
010101a4 g     F .text	00000158 alt_busy_sleep
010092f0 g     F .text	00000054 _close_r
0100ff40 g     F .text	00000080 epcs_read_device_id
010112e4 g     F .text	0000007c memcmp
0100e7bc g     F .text	00000050 altera_avalon_jtag_uart_close_fd
0101381c g       *ABS*	00000000 __alt_stack_base
0100e80c g     F .text	00000054 altera_avalon_jtag_uart_ioctl_fd
01002868 g     F .text	00000154 __swsetup_r
0100b224 g     F .text	000009d0 .hidden __divdf3
01004744 g     F .text	00000118 __sfp
01007250 g     F .text	00000078 __copybits
01011e10 g     O .rwdata	00000408 __malloc_av_
01004890 g     F .text	00000004 __sinit_lock_release
0100be4c g     F .text	0000086c .hidden __muldf3
01007980 g     F .text	00000054 __sread
01011030 g     F .text	00000108 alt_find_file
01010338 g     F .text	000000a4 alt_dev_llist_insert
0100d6cc g     F .text	00000024 __malloc_lock
0100d8d8 g     F .text	000000b0 sbrk
01004488 g     F .text	0000005c _fflush_r
01009344 g     F .text	000000dc _calloc_r
010136a8 g     O .rwdata	00000008 alt_flash_dev_list
010136bc g       *ABS*	00000000 __bss_start
01006174 g     F .text	00000128 memset
01000268 g     F .text	00000074 main
010136e0 g     O .bss	00000004 alt_envp
010136c8 g     O .bss	00000004 __malloc_max_total_mem
0100e75c g     F .text	00000060 altera_avalon_jtag_uart_write_fd
010099dc g     F .text	00000018 __swbuf
01007ab4 g     F .text	00000008 __sclose
02000000 g       *ABS*	00000000 __alt_heap_limit
01009510 g     F .text	00000014 fclose
01002be4 g     F .text	00001688 _dtoa_r
010055e0 g     F .text	0000080c _malloc_r
01009b50 g     F .text	00000030 __ascii_wctomb
010136a0 g     O .rwdata	00000004 alt_errno
010051c0 g     F .text	000000c4 _fwalk
0100a79c g     F .text	00000084 .hidden __divsi3
010048c4 g     F .text	00000124 _malloc_trim_r
0101162c g       *ABS*	00000000 __CTOR_END__
0100e16c g     F .text	00000260 alt_epcs_flash_write
01007abc g     F .text	000000dc strcmp
0101162c g       *ABS*	00000000 __DTOR_LIST__
0100bbf4 g     F .text	00000088 .hidden __nedf2
0100db28 g     F .text	00000038 alt_irq_init
0100d854 g     F .text	00000084 alt_release_fd
01011810 g     O .rodata	00000100 .hidden __clz_tab
010136bc g     O .bss	00000004 _PathLocale
01011298 g     F .text	00000014 atexit
01009290 g     F .text	00000060 _write_r
01005400 g     F .text	00000018 setlocale
01013678 g     O .rwdata	00000004 _impure_ptr
010136d8 g     O .bss	00000004 alt_argc
0100426c g     F .text	0000021c __sflush_r
0101043c g     F .text	00000060 _do_dtors
010053ec g     F .text	00000008 __locale_cjk_lang
01000020 g       .exceptions	00000000 alt_irq_entry
01006e7c g     F .text	00000064 __ulp
010048ac g     F .text	00000018 __fp_unlock_all
0101368c g     O .rwdata	00000008 alt_fs_list
01005418 g     F .text	0000000c localeconv
0100fc08 g     F .text	000000f4 epcs_read_buffer
0100dc34 g     F .text	00000054 alt_epcs_flash_init
01010558 g     F .text	00000050 alt_ic_isr_register
010136bc g       *ABS*	00000000 _edata
0100f164 g     F .text	00000060 altera_avalon_uart_read_fd
0101381c g       *ABS*	00000000 _end
0101049c g     F .text	00000068 alt_flash_open_dev
01009524 g     F .text	00000164 __fputwc
0100ec34 g     F .text	000000f0 altera_avalon_jtag_uart_ioctl
01010630 g     F .text	0000008c alt_ic_irq_disable
0100ffc0 g     F .text	0000005c epcs_enter_4_bytes_mode
010079dc g     F .text	0000007c __swrite
01013684 g     O .rwdata	00000004 __malloc_trim_threshold
010053e0 g     F .text	0000000c __locale_msgcharset
010112ac g     F .text	00000038 exit
01005284 g     F .text	000000c4 _fwalk_reent
01006c80 g     F .text	000001fc __mdiff
01010504 g     F .text	00000054 alt_flash_close_dev
0100a820 g     F .text	00000074 .hidden __modsi3
02000000 g       *ABS*	00000000 __alt_data_end
01000020 g     F .exceptions	00000000 alt_exception
01004888 g     F .text	00000004 __sfp_lock_release
01000000 g       *ABS*	00000000 __alt_mem_sdram
0100f5e8 g     F .text	00000054 altera_avalon_uart_close
010115f8 g     F .text	00000034 _exit
01010078 g     F .text	0000012c alt_alarm_start
01005424 g     F .text	000001bc __smakebuf_r
0100041c g     F .text	00000098 strlen
0100fcfc g     F .text	00000054 epcs_write_enable
01010a80 g     F .text	0000015c open
0100bc7c g     F .text	000000dc .hidden __gedf2
01013688 g     O .rwdata	00000004 __wctomb
01007c94 g     F .text	00000018 __sprint_r
010136b0 g     O .rwdata	00000004 alt_priority_mask
010105a8 g     F .text	00000088 alt_ic_irq_enable
01002790 g     F .text	0000001c __vfprintf_internal
02001000 g       *ABS*	00000000 __alt_mem_epcs
0100f678 g     F .text	000001dc altera_avalon_uart_read
01009b80 g     F .text	0000005c _wctomb_r
0100c6b8 g     F .text	000008fc .hidden __subdf3
0100e664 g     F .text	00000098 alt_epcs_flash_read
01006620 g     F .text	000000b0 __lo0bits
010136b4 g     O .rwdata	00000008 alt_alarm_list
010103dc g     F .text	00000060 _do_ctors
01009a90 g     F .text	000000c0 wcrtomb
0100d258 g     F .text	000000d8 close
010096ac g     F .text	00000080 fputwc
0100488c g     F .text	00000004 __sinit_lock_acquire
0100fdbc g     F .text	0000011c epcs_write_buffer
0100636c g     F .text	00000148 __multadd
01006344 g     F .text	00000028 _Bfree



Disassembly of section .exceptions:

01000020 <alt_exception>:

#else /* ALT_EXCEPTION_STACK disabled */
        /* 
         * Reserve space on normal stack for registers about to be pushed.
         */
        addi  sp, sp, -76
 1000020:	deffed04 	addi	sp,sp,-76
         * documentation for details).
         *
         * Leave a gap in the stack frame at 4(sp) for the muldiv handler to
         * store zero into.
         */
        stw   ra,  0(sp)
 1000024:	dfc00015 	stw	ra,0(sp)
        stw   r1,   8(sp)
 1000028:	d8400215 	stw	at,8(sp)
        stw   r2,  12(sp)
 100002c:	d8800315 	stw	r2,12(sp)
        stw   r3,  16(sp)
 1000030:	d8c00415 	stw	r3,16(sp)
        stw   r4,  20(sp)
 1000034:	d9000515 	stw	r4,20(sp)
        stw   r5,  24(sp)
 1000038:	d9400615 	stw	r5,24(sp)
        stw   r6,  28(sp)
 100003c:	d9800715 	stw	r6,28(sp)
        stw   r7,  32(sp)
 1000040:	d9c00815 	stw	r7,32(sp)
        rdctl r5, estatus   /* Read early to avoid usage stall */
 1000044:	000b307a 	rdctl	r5,estatus
        stw   r8,  36(sp)
 1000048:	da000915 	stw	r8,36(sp)
        stw   r9,  40(sp)
 100004c:	da400a15 	stw	r9,40(sp)
        stw   r10, 44(sp)
 1000050:	da800b15 	stw	r10,44(sp)
        stw   r11, 48(sp)
 1000054:	dac00c15 	stw	r11,48(sp)
        stw   r12, 52(sp)
 1000058:	db000d15 	stw	r12,52(sp)
        stw   r13, 56(sp)
 100005c:	db400e15 	stw	r13,56(sp)
        stw   r14, 60(sp)
 1000060:	db800f15 	stw	r14,60(sp)
        stw   r15, 64(sp)
 1000064:	dbc01015 	stw	r15,64(sp)
        /*
         * ea-4 contains the address of the instruction being executed
         * when the exception occured. For interrupt exceptions, we will
         * will be re-issue the isntruction. Store it in 72(sp)
         */
        stw   r5,  68(sp)  /* estatus */
 1000068:	d9401115 	stw	r5,68(sp)
        addi  r15, ea, -4  /* instruction that caused exception */
 100006c:	ebffff04 	addi	r15,ea,-4
        stw   r15,  72(sp)
 1000070:	dbc01215 	stw	r15,72(sp)
#else
        /*
         * Test to see if the exception was a software exception or caused 
         * by an external interrupt, and vector accordingly.
         */
        rdctl r4, ipending
 1000074:	0009313a 	rdctl	r4,ipending
        andi  r2, r5, 1
 1000078:	2880004c 	andi	r2,r5,1
        beq   r2, zero, .Lnot_irq
 100007c:	10000326 	beq	r2,zero,100008c <alt_exception+0x6c>
        beq   r4, zero, .Lnot_irq
 1000080:	20000226 	beq	r4,zero,100008c <alt_exception+0x6c>
        /*
         * Now that all necessary registers have been preserved, call 
         * alt_irq_handler() to process the interrupts.
         */

        call alt_irq_handler
 1000084:	10000fc0 	call	10000fc <alt_irq_handler>

        .section .exceptions.irqreturn, "xa"

        br    .Lexception_exit
 1000088:	00000706 	br	10000a8 <alt_exception+0x88>
         * upon completion, so we write ea (address of instruction *after*
         * the one where the exception occured) into 72(sp). The actual
         * instruction that caused the exception is written in r2, which these
         * handlers will utilize.
         */
        stw ea, 72(sp) /* EA is PC+4 so will skip over instruction causing exception */
 100008c:	df401215 	stw	ea,72(sp)
.Lunknown_16bit:
        addi.n r4, r4, 2 /* Need PC+2 to skip over instruction causing exception */
        stw r4, 72(sp)

#else /* CDX is not Enabled and all instructions are 32bits */
        ldw r2, -4(ea) /* Instruction value that caused exception */
 1000090:	e8bfff17 	ldw	r2,-4(ea)
         * debugger is present) or go into an infinite loop since the
         * handling behavior is undefined; in that case we will not return here.
         */

        /* Load exception-causing address as first argument (r4) */
        addi   r4, ea, -4
 1000094:	e93fff04 	addi	r4,ea,-4

        /* Call the instruction-exception entry */
        call   alt_instruction_exception_entry
 1000098:	10001d00 	call	10001d0 <alt_instruction_exception_entry>
         * instruction
         *
         * Return code was 0: Skip. The instruction after the exception is
         * already stored in 72(sp).
         */
        bne   r2, r0, .Lexception_exit
 100009c:	1000021e 	bne	r2,zero,10000a8 <alt_exception+0x88>

        /*
         * Otherwise, modify 72(sp) to re-issue the instruction that caused the
         * exception.
         */
        addi  r15, ea, -4  /* instruction that caused exception */
 10000a0:	ebffff04 	addi	r15,ea,-4
        stw   r15,  72(sp)
 10000a4:	dbc01215 	stw	r15,72(sp)
        /* 
         * Restore the saved registers, so that all general purpose registers 
         * have been restored to their state at the time the interrupt occured.
         */

        ldw   r5,  68(sp)
 10000a8:	d9401117 	ldw	r5,68(sp)
        ldw   ea,  72(sp)  /* This becomes the PC once eret is executed */
 10000ac:	df401217 	ldw	ea,72(sp)
        ldw   ra,   0(sp)
 10000b0:	dfc00017 	ldw	ra,0(sp)

        wrctl estatus, r5
 10000b4:	2801707a 	wrctl	estatus,r5

        ldw   r1,   8(sp)
 10000b8:	d8400217 	ldw	at,8(sp)
        ldw   r2,  12(sp)
 10000bc:	d8800317 	ldw	r2,12(sp)
        ldw   r3,  16(sp)
 10000c0:	d8c00417 	ldw	r3,16(sp)
        ldw   r4,  20(sp)
 10000c4:	d9000517 	ldw	r4,20(sp)
        ldw   r5,  24(sp)
 10000c8:	d9400617 	ldw	r5,24(sp)
        ldw   r6,  28(sp)
 10000cc:	d9800717 	ldw	r6,28(sp)
        ldw   r7,  32(sp)
 10000d0:	d9c00817 	ldw	r7,32(sp)

#if defined(ALT_EXCEPTION_STACK) && defined(ALT_STACK_CHECK)
        ldw   et, %gprel(alt_exception_old_stack_limit)(gp)
#endif

        ldw   r8,  36(sp)
 10000d4:	da000917 	ldw	r8,36(sp)
        ldw   r9,  40(sp)
 10000d8:	da400a17 	ldw	r9,40(sp)
        ldw   r10, 44(sp)
 10000dc:	da800b17 	ldw	r10,44(sp)
        ldw   r11, 48(sp)
 10000e0:	dac00c17 	ldw	r11,48(sp)
        ldw   r12, 52(sp)
 10000e4:	db000d17 	ldw	r12,52(sp)
        ldw   r13, 56(sp)
 10000e8:	db400e17 	ldw	r13,56(sp)
        ldw   r14, 60(sp)
 10000ec:	db800f17 	ldw	r14,60(sp)
        ldw   r15, 64(sp)
 10000f0:	dbc01017 	ldw	r15,64(sp)
        stw   et, %gprel(alt_stack_limit_value)(gp)
        stw   zero, %gprel(alt_exception_old_stack_limit)(gp)
#endif /* ALT_STACK_CHECK */
        ldw   sp,  76(sp)
#else /* ALT_EXCEPTION_STACK disabled */
        addi  sp, sp, 76
 10000f4:	dec01304 	addi	sp,sp,76

        /*
         * Return to the interrupted instruction.
         */

        eret
 10000f8:	ef80083a 	eret

010000fc <alt_irq_handler>:
 * instruction is present if the macro ALT_CI_INTERRUPT_VECTOR defined.
 */

void alt_irq_handler (void) __attribute__ ((section (".exceptions")));
void alt_irq_handler (void)
{
 10000fc:	defff904 	addi	sp,sp,-28
 1000100:	dfc00615 	stw	ra,24(sp)
 1000104:	df000515 	stw	fp,20(sp)
 1000108:	df000504 	addi	fp,sp,20
  
  /*
   * Notify the operating system that we are at interrupt level.
   */ 
  
  ALT_OS_INT_ENTER();
 100010c:	0001883a 	nop
#ifndef NIOS2_EIC_PRESENT
static ALT_INLINE alt_u32 ALT_ALWAYS_INLINE alt_irq_pending (void)
{
  alt_u32 active;

  NIOS2_READ_IPENDING (active);
 1000110:	0005313a 	rdctl	r2,ipending
 1000114:	e0bffe15 	stw	r2,-8(fp)

  return active;
 1000118:	e0bffe17 	ldw	r2,-8(fp)
   * Consider the case where the high priority interupt is asserted during
   * the interrupt entry sequence for a lower priority interrupt to see why
   * this is the case.
   */

  active = alt_irq_pending ();
 100011c:	e0bffb15 	stw	r2,-20(fp)

  do
  {
    i = 0;
 1000120:	e03ffd15 	stw	zero,-12(fp)
    mask = 1;
 1000124:	00800044 	movi	r2,1
 1000128:	e0bffc15 	stw	r2,-16(fp)
     * called to clear the interrupt condition.
     */

    do
    {
      if (active & mask)
 100012c:	e0fffb17 	ldw	r3,-20(fp)
 1000130:	e0bffc17 	ldw	r2,-16(fp)
 1000134:	1884703a 	and	r2,r3,r2
 1000138:	10001426 	beq	r2,zero,100018c <alt_irq_handler+0x90>
      { 
#ifdef ALT_ENHANCED_INTERRUPT_API_PRESENT
        alt_irq[i].handler(alt_irq[i].context); 
 100013c:	00804074 	movhi	r2,257
 1000140:	108dc704 	addi	r2,r2,14108
 1000144:	e0fffd17 	ldw	r3,-12(fp)
 1000148:	180690fa 	slli	r3,r3,3
 100014c:	10c5883a 	add	r2,r2,r3
 1000150:	10c00017 	ldw	r3,0(r2)
 1000154:	00804074 	movhi	r2,257
 1000158:	108dc704 	addi	r2,r2,14108
 100015c:	e13ffd17 	ldw	r4,-12(fp)
 1000160:	200890fa 	slli	r4,r4,3
 1000164:	1105883a 	add	r2,r2,r4
 1000168:	10800104 	addi	r2,r2,4
 100016c:	10800017 	ldw	r2,0(r2)
 1000170:	1009883a 	mov	r4,r2
 1000174:	183ee83a 	callr	r3
#else
        alt_irq[i].handler(alt_irq[i].context, i); 
#endif
        break;
 1000178:	0001883a 	nop
#ifndef NIOS2_EIC_PRESENT
static ALT_INLINE alt_u32 ALT_ALWAYS_INLINE alt_irq_pending (void)
{
  alt_u32 active;

  NIOS2_READ_IPENDING (active);
 100017c:	0005313a 	rdctl	r2,ipending
 1000180:	e0bfff15 	stw	r2,-4(fp)

  return active;
 1000184:	e0bfff17 	ldw	r2,-4(fp)
 1000188:	00000706 	br	10001a8 <alt_irq_handler+0xac>
      }
      mask <<= 1;
 100018c:	e0bffc17 	ldw	r2,-16(fp)
 1000190:	1085883a 	add	r2,r2,r2
 1000194:	e0bffc15 	stw	r2,-16(fp)
      i++;
 1000198:	e0bffd17 	ldw	r2,-12(fp)
 100019c:	10800044 	addi	r2,r2,1
 10001a0:	e0bffd15 	stw	r2,-12(fp)

    } while (1);
 10001a4:	003fe106 	br	100012c <__alt_mem_epcs+0xfefff12c>

    active = alt_irq_pending ();
 10001a8:	e0bffb15 	stw	r2,-20(fp)
    
  } while (active);
 10001ac:	e0bffb17 	ldw	r2,-20(fp)
 10001b0:	103fdb1e 	bne	r2,zero,1000120 <__alt_mem_epcs+0xfefff120>

  /*
   * Notify the operating system that interrupt processing is complete.
   */ 

  ALT_OS_INT_EXIT();
 10001b4:	0001883a 	nop
}
 10001b8:	0001883a 	nop
 10001bc:	e037883a 	mov	sp,fp
 10001c0:	dfc00117 	ldw	ra,4(sp)
 10001c4:	df000017 	ldw	fp,0(sp)
 10001c8:	dec00204 	addi	sp,sp,8
 10001cc:	f800283a 	ret

010001d0 <alt_instruction_exception_entry>:
 * that handler if it has been registered. Absent a handler, it will
 * break break or hang as discussed below.
 */
int 
alt_instruction_exception_entry (alt_u32 exception_pc)
{
 10001d0:	defffb04 	addi	sp,sp,-20
 10001d4:	dfc00415 	stw	ra,16(sp)
 10001d8:	df000315 	stw	fp,12(sp)
 10001dc:	df000304 	addi	fp,sp,12
 10001e0:	e13fff15 	stw	r4,-4(fp)
  cause = ( (cause & NIOS2_EXCEPTION_REG_CAUSE_MASK) >>
              NIOS2_EXCEPTION_REG_CAUSE_OFST );

  NIOS2_READ_BADADDR(badaddr);
#else
  cause = NIOS2_EXCEPTION_CAUSE_NOT_PRESENT;
 10001e4:	00bfffc4 	movi	r2,-1
 10001e8:	e0bffd15 	stw	r2,-12(fp)
  badaddr = 0;
 10001ec:	e03ffe15 	stw	zero,-8(fp)
#endif /* NIOS2_HAS_EXTRA_EXCEPTION_INFO */

  if(alt_instruction_exception_handler) {
 10001f0:	d0a01f17 	ldw	r2,-32644(gp)
 10001f4:	10000726 	beq	r2,zero,1000214 <alt_instruction_exception_entry+0x44>
     * Call handler. Its return value indicates whether the exception-causing
     * instruction should be re-issued. The code that called us,
     * alt_eceptions_entry.S, will look at this value and adjust the ea
     * register as necessary
     */
    return alt_instruction_exception_handler(cause, exception_pc, badaddr);
 10001f8:	d0a01f17 	ldw	r2,-32644(gp)
 10001fc:	e0fffd17 	ldw	r3,-12(fp)
 1000200:	e1bffe17 	ldw	r6,-8(fp)
 1000204:	e17fff17 	ldw	r5,-4(fp)
 1000208:	1809883a 	mov	r4,r3
 100020c:	103ee83a 	callr	r2
 1000210:	00000206 	br	100021c <alt_instruction_exception_entry+0x4c>
   *    (a peripheral which negates its interrupt output before its
   *    interrupt handler has been executed will cause spurious interrupts)
   */
  else {
#ifdef NIOS2_HAS_DEBUG_STUB
    NIOS2_BREAK();
 1000214:	003da03a 	break	0
      ;
#endif /* NIOS2_HAS_DEBUG_STUB */
  }

  /* We should not get here. Remove compiler warning. */
  return NIOS2_EXCEPTION_RETURN_REISSUE_INST;
 1000218:	0005883a 	mov	r2,zero
}
 100021c:	e037883a 	mov	sp,fp
 1000220:	dfc00117 	ldw	ra,4(sp)
 1000224:	df000017 	ldw	fp,0(sp)
 1000228:	dec00204 	addi	sp,sp,8
 100022c:	f800283a 	ret

Disassembly of section .text:

01000230 <_start>:

    /*
     * Now that the caches are initialized, set up the stack pointer and global pointer.
     * The values provided by the linker are assumed to be correctly aligned.
     */
    movhi sp, %hi(__alt_stack_pointer)
 1000230:	06c08034 	movhi	sp,512
    ori sp, sp, %lo(__alt_stack_pointer)
 1000234:	dec00014 	ori	sp,sp,0
    movhi gp, %hi(_gp)
 1000238:	06804074 	movhi	gp,257
    ori gp, gp, %lo(_gp)
 100023c:	d6ad9d14 	ori	gp,gp,46708
 */
#ifndef ALT_SIM_OPTIMIZE
    /* Log that the BSS is about to be cleared. */
    ALT_LOG_PUTS(alt_log_msg_bss)

    movhi r2, %hi(__bss_start)
 1000240:	00804074 	movhi	r2,257
    ori r2, r2, %lo(__bss_start)
 1000244:	108daf14 	ori	r2,r2,14012

    movhi r3, %hi(__bss_end)
 1000248:	00c04074 	movhi	r3,257
    ori r3, r3, %lo(__bss_end)
 100024c:	18ce0714 	ori	r3,r3,14364

    beq r2, r3, 1f
 1000250:	10c00326 	beq	r2,r3,1000260 <_start+0x30>

0:
    stw zero, (r2)
 1000254:	10000015 	stw	zero,0(r2)
    addi r2, r2, 4
 1000258:	10800104 	addi	r2,r2,4
    bltu r2, r3, 0b
 100025c:	10fffd36 	bltu	r2,r3,1000254 <__alt_mem_epcs+0xfefff254>

    /* Log that alt_main is about to be called. */
    ALT_LOG_PUTS(alt_log_msg_alt_main)

    /* Call the C entry point. It should never return. */
    call alt_main
 1000260:	100d6500 	call	100d650 <alt_main>

01000264 <alt_after_alt_main>:

    /* Wait in infinite loop in case alt_main does return. */
alt_after_alt_main:
    br alt_after_alt_main
 1000264:	003fff06 	br	1000264 <__alt_mem_epcs+0xfefff264>

01000268 <main>:
#include "alt_types.h"
#include "system.h"
#include "altera_avalon_uart_regs.h"

int main()
{
 1000268:	defffd04 	addi	sp,sp,-12
 100026c:	dfc00215 	stw	ra,8(sp)
 1000270:	df000115 	stw	fp,4(sp)
 1000274:	df000104 	addi	fp,sp,4
  printf("Hello from Nios II!\n");
 1000278:	01004074 	movhi	r4,257
 100027c:	21058b04 	addi	r4,r4,5676
 1000280:	10004080 	call	1000408 <puts>
  alt_u32 num=0;
 1000284:	e03fff15 	stw	zero,-4(fp)

  while(1)
  {
	  while (!(IORD_ALTERA_AVALON_UART_STATUS(UART_DBG_BASE) & ALTERA_AVALON_UART_STATUS_TRDY_MSK));
 1000288:	0001883a 	nop
 100028c:	00808034 	movhi	r2,512
 1000290:	10889204 	addi	r2,r2,8776
 1000294:	10800037 	ldwio	r2,0(r2)
 1000298:	1080100c 	andi	r2,r2,64
 100029c:	103ffb26 	beq	r2,zero,100028c <__alt_mem_epcs+0xfefff28c>
	  IOWR_ALTERA_AVALON_UART_TXDATA(UART_DBG_BASE, num++);
 10002a0:	e0bfff17 	ldw	r2,-4(fp)
 10002a4:	10c00044 	addi	r3,r2,1
 10002a8:	e0ffff15 	stw	r3,-4(fp)
 10002ac:	1007883a 	mov	r3,r2
 10002b0:	00808034 	movhi	r2,512
 10002b4:	10889104 	addi	r2,r2,8772
 10002b8:	10c00035 	stwio	r3,0(r2)
	  printf("%d\n", num);
 10002bc:	e17fff17 	ldw	r5,-4(fp)
 10002c0:	01004074 	movhi	r4,257
 10002c4:	21059004 	addi	r4,r4,5696
 10002c8:	100030c0 	call	100030c <printf>
	  usleep(132000);
 10002cc:	010000b4 	movhi	r4,2
 10002d0:	2100e804 	addi	r4,r4,928
 10002d4:	100d9880 	call	100d988 <usleep>
  }
 10002d8:	003feb06 	br	1000288 <__alt_mem_epcs+0xfefff288>

010002dc <_printf_r>:
 10002dc:	defffd04 	addi	sp,sp,-12
 10002e0:	2805883a 	mov	r2,r5
 10002e4:	dfc00015 	stw	ra,0(sp)
 10002e8:	d9800115 	stw	r6,4(sp)
 10002ec:	d9c00215 	stw	r7,8(sp)
 10002f0:	21400217 	ldw	r5,8(r4)
 10002f4:	d9c00104 	addi	r7,sp,4
 10002f8:	100d883a 	mov	r6,r2
 10002fc:	10004b40 	call	10004b4 <___vfprintf_internal_r>
 1000300:	dfc00017 	ldw	ra,0(sp)
 1000304:	dec00304 	addi	sp,sp,12
 1000308:	f800283a 	ret

0100030c <printf>:
 100030c:	defffc04 	addi	sp,sp,-16
 1000310:	dfc00015 	stw	ra,0(sp)
 1000314:	d9400115 	stw	r5,4(sp)
 1000318:	d9800215 	stw	r6,8(sp)
 100031c:	d9c00315 	stw	r7,12(sp)
 1000320:	00804074 	movhi	r2,257
 1000324:	108d9e04 	addi	r2,r2,13944
 1000328:	10800017 	ldw	r2,0(r2)
 100032c:	200b883a 	mov	r5,r4
 1000330:	d9800104 	addi	r6,sp,4
 1000334:	11000217 	ldw	r4,8(r2)
 1000338:	10027900 	call	1002790 <__vfprintf_internal>
 100033c:	dfc00017 	ldw	ra,0(sp)
 1000340:	dec00404 	addi	sp,sp,16
 1000344:	f800283a 	ret

01000348 <_puts_r>:
 1000348:	defff604 	addi	sp,sp,-40
 100034c:	dc000715 	stw	r16,28(sp)
 1000350:	2021883a 	mov	r16,r4
 1000354:	2809883a 	mov	r4,r5
 1000358:	dc400815 	stw	r17,32(sp)
 100035c:	dfc00915 	stw	ra,36(sp)
 1000360:	2823883a 	mov	r17,r5
 1000364:	100041c0 	call	100041c <strlen>
 1000368:	10c00044 	addi	r3,r2,1
 100036c:	d8800115 	stw	r2,4(sp)
 1000370:	00804074 	movhi	r2,257
 1000374:	10859104 	addi	r2,r2,5700
 1000378:	d8800215 	stw	r2,8(sp)
 100037c:	00800044 	movi	r2,1
 1000380:	d8800315 	stw	r2,12(sp)
 1000384:	00800084 	movi	r2,2
 1000388:	dc400015 	stw	r17,0(sp)
 100038c:	d8c00615 	stw	r3,24(sp)
 1000390:	dec00415 	stw	sp,16(sp)
 1000394:	d8800515 	stw	r2,20(sp)
 1000398:	80000226 	beq	r16,zero,10003a4 <_puts_r+0x5c>
 100039c:	80800e17 	ldw	r2,56(r16)
 10003a0:	10001426 	beq	r2,zero,10003f4 <_puts_r+0xac>
 10003a4:	81400217 	ldw	r5,8(r16)
 10003a8:	2880030b 	ldhu	r2,12(r5)
 10003ac:	10c8000c 	andi	r3,r2,8192
 10003b0:	1800061e 	bne	r3,zero,10003cc <_puts_r+0x84>
 10003b4:	29001917 	ldw	r4,100(r5)
 10003b8:	00f7ffc4 	movi	r3,-8193
 10003bc:	10880014 	ori	r2,r2,8192
 10003c0:	20c6703a 	and	r3,r4,r3
 10003c4:	2880030d 	sth	r2,12(r5)
 10003c8:	28c01915 	stw	r3,100(r5)
 10003cc:	d9800404 	addi	r6,sp,16
 10003d0:	8009883a 	mov	r4,r16
 10003d4:	1004cf80 	call	1004cf8 <__sfvwrite_r>
 10003d8:	1000091e 	bne	r2,zero,1000400 <_puts_r+0xb8>
 10003dc:	00800284 	movi	r2,10
 10003e0:	dfc00917 	ldw	ra,36(sp)
 10003e4:	dc400817 	ldw	r17,32(sp)
 10003e8:	dc000717 	ldw	r16,28(sp)
 10003ec:	dec00a04 	addi	sp,sp,40
 10003f0:	f800283a 	ret
 10003f4:	8009883a 	mov	r4,r16
 10003f8:	10048740 	call	1004874 <__sinit>
 10003fc:	003fe906 	br	10003a4 <__alt_mem_epcs+0xfefff3a4>
 1000400:	00bfffc4 	movi	r2,-1
 1000404:	003ff606 	br	10003e0 <__alt_mem_epcs+0xfefff3e0>

01000408 <puts>:
 1000408:	00804074 	movhi	r2,257
 100040c:	108d9e04 	addi	r2,r2,13944
 1000410:	200b883a 	mov	r5,r4
 1000414:	11000017 	ldw	r4,0(r2)
 1000418:	10003481 	jmpi	1000348 <_puts_r>

0100041c <strlen>:
 100041c:	208000cc 	andi	r2,r4,3
 1000420:	10002026 	beq	r2,zero,10004a4 <strlen+0x88>
 1000424:	20800007 	ldb	r2,0(r4)
 1000428:	10002026 	beq	r2,zero,10004ac <strlen+0x90>
 100042c:	2005883a 	mov	r2,r4
 1000430:	00000206 	br	100043c <strlen+0x20>
 1000434:	10c00007 	ldb	r3,0(r2)
 1000438:	18001826 	beq	r3,zero,100049c <strlen+0x80>
 100043c:	10800044 	addi	r2,r2,1
 1000440:	10c000cc 	andi	r3,r2,3
 1000444:	183ffb1e 	bne	r3,zero,1000434 <__alt_mem_epcs+0xfefff434>
 1000448:	10c00017 	ldw	r3,0(r2)
 100044c:	01ffbff4 	movhi	r7,65279
 1000450:	39ffbfc4 	addi	r7,r7,-257
 1000454:	00ca303a 	nor	r5,zero,r3
 1000458:	01a02074 	movhi	r6,32897
 100045c:	19c7883a 	add	r3,r3,r7
 1000460:	31a02004 	addi	r6,r6,-32640
 1000464:	1946703a 	and	r3,r3,r5
 1000468:	1986703a 	and	r3,r3,r6
 100046c:	1800091e 	bne	r3,zero,1000494 <strlen+0x78>
 1000470:	10800104 	addi	r2,r2,4
 1000474:	10c00017 	ldw	r3,0(r2)
 1000478:	19cb883a 	add	r5,r3,r7
 100047c:	00c6303a 	nor	r3,zero,r3
 1000480:	28c6703a 	and	r3,r5,r3
 1000484:	1986703a 	and	r3,r3,r6
 1000488:	183ff926 	beq	r3,zero,1000470 <__alt_mem_epcs+0xfefff470>
 100048c:	00000106 	br	1000494 <strlen+0x78>
 1000490:	10800044 	addi	r2,r2,1
 1000494:	10c00007 	ldb	r3,0(r2)
 1000498:	183ffd1e 	bne	r3,zero,1000490 <__alt_mem_epcs+0xfefff490>
 100049c:	1105c83a 	sub	r2,r2,r4
 10004a0:	f800283a 	ret
 10004a4:	2005883a 	mov	r2,r4
 10004a8:	003fe706 	br	1000448 <__alt_mem_epcs+0xfefff448>
 10004ac:	0005883a 	mov	r2,zero
 10004b0:	f800283a 	ret

010004b4 <___vfprintf_internal_r>:
 10004b4:	deffb804 	addi	sp,sp,-288
 10004b8:	dfc04715 	stw	ra,284(sp)
 10004bc:	ddc04515 	stw	r23,276(sp)
 10004c0:	dd404315 	stw	r21,268(sp)
 10004c4:	d9002d15 	stw	r4,180(sp)
 10004c8:	282f883a 	mov	r23,r5
 10004cc:	302b883a 	mov	r21,r6
 10004d0:	d9c02e15 	stw	r7,184(sp)
 10004d4:	df004615 	stw	fp,280(sp)
 10004d8:	dd804415 	stw	r22,272(sp)
 10004dc:	dd004215 	stw	r20,264(sp)
 10004e0:	dcc04115 	stw	r19,260(sp)
 10004e4:	dc804015 	stw	r18,256(sp)
 10004e8:	dc403f15 	stw	r17,252(sp)
 10004ec:	dc003e15 	stw	r16,248(sp)
 10004f0:	10053f40 	call	10053f4 <_localeconv_r>
 10004f4:	10800017 	ldw	r2,0(r2)
 10004f8:	1009883a 	mov	r4,r2
 10004fc:	d8803415 	stw	r2,208(sp)
 1000500:	100041c0 	call	100041c <strlen>
 1000504:	d8803715 	stw	r2,220(sp)
 1000508:	d8802d17 	ldw	r2,180(sp)
 100050c:	10000226 	beq	r2,zero,1000518 <___vfprintf_internal_r+0x64>
 1000510:	10800e17 	ldw	r2,56(r2)
 1000514:	1000fb26 	beq	r2,zero,1000904 <___vfprintf_internal_r+0x450>
 1000518:	b880030b 	ldhu	r2,12(r23)
 100051c:	10c8000c 	andi	r3,r2,8192
 1000520:	1800061e 	bne	r3,zero,100053c <___vfprintf_internal_r+0x88>
 1000524:	b9001917 	ldw	r4,100(r23)
 1000528:	00f7ffc4 	movi	r3,-8193
 100052c:	10880014 	ori	r2,r2,8192
 1000530:	20c6703a 	and	r3,r4,r3
 1000534:	b880030d 	sth	r2,12(r23)
 1000538:	b8c01915 	stw	r3,100(r23)
 100053c:	10c0020c 	andi	r3,r2,8
 1000540:	1800c326 	beq	r3,zero,1000850 <___vfprintf_internal_r+0x39c>
 1000544:	b8c00417 	ldw	r3,16(r23)
 1000548:	1800c126 	beq	r3,zero,1000850 <___vfprintf_internal_r+0x39c>
 100054c:	1080068c 	andi	r2,r2,26
 1000550:	00c00284 	movi	r3,10
 1000554:	10c0c626 	beq	r2,r3,1000870 <___vfprintf_internal_r+0x3bc>
 1000558:	d8c00404 	addi	r3,sp,16
 100055c:	05004074 	movhi	r20,257
 1000560:	d9001e04 	addi	r4,sp,120
 1000564:	a505a284 	addi	r20,r20,5770
 1000568:	d8c01e15 	stw	r3,120(sp)
 100056c:	d8002015 	stw	zero,128(sp)
 1000570:	d8001f15 	stw	zero,124(sp)
 1000574:	d8003315 	stw	zero,204(sp)
 1000578:	d8003615 	stw	zero,216(sp)
 100057c:	d8003815 	stw	zero,224(sp)
 1000580:	1811883a 	mov	r8,r3
 1000584:	d8003915 	stw	zero,228(sp)
 1000588:	d8003a15 	stw	zero,232(sp)
 100058c:	d8002f15 	stw	zero,188(sp)
 1000590:	d9002815 	stw	r4,160(sp)
 1000594:	a8800007 	ldb	r2,0(r21)
 1000598:	10028b26 	beq	r2,zero,1000fc8 <___vfprintf_internal_r+0xb14>
 100059c:	00c00944 	movi	r3,37
 10005a0:	a823883a 	mov	r17,r21
 10005a4:	10c0021e 	bne	r2,r3,10005b0 <___vfprintf_internal_r+0xfc>
 10005a8:	00001406 	br	10005fc <___vfprintf_internal_r+0x148>
 10005ac:	10c00326 	beq	r2,r3,10005bc <___vfprintf_internal_r+0x108>
 10005b0:	8c400044 	addi	r17,r17,1
 10005b4:	88800007 	ldb	r2,0(r17)
 10005b8:	103ffc1e 	bne	r2,zero,10005ac <__alt_mem_epcs+0xfefff5ac>
 10005bc:	8d61c83a 	sub	r16,r17,r21
 10005c0:	80000e26 	beq	r16,zero,10005fc <___vfprintf_internal_r+0x148>
 10005c4:	d8c02017 	ldw	r3,128(sp)
 10005c8:	d8801f17 	ldw	r2,124(sp)
 10005cc:	45400015 	stw	r21,0(r8)
 10005d0:	1c07883a 	add	r3,r3,r16
 10005d4:	10800044 	addi	r2,r2,1
 10005d8:	d8c02015 	stw	r3,128(sp)
 10005dc:	44000115 	stw	r16,4(r8)
 10005e0:	d8801f15 	stw	r2,124(sp)
 10005e4:	00c001c4 	movi	r3,7
 10005e8:	1880a916 	blt	r3,r2,1000890 <___vfprintf_internal_r+0x3dc>
 10005ec:	42000204 	addi	r8,r8,8
 10005f0:	d9402f17 	ldw	r5,188(sp)
 10005f4:	2c0b883a 	add	r5,r5,r16
 10005f8:	d9402f15 	stw	r5,188(sp)
 10005fc:	88800007 	ldb	r2,0(r17)
 1000600:	1000aa26 	beq	r2,zero,10008ac <___vfprintf_internal_r+0x3f8>
 1000604:	8d400044 	addi	r21,r17,1
 1000608:	8c400047 	ldb	r17,1(r17)
 100060c:	0021883a 	mov	r16,zero
 1000610:	00bfffc4 	movi	r2,-1
 1000614:	0025883a 	mov	r18,zero
 1000618:	dc002905 	stb	r16,164(sp)
 100061c:	d8002785 	stb	zero,158(sp)
 1000620:	d8002b05 	stb	zero,172(sp)
 1000624:	d8802a15 	stw	r2,168(sp)
 1000628:	d8003115 	stw	zero,196(sp)
 100062c:	04c01604 	movi	r19,88
 1000630:	05800244 	movi	r22,9
 1000634:	9021883a 	mov	r16,r18
 1000638:	4039883a 	mov	fp,r8
 100063c:	ad400044 	addi	r21,r21,1
 1000640:	88bff804 	addi	r2,r17,-32
 1000644:	98833236 	bltu	r19,r2,1001310 <___vfprintf_internal_r+0xe5c>
 1000648:	100490ba 	slli	r2,r2,2
 100064c:	00c04034 	movhi	r3,256
 1000650:	18c19804 	addi	r3,r3,1632
 1000654:	10c5883a 	add	r2,r2,r3
 1000658:	10800017 	ldw	r2,0(r2)
 100065c:	1000683a 	jmp	r2
 1000660:	01001208 	cmpgei	r4,zero,72
 1000664:	01001310 	cmplti	r4,zero,76
 1000668:	01001310 	cmplti	r4,zero,76
 100066c:	01001228 	cmpgeui	r4,zero,72
 1000670:	01001310 	cmplti	r4,zero,76
 1000674:	01001310 	cmplti	r4,zero,76
 1000678:	01001310 	cmplti	r4,zero,76
 100067c:	01001310 	cmplti	r4,zero,76
 1000680:	01001310 	cmplti	r4,zero,76
 1000684:	01001310 	cmplti	r4,zero,76
 1000688:	01000910 	cmplti	r4,zero,36
 100068c:	01001118 	cmpnei	r4,zero,68
 1000690:	01001310 	cmplti	r4,zero,76
 1000694:	010007d4 	movui	r4,31
 1000698:	01000934 	movhi	r4,36
 100069c:	01001310 	cmplti	r4,zero,76
 10006a0:	01000984 	movi	r4,38
 10006a4:	01000990 	cmplti	r4,zero,38
 10006a8:	01000990 	cmplti	r4,zero,38
 10006ac:	01000990 	cmplti	r4,zero,38
 10006b0:	01000990 	cmplti	r4,zero,38
 10006b4:	01000990 	cmplti	r4,zero,38
 10006b8:	01000990 	cmplti	r4,zero,38
 10006bc:	01000990 	cmplti	r4,zero,38
 10006c0:	01000990 	cmplti	r4,zero,38
 10006c4:	01000990 	cmplti	r4,zero,38
 10006c8:	01001310 	cmplti	r4,zero,76
 10006cc:	01001310 	cmplti	r4,zero,76
 10006d0:	01001310 	cmplti	r4,zero,76
 10006d4:	01001310 	cmplti	r4,zero,76
 10006d8:	01001310 	cmplti	r4,zero,76
 10006dc:	01001310 	cmplti	r4,zero,76
 10006e0:	01001310 	cmplti	r4,zero,76
 10006e4:	01001310 	cmplti	r4,zero,76
 10006e8:	01001310 	cmplti	r4,zero,76
 10006ec:	01001310 	cmplti	r4,zero,76
 10006f0:	010009cc 	andi	r4,zero,39
 10006f4:	01000a94 	movui	r4,42
 10006f8:	01001310 	cmplti	r4,zero,76
 10006fc:	01000a94 	movui	r4,42
 1000700:	01001310 	cmplti	r4,zero,76
 1000704:	01001310 	cmplti	r4,zero,76
 1000708:	01001310 	cmplti	r4,zero,76
 100070c:	01001310 	cmplti	r4,zero,76
 1000710:	01000b40 	call	1000b4 <__alt_mem_sdram-0xefff4c>
 1000714:	01001310 	cmplti	r4,zero,76
 1000718:	01001310 	cmplti	r4,zero,76
 100071c:	01000b4c 	andi	r4,zero,45
 1000720:	01001310 	cmplti	r4,zero,76
 1000724:	01001310 	cmplti	r4,zero,76
 1000728:	01001310 	cmplti	r4,zero,76
 100072c:	01001310 	cmplti	r4,zero,76
 1000730:	01001310 	cmplti	r4,zero,76
 1000734:	01000fd0 	cmplti	r4,zero,63
 1000738:	01001310 	cmplti	r4,zero,76
 100073c:	01001310 	cmplti	r4,zero,76
 1000740:	0100103c 	xorhi	r4,zero,64
 1000744:	01001310 	cmplti	r4,zero,76
 1000748:	01001310 	cmplti	r4,zero,76
 100074c:	01001310 	cmplti	r4,zero,76
 1000750:	01001310 	cmplti	r4,zero,76
 1000754:	01001310 	cmplti	r4,zero,76
 1000758:	01001310 	cmplti	r4,zero,76
 100075c:	01001310 	cmplti	r4,zero,76
 1000760:	01001310 	cmplti	r4,zero,76
 1000764:	01001310 	cmplti	r4,zero,76
 1000768:	01001310 	cmplti	r4,zero,76
 100076c:	010012b4 	movhi	r4,74
 1000770:	01001234 	movhi	r4,72
 1000774:	01000a94 	movui	r4,42
 1000778:	01000a94 	movui	r4,42
 100077c:	01000a94 	movui	r4,42
 1000780:	01001254 	movui	r4,73
 1000784:	01001234 	movhi	r4,72
 1000788:	01001310 	cmplti	r4,zero,76
 100078c:	01001310 	cmplti	r4,zero,76
 1000790:	01001260 	cmpeqi	r4,zero,73
 1000794:	01001310 	cmplti	r4,zero,76
 1000798:	01001274 	movhi	r4,73
 100079c:	010010f8 	rdprs	r4,zero,67
 10007a0:	010007e0 	cmpeqi	r4,zero,31
 10007a4:	01001130 	cmpltui	r4,zero,68
 10007a8:	01001310 	cmplti	r4,zero,76
 10007ac:	0100113c 	xorhi	r4,zero,68
 10007b0:	01001310 	cmplti	r4,zero,76
 10007b4:	010011a0 	cmpeqi	r4,zero,70
 10007b8:	01001310 	cmplti	r4,zero,76
 10007bc:	01001310 	cmplti	r4,zero,76
 10007c0:	010011c0 	call	10011c <__alt_mem_sdram-0xeffee4>
 10007c4:	d8c03117 	ldw	r3,196(sp)
 10007c8:	d8802e15 	stw	r2,184(sp)
 10007cc:	00c7c83a 	sub	r3,zero,r3
 10007d0:	d8c03115 	stw	r3,196(sp)
 10007d4:	84000114 	ori	r16,r16,4
 10007d8:	ac400007 	ldb	r17,0(r21)
 10007dc:	003f9706 	br	100063c <__alt_mem_epcs+0xfefff63c>
 10007e0:	00800c04 	movi	r2,48
 10007e4:	d8802705 	stb	r2,156(sp)
 10007e8:	00801e04 	movi	r2,120
 10007ec:	d8802745 	stb	r2,157(sp)
 10007f0:	d9002a17 	ldw	r4,168(sp)
 10007f4:	d8802e17 	ldw	r2,184(sp)
 10007f8:	d8002785 	stb	zero,158(sp)
 10007fc:	e011883a 	mov	r8,fp
 1000800:	10c00104 	addi	r3,r2,4
 1000804:	14c00017 	ldw	r19,0(r2)
 1000808:	002d883a 	mov	r22,zero
 100080c:	80800094 	ori	r2,r16,2
 1000810:	2002ca16 	blt	r4,zero,100133c <___vfprintf_internal_r+0xe88>
 1000814:	00bfdfc4 	movi	r2,-129
 1000818:	80a4703a 	and	r18,r16,r2
 100081c:	d8c02e15 	stw	r3,184(sp)
 1000820:	94800094 	ori	r18,r18,2
 1000824:	9802b41e 	bne	r19,zero,10012f8 <___vfprintf_internal_r+0xe44>
 1000828:	01404074 	movhi	r5,257
 100082c:	29459b04 	addi	r5,r5,5740
 1000830:	d9403915 	stw	r5,228(sp)
 1000834:	04401e04 	movi	r17,120
 1000838:	d8802a17 	ldw	r2,168(sp)
 100083c:	0039883a 	mov	fp,zero
 1000840:	1001fa26 	beq	r2,zero,100102c <___vfprintf_internal_r+0xb78>
 1000844:	0027883a 	mov	r19,zero
 1000848:	002d883a 	mov	r22,zero
 100084c:	00021906 	br	10010b4 <___vfprintf_internal_r+0xc00>
 1000850:	d9002d17 	ldw	r4,180(sp)
 1000854:	b80b883a 	mov	r5,r23
 1000858:	10028680 	call	1002868 <__swsetup_r>
 100085c:	1005dc1e 	bne	r2,zero,1001fd0 <___vfprintf_internal_r+0x1b1c>
 1000860:	b880030b 	ldhu	r2,12(r23)
 1000864:	00c00284 	movi	r3,10
 1000868:	1080068c 	andi	r2,r2,26
 100086c:	10ff3a1e 	bne	r2,r3,1000558 <__alt_mem_epcs+0xfefff558>
 1000870:	b880038f 	ldh	r2,14(r23)
 1000874:	103f3816 	blt	r2,zero,1000558 <__alt_mem_epcs+0xfefff558>
 1000878:	d9c02e17 	ldw	r7,184(sp)
 100087c:	d9002d17 	ldw	r4,180(sp)
 1000880:	a80d883a 	mov	r6,r21
 1000884:	b80b883a 	mov	r5,r23
 1000888:	10027ac0 	call	10027ac <__sbprintf>
 100088c:	00001106 	br	10008d4 <___vfprintf_internal_r+0x420>
 1000890:	d9002d17 	ldw	r4,180(sp)
 1000894:	d9801e04 	addi	r6,sp,120
 1000898:	b80b883a 	mov	r5,r23
 100089c:	1007c940 	call	1007c94 <__sprint_r>
 10008a0:	1000081e 	bne	r2,zero,10008c4 <___vfprintf_internal_r+0x410>
 10008a4:	da000404 	addi	r8,sp,16
 10008a8:	003f5106 	br	10005f0 <__alt_mem_epcs+0xfefff5f0>
 10008ac:	d8802017 	ldw	r2,128(sp)
 10008b0:	10000426 	beq	r2,zero,10008c4 <___vfprintf_internal_r+0x410>
 10008b4:	d9002d17 	ldw	r4,180(sp)
 10008b8:	d9801e04 	addi	r6,sp,120
 10008bc:	b80b883a 	mov	r5,r23
 10008c0:	1007c940 	call	1007c94 <__sprint_r>
 10008c4:	b880030b 	ldhu	r2,12(r23)
 10008c8:	1080100c 	andi	r2,r2,64
 10008cc:	1005c01e 	bne	r2,zero,1001fd0 <___vfprintf_internal_r+0x1b1c>
 10008d0:	d8802f17 	ldw	r2,188(sp)
 10008d4:	dfc04717 	ldw	ra,284(sp)
 10008d8:	df004617 	ldw	fp,280(sp)
 10008dc:	ddc04517 	ldw	r23,276(sp)
 10008e0:	dd804417 	ldw	r22,272(sp)
 10008e4:	dd404317 	ldw	r21,268(sp)
 10008e8:	dd004217 	ldw	r20,264(sp)
 10008ec:	dcc04117 	ldw	r19,260(sp)
 10008f0:	dc804017 	ldw	r18,256(sp)
 10008f4:	dc403f17 	ldw	r17,252(sp)
 10008f8:	dc003e17 	ldw	r16,248(sp)
 10008fc:	dec04804 	addi	sp,sp,288
 1000900:	f800283a 	ret
 1000904:	d9002d17 	ldw	r4,180(sp)
 1000908:	10048740 	call	1004874 <__sinit>
 100090c:	003f0206 	br	1000518 <__alt_mem_epcs+0xfefff518>
 1000910:	d9002e17 	ldw	r4,184(sp)
 1000914:	d9402e17 	ldw	r5,184(sp)
 1000918:	21000017 	ldw	r4,0(r4)
 100091c:	28800104 	addi	r2,r5,4
 1000920:	d9003115 	stw	r4,196(sp)
 1000924:	203fa716 	blt	r4,zero,10007c4 <__alt_mem_epcs+0xfefff7c4>
 1000928:	d8802e15 	stw	r2,184(sp)
 100092c:	ac400007 	ldb	r17,0(r21)
 1000930:	003f4206 	br	100063c <__alt_mem_epcs+0xfefff63c>
 1000934:	ac400007 	ldb	r17,0(r21)
 1000938:	01000a84 	movi	r4,42
 100093c:	a8c00044 	addi	r3,r21,1
 1000940:	89075826 	beq	r17,r4,10026a4 <___vfprintf_internal_r+0x21f0>
 1000944:	8cbff404 	addi	r18,r17,-48
 1000948:	b486ae36 	bltu	r22,r18,1002404 <___vfprintf_internal_r+0x1f50>
 100094c:	0009883a 	mov	r4,zero
 1000950:	1823883a 	mov	r17,r3
 1000954:	01400284 	movi	r5,10
 1000958:	100a9500 	call	100a950 <__mulsi3>
 100095c:	88c00007 	ldb	r3,0(r17)
 1000960:	1489883a 	add	r4,r2,r18
 1000964:	8d400044 	addi	r21,r17,1
 1000968:	1cbff404 	addi	r18,r3,-48
 100096c:	a823883a 	mov	r17,r21
 1000970:	b4bff82e 	bgeu	r22,r18,1000954 <__alt_mem_epcs+0xfefff954>
 1000974:	1823883a 	mov	r17,r3
 1000978:	2005f616 	blt	r4,zero,1002154 <___vfprintf_internal_r+0x1ca0>
 100097c:	d9002a15 	stw	r4,168(sp)
 1000980:	003f2f06 	br	1000640 <__alt_mem_epcs+0xfefff640>
 1000984:	84002014 	ori	r16,r16,128
 1000988:	ac400007 	ldb	r17,0(r21)
 100098c:	003f2b06 	br	100063c <__alt_mem_epcs+0xfefff63c>
 1000990:	8cbff404 	addi	r18,r17,-48
 1000994:	d8003115 	stw	zero,196(sp)
 1000998:	0009883a 	mov	r4,zero
 100099c:	a823883a 	mov	r17,r21
 10009a0:	01400284 	movi	r5,10
 10009a4:	100a9500 	call	100a950 <__mulsi3>
 10009a8:	88c00007 	ldb	r3,0(r17)
 10009ac:	9089883a 	add	r4,r18,r2
 10009b0:	ad400044 	addi	r21,r21,1
 10009b4:	1cbff404 	addi	r18,r3,-48
 10009b8:	a823883a 	mov	r17,r21
 10009bc:	b4bff82e 	bgeu	r22,r18,10009a0 <__alt_mem_epcs+0xfefff9a0>
 10009c0:	1823883a 	mov	r17,r3
 10009c4:	d9003115 	stw	r4,196(sp)
 10009c8:	003f1d06 	br	1000640 <__alt_mem_epcs+0xfefff640>
 10009cc:	8025883a 	mov	r18,r16
 10009d0:	dc002903 	ldbu	r16,164(sp)
 10009d4:	e011883a 	mov	r8,fp
 10009d8:	84003fcc 	andi	r16,r16,255
 10009dc:	8007531e 	bne	r16,zero,100272c <___vfprintf_internal_r+0x2278>
 10009e0:	94800414 	ori	r18,r18,16
 10009e4:	9080080c 	andi	r2,r18,32
 10009e8:	1003a326 	beq	r2,zero,1001878 <___vfprintf_internal_r+0x13c4>
 10009ec:	d9002e17 	ldw	r4,184(sp)
 10009f0:	20800117 	ldw	r2,4(r4)
 10009f4:	24c00017 	ldw	r19,0(r4)
 10009f8:	21000204 	addi	r4,r4,8
 10009fc:	d9002e15 	stw	r4,184(sp)
 1000a00:	102d883a 	mov	r22,r2
 1000a04:	10047316 	blt	r2,zero,1001bd4 <___vfprintf_internal_r+0x1720>
 1000a08:	d9002a17 	ldw	r4,168(sp)
 1000a0c:	df002783 	ldbu	fp,158(sp)
 1000a10:	2003e416 	blt	r4,zero,10019a4 <___vfprintf_internal_r+0x14f0>
 1000a14:	00ffdfc4 	movi	r3,-129
 1000a18:	9d84b03a 	or	r2,r19,r22
 1000a1c:	90e4703a 	and	r18,r18,r3
 1000a20:	10018026 	beq	r2,zero,1001024 <___vfprintf_internal_r+0xb70>
 1000a24:	b003ab26 	beq	r22,zero,10018d4 <___vfprintf_internal_r+0x1420>
 1000a28:	dc402915 	stw	r17,164(sp)
 1000a2c:	dc001e04 	addi	r16,sp,120
 1000a30:	b023883a 	mov	r17,r22
 1000a34:	402d883a 	mov	r22,r8
 1000a38:	9809883a 	mov	r4,r19
 1000a3c:	880b883a 	mov	r5,r17
 1000a40:	01800284 	movi	r6,10
 1000a44:	000f883a 	mov	r7,zero
 1000a48:	100a1d80 	call	100a1d8 <__umoddi3>
 1000a4c:	10800c04 	addi	r2,r2,48
 1000a50:	843fffc4 	addi	r16,r16,-1
 1000a54:	9809883a 	mov	r4,r19
 1000a58:	880b883a 	mov	r5,r17
 1000a5c:	80800005 	stb	r2,0(r16)
 1000a60:	01800284 	movi	r6,10
 1000a64:	000f883a 	mov	r7,zero
 1000a68:	1009bdc0 	call	1009bdc <__udivdi3>
 1000a6c:	1027883a 	mov	r19,r2
 1000a70:	10c4b03a 	or	r2,r2,r3
 1000a74:	1823883a 	mov	r17,r3
 1000a78:	103fef1e 	bne	r2,zero,1000a38 <__alt_mem_epcs+0xfefffa38>
 1000a7c:	d8c02817 	ldw	r3,160(sp)
 1000a80:	dc402917 	ldw	r17,164(sp)
 1000a84:	b011883a 	mov	r8,r22
 1000a88:	1c07c83a 	sub	r3,r3,r16
 1000a8c:	d8c02b15 	stw	r3,172(sp)
 1000a90:	00005f06 	br	1000c10 <___vfprintf_internal_r+0x75c>
 1000a94:	8025883a 	mov	r18,r16
 1000a98:	dc002903 	ldbu	r16,164(sp)
 1000a9c:	e011883a 	mov	r8,fp
 1000aa0:	84003fcc 	andi	r16,r16,255
 1000aa4:	80071e1e 	bne	r16,zero,1002720 <___vfprintf_internal_r+0x226c>
 1000aa8:	9080020c 	andi	r2,r18,8
 1000aac:	1004af26 	beq	r2,zero,1001d6c <___vfprintf_internal_r+0x18b8>
 1000ab0:	d9002e17 	ldw	r4,184(sp)
 1000ab4:	d9402e17 	ldw	r5,184(sp)
 1000ab8:	d8802e17 	ldw	r2,184(sp)
 1000abc:	21000017 	ldw	r4,0(r4)
 1000ac0:	29400117 	ldw	r5,4(r5)
 1000ac4:	10800204 	addi	r2,r2,8
 1000ac8:	d9003615 	stw	r4,216(sp)
 1000acc:	d9403815 	stw	r5,224(sp)
 1000ad0:	d8802e15 	stw	r2,184(sp)
 1000ad4:	d9003617 	ldw	r4,216(sp)
 1000ad8:	d9403817 	ldw	r5,224(sp)
 1000adc:	da003d15 	stw	r8,244(sp)
 1000ae0:	04000044 	movi	r16,1
 1000ae4:	10078b80 	call	10078b8 <__fpclassifyd>
 1000ae8:	da003d17 	ldw	r8,244(sp)
 1000aec:	1404441e 	bne	r2,r16,1001c00 <___vfprintf_internal_r+0x174c>
 1000af0:	d9003617 	ldw	r4,216(sp)
 1000af4:	d9403817 	ldw	r5,224(sp)
 1000af8:	000d883a 	mov	r6,zero
 1000afc:	000f883a 	mov	r7,zero
 1000b00:	100bd580 	call	100bd58 <__ledf2>
 1000b04:	da003d17 	ldw	r8,244(sp)
 1000b08:	1005e316 	blt	r2,zero,1002298 <___vfprintf_internal_r+0x1de4>
 1000b0c:	df002783 	ldbu	fp,158(sp)
 1000b10:	008011c4 	movi	r2,71
 1000b14:	1445580e 	bge	r2,r17,1002078 <___vfprintf_internal_r+0x1bc4>
 1000b18:	04004074 	movhi	r16,257
 1000b1c:	84059304 	addi	r16,r16,5708
 1000b20:	00c000c4 	movi	r3,3
 1000b24:	00bfdfc4 	movi	r2,-129
 1000b28:	d8c02915 	stw	r3,164(sp)
 1000b2c:	90a4703a 	and	r18,r18,r2
 1000b30:	d8c02b15 	stw	r3,172(sp)
 1000b34:	d8002a15 	stw	zero,168(sp)
 1000b38:	d8003215 	stw	zero,200(sp)
 1000b3c:	00003a06 	br	1000c28 <___vfprintf_internal_r+0x774>
 1000b40:	84000214 	ori	r16,r16,8
 1000b44:	ac400007 	ldb	r17,0(r21)
 1000b48:	003ebc06 	br	100063c <__alt_mem_epcs+0xfefff63c>
 1000b4c:	8025883a 	mov	r18,r16
 1000b50:	dc002903 	ldbu	r16,164(sp)
 1000b54:	e011883a 	mov	r8,fp
 1000b58:	84003fcc 	andi	r16,r16,255
 1000b5c:	8007001e 	bne	r16,zero,1002760 <___vfprintf_internal_r+0x22ac>
 1000b60:	94800414 	ori	r18,r18,16
 1000b64:	9080080c 	andi	r2,r18,32
 1000b68:	1002fa26 	beq	r2,zero,1001754 <___vfprintf_internal_r+0x12a0>
 1000b6c:	d9002e17 	ldw	r4,184(sp)
 1000b70:	d9402a17 	ldw	r5,168(sp)
 1000b74:	d8002785 	stb	zero,158(sp)
 1000b78:	20800204 	addi	r2,r4,8
 1000b7c:	24c00017 	ldw	r19,0(r4)
 1000b80:	25800117 	ldw	r22,4(r4)
 1000b84:	2804b116 	blt	r5,zero,1001e4c <___vfprintf_internal_r+0x1998>
 1000b88:	013fdfc4 	movi	r4,-129
 1000b8c:	9d86b03a 	or	r3,r19,r22
 1000b90:	d8802e15 	stw	r2,184(sp)
 1000b94:	9124703a 	and	r18,r18,r4
 1000b98:	1802fb1e 	bne	r3,zero,1001788 <___vfprintf_internal_r+0x12d4>
 1000b9c:	d8c02a17 	ldw	r3,168(sp)
 1000ba0:	0039883a 	mov	fp,zero
 1000ba4:	1805e526 	beq	r3,zero,100233c <___vfprintf_internal_r+0x1e88>
 1000ba8:	0027883a 	mov	r19,zero
 1000bac:	002d883a 	mov	r22,zero
 1000bb0:	dc001e04 	addi	r16,sp,120
 1000bb4:	9806d0fa 	srli	r3,r19,3
 1000bb8:	b008977a 	slli	r4,r22,29
 1000bbc:	b02cd0fa 	srli	r22,r22,3
 1000bc0:	9cc001cc 	andi	r19,r19,7
 1000bc4:	98800c04 	addi	r2,r19,48
 1000bc8:	843fffc4 	addi	r16,r16,-1
 1000bcc:	20e6b03a 	or	r19,r4,r3
 1000bd0:	80800005 	stb	r2,0(r16)
 1000bd4:	9d86b03a 	or	r3,r19,r22
 1000bd8:	183ff61e 	bne	r3,zero,1000bb4 <__alt_mem_epcs+0xfefffbb4>
 1000bdc:	90c0004c 	andi	r3,r18,1
 1000be0:	18014126 	beq	r3,zero,10010e8 <___vfprintf_internal_r+0xc34>
 1000be4:	10803fcc 	andi	r2,r2,255
 1000be8:	1080201c 	xori	r2,r2,128
 1000bec:	10bfe004 	addi	r2,r2,-128
 1000bf0:	00c00c04 	movi	r3,48
 1000bf4:	10c13c26 	beq	r2,r3,10010e8 <___vfprintf_internal_r+0xc34>
 1000bf8:	80ffffc5 	stb	r3,-1(r16)
 1000bfc:	d8c02817 	ldw	r3,160(sp)
 1000c00:	80bfffc4 	addi	r2,r16,-1
 1000c04:	1021883a 	mov	r16,r2
 1000c08:	1887c83a 	sub	r3,r3,r2
 1000c0c:	d8c02b15 	stw	r3,172(sp)
 1000c10:	d8802b17 	ldw	r2,172(sp)
 1000c14:	d9002a17 	ldw	r4,168(sp)
 1000c18:	1100010e 	bge	r2,r4,1000c20 <___vfprintf_internal_r+0x76c>
 1000c1c:	2005883a 	mov	r2,r4
 1000c20:	d8802915 	stw	r2,164(sp)
 1000c24:	d8003215 	stw	zero,200(sp)
 1000c28:	e7003fcc 	andi	fp,fp,255
 1000c2c:	e700201c 	xori	fp,fp,128
 1000c30:	e73fe004 	addi	fp,fp,-128
 1000c34:	e0000326 	beq	fp,zero,1000c44 <___vfprintf_internal_r+0x790>
 1000c38:	d8c02917 	ldw	r3,164(sp)
 1000c3c:	18c00044 	addi	r3,r3,1
 1000c40:	d8c02915 	stw	r3,164(sp)
 1000c44:	90c0008c 	andi	r3,r18,2
 1000c48:	d8c02c15 	stw	r3,176(sp)
 1000c4c:	18000326 	beq	r3,zero,1000c5c <___vfprintf_internal_r+0x7a8>
 1000c50:	d8c02917 	ldw	r3,164(sp)
 1000c54:	18c00084 	addi	r3,r3,2
 1000c58:	d8c02915 	stw	r3,164(sp)
 1000c5c:	90c0210c 	andi	r3,r18,132
 1000c60:	d8c03015 	stw	r3,192(sp)
 1000c64:	1801c51e 	bne	r3,zero,100137c <___vfprintf_internal_r+0xec8>
 1000c68:	d9003117 	ldw	r4,196(sp)
 1000c6c:	d8c02917 	ldw	r3,164(sp)
 1000c70:	20e7c83a 	sub	r19,r4,r3
 1000c74:	04c1c10e 	bge	zero,r19,100137c <___vfprintf_internal_r+0xec8>
 1000c78:	02400404 	movi	r9,16
 1000c7c:	d8c02017 	ldw	r3,128(sp)
 1000c80:	d8801f17 	ldw	r2,124(sp)
 1000c84:	4cc52f0e 	bge	r9,r19,1002144 <___vfprintf_internal_r+0x1c90>
 1000c88:	01404074 	movhi	r5,257
 1000c8c:	2945a684 	addi	r5,r5,5786
 1000c90:	dc403b15 	stw	r17,236(sp)
 1000c94:	d9403515 	stw	r5,212(sp)
 1000c98:	9823883a 	mov	r17,r19
 1000c9c:	482d883a 	mov	r22,r9
 1000ca0:	9027883a 	mov	r19,r18
 1000ca4:	070001c4 	movi	fp,7
 1000ca8:	8025883a 	mov	r18,r16
 1000cac:	dc002d17 	ldw	r16,180(sp)
 1000cb0:	00000306 	br	1000cc0 <___vfprintf_internal_r+0x80c>
 1000cb4:	8c7ffc04 	addi	r17,r17,-16
 1000cb8:	42000204 	addi	r8,r8,8
 1000cbc:	b440130e 	bge	r22,r17,1000d0c <___vfprintf_internal_r+0x858>
 1000cc0:	01004074 	movhi	r4,257
 1000cc4:	18c00404 	addi	r3,r3,16
 1000cc8:	10800044 	addi	r2,r2,1
 1000ccc:	2105a684 	addi	r4,r4,5786
 1000cd0:	41000015 	stw	r4,0(r8)
 1000cd4:	45800115 	stw	r22,4(r8)
 1000cd8:	d8c02015 	stw	r3,128(sp)
 1000cdc:	d8801f15 	stw	r2,124(sp)
 1000ce0:	e0bff40e 	bge	fp,r2,1000cb4 <__alt_mem_epcs+0xfefffcb4>
 1000ce4:	d9801e04 	addi	r6,sp,120
 1000ce8:	b80b883a 	mov	r5,r23
 1000cec:	8009883a 	mov	r4,r16
 1000cf0:	1007c940 	call	1007c94 <__sprint_r>
 1000cf4:	103ef31e 	bne	r2,zero,10008c4 <__alt_mem_epcs+0xfefff8c4>
 1000cf8:	8c7ffc04 	addi	r17,r17,-16
 1000cfc:	d8c02017 	ldw	r3,128(sp)
 1000d00:	d8801f17 	ldw	r2,124(sp)
 1000d04:	da000404 	addi	r8,sp,16
 1000d08:	b47fed16 	blt	r22,r17,1000cc0 <__alt_mem_epcs+0xfefffcc0>
 1000d0c:	9021883a 	mov	r16,r18
 1000d10:	9825883a 	mov	r18,r19
 1000d14:	8827883a 	mov	r19,r17
 1000d18:	dc403b17 	ldw	r17,236(sp)
 1000d1c:	d9403517 	ldw	r5,212(sp)
 1000d20:	98c7883a 	add	r3,r19,r3
 1000d24:	10800044 	addi	r2,r2,1
 1000d28:	41400015 	stw	r5,0(r8)
 1000d2c:	44c00115 	stw	r19,4(r8)
 1000d30:	d8c02015 	stw	r3,128(sp)
 1000d34:	d8801f15 	stw	r2,124(sp)
 1000d38:	010001c4 	movi	r4,7
 1000d3c:	2082c516 	blt	r4,r2,1001854 <___vfprintf_internal_r+0x13a0>
 1000d40:	df002787 	ldb	fp,158(sp)
 1000d44:	42000204 	addi	r8,r8,8
 1000d48:	e0000c26 	beq	fp,zero,1000d7c <___vfprintf_internal_r+0x8c8>
 1000d4c:	d8801f17 	ldw	r2,124(sp)
 1000d50:	d9002784 	addi	r4,sp,158
 1000d54:	18c00044 	addi	r3,r3,1
 1000d58:	10800044 	addi	r2,r2,1
 1000d5c:	41000015 	stw	r4,0(r8)
 1000d60:	01000044 	movi	r4,1
 1000d64:	41000115 	stw	r4,4(r8)
 1000d68:	d8c02015 	stw	r3,128(sp)
 1000d6c:	d8801f15 	stw	r2,124(sp)
 1000d70:	010001c4 	movi	r4,7
 1000d74:	20825e16 	blt	r4,r2,10016f0 <___vfprintf_internal_r+0x123c>
 1000d78:	42000204 	addi	r8,r8,8
 1000d7c:	d8802c17 	ldw	r2,176(sp)
 1000d80:	10000c26 	beq	r2,zero,1000db4 <___vfprintf_internal_r+0x900>
 1000d84:	d8801f17 	ldw	r2,124(sp)
 1000d88:	d9002704 	addi	r4,sp,156
 1000d8c:	18c00084 	addi	r3,r3,2
 1000d90:	10800044 	addi	r2,r2,1
 1000d94:	41000015 	stw	r4,0(r8)
 1000d98:	01000084 	movi	r4,2
 1000d9c:	41000115 	stw	r4,4(r8)
 1000da0:	d8c02015 	stw	r3,128(sp)
 1000da4:	d8801f15 	stw	r2,124(sp)
 1000da8:	010001c4 	movi	r4,7
 1000dac:	20825816 	blt	r4,r2,1001710 <___vfprintf_internal_r+0x125c>
 1000db0:	42000204 	addi	r8,r8,8
 1000db4:	d9003017 	ldw	r4,192(sp)
 1000db8:	00802004 	movi	r2,128
 1000dbc:	2081bb26 	beq	r4,r2,10014ac <___vfprintf_internal_r+0xff8>
 1000dc0:	d9402a17 	ldw	r5,168(sp)
 1000dc4:	d8802b17 	ldw	r2,172(sp)
 1000dc8:	28adc83a 	sub	r22,r5,r2
 1000dcc:	0580310e 	bge	zero,r22,1000e94 <___vfprintf_internal_r+0x9e0>
 1000dd0:	07000404 	movi	fp,16
 1000dd4:	d8801f17 	ldw	r2,124(sp)
 1000dd8:	e584360e 	bge	fp,r22,1001eb4 <___vfprintf_internal_r+0x1a00>
 1000ddc:	01404074 	movhi	r5,257
 1000de0:	2945a284 	addi	r5,r5,5770
 1000de4:	dc402a15 	stw	r17,168(sp)
 1000de8:	d9402c15 	stw	r5,176(sp)
 1000dec:	b023883a 	mov	r17,r22
 1000df0:	04c001c4 	movi	r19,7
 1000df4:	a82d883a 	mov	r22,r21
 1000df8:	902b883a 	mov	r21,r18
 1000dfc:	8025883a 	mov	r18,r16
 1000e00:	dc002d17 	ldw	r16,180(sp)
 1000e04:	00000306 	br	1000e14 <___vfprintf_internal_r+0x960>
 1000e08:	8c7ffc04 	addi	r17,r17,-16
 1000e0c:	42000204 	addi	r8,r8,8
 1000e10:	e440110e 	bge	fp,r17,1000e58 <___vfprintf_internal_r+0x9a4>
 1000e14:	18c00404 	addi	r3,r3,16
 1000e18:	10800044 	addi	r2,r2,1
 1000e1c:	45000015 	stw	r20,0(r8)
 1000e20:	47000115 	stw	fp,4(r8)
 1000e24:	d8c02015 	stw	r3,128(sp)
 1000e28:	d8801f15 	stw	r2,124(sp)
 1000e2c:	98bff60e 	bge	r19,r2,1000e08 <__alt_mem_epcs+0xfefffe08>
 1000e30:	d9801e04 	addi	r6,sp,120
 1000e34:	b80b883a 	mov	r5,r23
 1000e38:	8009883a 	mov	r4,r16
 1000e3c:	1007c940 	call	1007c94 <__sprint_r>
 1000e40:	103ea01e 	bne	r2,zero,10008c4 <__alt_mem_epcs+0xfefff8c4>
 1000e44:	8c7ffc04 	addi	r17,r17,-16
 1000e48:	d8c02017 	ldw	r3,128(sp)
 1000e4c:	d8801f17 	ldw	r2,124(sp)
 1000e50:	da000404 	addi	r8,sp,16
 1000e54:	e47fef16 	blt	fp,r17,1000e14 <__alt_mem_epcs+0xfefffe14>
 1000e58:	9021883a 	mov	r16,r18
 1000e5c:	a825883a 	mov	r18,r21
 1000e60:	b02b883a 	mov	r21,r22
 1000e64:	882d883a 	mov	r22,r17
 1000e68:	dc402a17 	ldw	r17,168(sp)
 1000e6c:	d9002c17 	ldw	r4,176(sp)
 1000e70:	1d87883a 	add	r3,r3,r22
 1000e74:	10800044 	addi	r2,r2,1
 1000e78:	41000015 	stw	r4,0(r8)
 1000e7c:	45800115 	stw	r22,4(r8)
 1000e80:	d8c02015 	stw	r3,128(sp)
 1000e84:	d8801f15 	stw	r2,124(sp)
 1000e88:	010001c4 	movi	r4,7
 1000e8c:	20821016 	blt	r4,r2,10016d0 <___vfprintf_internal_r+0x121c>
 1000e90:	42000204 	addi	r8,r8,8
 1000e94:	9080400c 	andi	r2,r18,256
 1000e98:	10013a1e 	bne	r2,zero,1001384 <___vfprintf_internal_r+0xed0>
 1000e9c:	d9402b17 	ldw	r5,172(sp)
 1000ea0:	d8801f17 	ldw	r2,124(sp)
 1000ea4:	44000015 	stw	r16,0(r8)
 1000ea8:	1947883a 	add	r3,r3,r5
 1000eac:	10800044 	addi	r2,r2,1
 1000eb0:	41400115 	stw	r5,4(r8)
 1000eb4:	d8c02015 	stw	r3,128(sp)
 1000eb8:	d8801f15 	stw	r2,124(sp)
 1000ebc:	010001c4 	movi	r4,7
 1000ec0:	2081f516 	blt	r4,r2,1001698 <___vfprintf_internal_r+0x11e4>
 1000ec4:	42000204 	addi	r8,r8,8
 1000ec8:	9480010c 	andi	r18,r18,4
 1000ecc:	90003226 	beq	r18,zero,1000f98 <___vfprintf_internal_r+0xae4>
 1000ed0:	d9403117 	ldw	r5,196(sp)
 1000ed4:	d8802917 	ldw	r2,164(sp)
 1000ed8:	28a1c83a 	sub	r16,r5,r2
 1000edc:	04002e0e 	bge	zero,r16,1000f98 <___vfprintf_internal_r+0xae4>
 1000ee0:	04400404 	movi	r17,16
 1000ee4:	d8801f17 	ldw	r2,124(sp)
 1000ee8:	8c04c40e 	bge	r17,r16,10021fc <___vfprintf_internal_r+0x1d48>
 1000eec:	01404074 	movhi	r5,257
 1000ef0:	2945a684 	addi	r5,r5,5786
 1000ef4:	d9403515 	stw	r5,212(sp)
 1000ef8:	048001c4 	movi	r18,7
 1000efc:	dcc02d17 	ldw	r19,180(sp)
 1000f00:	00000306 	br	1000f10 <___vfprintf_internal_r+0xa5c>
 1000f04:	843ffc04 	addi	r16,r16,-16
 1000f08:	42000204 	addi	r8,r8,8
 1000f0c:	8c00130e 	bge	r17,r16,1000f5c <___vfprintf_internal_r+0xaa8>
 1000f10:	01004074 	movhi	r4,257
 1000f14:	18c00404 	addi	r3,r3,16
 1000f18:	10800044 	addi	r2,r2,1
 1000f1c:	2105a684 	addi	r4,r4,5786
 1000f20:	41000015 	stw	r4,0(r8)
 1000f24:	44400115 	stw	r17,4(r8)
 1000f28:	d8c02015 	stw	r3,128(sp)
 1000f2c:	d8801f15 	stw	r2,124(sp)
 1000f30:	90bff40e 	bge	r18,r2,1000f04 <__alt_mem_epcs+0xfeffff04>
 1000f34:	d9801e04 	addi	r6,sp,120
 1000f38:	b80b883a 	mov	r5,r23
 1000f3c:	9809883a 	mov	r4,r19
 1000f40:	1007c940 	call	1007c94 <__sprint_r>
 1000f44:	103e5f1e 	bne	r2,zero,10008c4 <__alt_mem_epcs+0xfefff8c4>
 1000f48:	843ffc04 	addi	r16,r16,-16
 1000f4c:	d8c02017 	ldw	r3,128(sp)
 1000f50:	d8801f17 	ldw	r2,124(sp)
 1000f54:	da000404 	addi	r8,sp,16
 1000f58:	8c3fed16 	blt	r17,r16,1000f10 <__alt_mem_epcs+0xfeffff10>
 1000f5c:	d9403517 	ldw	r5,212(sp)
 1000f60:	1c07883a 	add	r3,r3,r16
 1000f64:	10800044 	addi	r2,r2,1
 1000f68:	41400015 	stw	r5,0(r8)
 1000f6c:	44000115 	stw	r16,4(r8)
 1000f70:	d8c02015 	stw	r3,128(sp)
 1000f74:	d8801f15 	stw	r2,124(sp)
 1000f78:	010001c4 	movi	r4,7
 1000f7c:	2080060e 	bge	r4,r2,1000f98 <___vfprintf_internal_r+0xae4>
 1000f80:	d9002d17 	ldw	r4,180(sp)
 1000f84:	d9801e04 	addi	r6,sp,120
 1000f88:	b80b883a 	mov	r5,r23
 1000f8c:	1007c940 	call	1007c94 <__sprint_r>
 1000f90:	103e4c1e 	bne	r2,zero,10008c4 <__alt_mem_epcs+0xfefff8c4>
 1000f94:	d8c02017 	ldw	r3,128(sp)
 1000f98:	d8803117 	ldw	r2,196(sp)
 1000f9c:	d9002917 	ldw	r4,164(sp)
 1000fa0:	1100010e 	bge	r2,r4,1000fa8 <___vfprintf_internal_r+0xaf4>
 1000fa4:	2005883a 	mov	r2,r4
 1000fa8:	d9402f17 	ldw	r5,188(sp)
 1000fac:	288b883a 	add	r5,r5,r2
 1000fb0:	d9402f15 	stw	r5,188(sp)
 1000fb4:	1801c01e 	bne	r3,zero,10016b8 <___vfprintf_internal_r+0x1204>
 1000fb8:	a8800007 	ldb	r2,0(r21)
 1000fbc:	d8001f15 	stw	zero,124(sp)
 1000fc0:	da000404 	addi	r8,sp,16
 1000fc4:	103d751e 	bne	r2,zero,100059c <__alt_mem_epcs+0xfefff59c>
 1000fc8:	a823883a 	mov	r17,r21
 1000fcc:	003d8b06 	br	10005fc <__alt_mem_epcs+0xfefff5fc>
 1000fd0:	8025883a 	mov	r18,r16
 1000fd4:	dc002903 	ldbu	r16,164(sp)
 1000fd8:	e011883a 	mov	r8,fp
 1000fdc:	84003fcc 	andi	r16,r16,255
 1000fe0:	8005e51e 	bne	r16,zero,1002778 <___vfprintf_internal_r+0x22c4>
 1000fe4:	94800414 	ori	r18,r18,16
 1000fe8:	9080080c 	andi	r2,r18,32
 1000fec:	10022b26 	beq	r2,zero,100189c <___vfprintf_internal_r+0x13e8>
 1000ff0:	d9002e17 	ldw	r4,184(sp)
 1000ff4:	d9402a17 	ldw	r5,168(sp)
 1000ff8:	d8002785 	stb	zero,158(sp)
 1000ffc:	20c00204 	addi	r3,r4,8
 1001000:	24c00017 	ldw	r19,0(r4)
 1001004:	25800117 	ldw	r22,4(r4)
 1001008:	28042e16 	blt	r5,zero,10020c4 <___vfprintf_internal_r+0x1c10>
 100100c:	013fdfc4 	movi	r4,-129
 1001010:	9d84b03a 	or	r2,r19,r22
 1001014:	d8c02e15 	stw	r3,184(sp)
 1001018:	9124703a 	and	r18,r18,r4
 100101c:	0039883a 	mov	fp,zero
 1001020:	103e801e 	bne	r2,zero,1000a24 <__alt_mem_epcs+0xfefffa24>
 1001024:	d9002a17 	ldw	r4,168(sp)
 1001028:	2002e01e 	bne	r4,zero,1001bac <___vfprintf_internal_r+0x16f8>
 100102c:	d8002a15 	stw	zero,168(sp)
 1001030:	d8002b15 	stw	zero,172(sp)
 1001034:	dc001e04 	addi	r16,sp,120
 1001038:	003ef506 	br	1000c10 <__alt_mem_epcs+0xfefffc10>
 100103c:	8025883a 	mov	r18,r16
 1001040:	dc002903 	ldbu	r16,164(sp)
 1001044:	e011883a 	mov	r8,fp
 1001048:	84003fcc 	andi	r16,r16,255
 100104c:	8005ba1e 	bne	r16,zero,1002738 <___vfprintf_internal_r+0x2284>
 1001050:	01004074 	movhi	r4,257
 1001054:	21059604 	addi	r4,r4,5720
 1001058:	d9003915 	stw	r4,228(sp)
 100105c:	9080080c 	andi	r2,r18,32
 1001060:	10006126 	beq	r2,zero,10011e8 <___vfprintf_internal_r+0xd34>
 1001064:	d9402e17 	ldw	r5,184(sp)
 1001068:	2cc00017 	ldw	r19,0(r5)
 100106c:	2d800117 	ldw	r22,4(r5)
 1001070:	29400204 	addi	r5,r5,8
 1001074:	d9402e15 	stw	r5,184(sp)
 1001078:	9080004c 	andi	r2,r18,1
 100107c:	1001ac26 	beq	r2,zero,1001730 <___vfprintf_internal_r+0x127c>
 1001080:	9d84b03a 	or	r2,r19,r22
 1001084:	10038526 	beq	r2,zero,1001e9c <___vfprintf_internal_r+0x19e8>
 1001088:	d8c02a17 	ldw	r3,168(sp)
 100108c:	00800c04 	movi	r2,48
 1001090:	d8802705 	stb	r2,156(sp)
 1001094:	dc402745 	stb	r17,157(sp)
 1001098:	d8002785 	stb	zero,158(sp)
 100109c:	90800094 	ori	r2,r18,2
 10010a0:	18047916 	blt	r3,zero,1002288 <___vfprintf_internal_r+0x1dd4>
 10010a4:	00bfdfc4 	movi	r2,-129
 10010a8:	90a4703a 	and	r18,r18,r2
 10010ac:	94800094 	ori	r18,r18,2
 10010b0:	0039883a 	mov	fp,zero
 10010b4:	d9003917 	ldw	r4,228(sp)
 10010b8:	dc001e04 	addi	r16,sp,120
 10010bc:	988003cc 	andi	r2,r19,15
 10010c0:	b006973a 	slli	r3,r22,28
 10010c4:	2085883a 	add	r2,r4,r2
 10010c8:	9826d13a 	srli	r19,r19,4
 10010cc:	10800003 	ldbu	r2,0(r2)
 10010d0:	b02cd13a 	srli	r22,r22,4
 10010d4:	843fffc4 	addi	r16,r16,-1
 10010d8:	1ce6b03a 	or	r19,r3,r19
 10010dc:	80800005 	stb	r2,0(r16)
 10010e0:	9d84b03a 	or	r2,r19,r22
 10010e4:	103ff51e 	bne	r2,zero,10010bc <__alt_mem_epcs+0xff0000bc>
 10010e8:	d8c02817 	ldw	r3,160(sp)
 10010ec:	1c07c83a 	sub	r3,r3,r16
 10010f0:	d8c02b15 	stw	r3,172(sp)
 10010f4:	003ec606 	br	1000c10 <__alt_mem_epcs+0xfefffc10>
 10010f8:	8025883a 	mov	r18,r16
 10010fc:	dc002903 	ldbu	r16,164(sp)
 1001100:	e011883a 	mov	r8,fp
 1001104:	84003fcc 	andi	r16,r16,255
 1001108:	803e9626 	beq	r16,zero,1000b64 <__alt_mem_epcs+0xfefffb64>
 100110c:	d8c02b03 	ldbu	r3,172(sp)
 1001110:	d8c02785 	stb	r3,158(sp)
 1001114:	003e9306 	br	1000b64 <__alt_mem_epcs+0xfefffb64>
 1001118:	00c00044 	movi	r3,1
 100111c:	d8c02905 	stb	r3,164(sp)
 1001120:	00c00ac4 	movi	r3,43
 1001124:	d8c02b05 	stb	r3,172(sp)
 1001128:	ac400007 	ldb	r17,0(r21)
 100112c:	003d4306 	br	100063c <__alt_mem_epcs+0xfefff63c>
 1001130:	84000814 	ori	r16,r16,32
 1001134:	ac400007 	ldb	r17,0(r21)
 1001138:	003d4006 	br	100063c <__alt_mem_epcs+0xfefff63c>
 100113c:	d8802e17 	ldw	r2,184(sp)
 1001140:	8025883a 	mov	r18,r16
 1001144:	d8002785 	stb	zero,158(sp)
 1001148:	14000017 	ldw	r16,0(r2)
 100114c:	e011883a 	mov	r8,fp
 1001150:	14c00104 	addi	r19,r2,4
 1001154:	80042d26 	beq	r16,zero,100220c <___vfprintf_internal_r+0x1d58>
 1001158:	d8c02a17 	ldw	r3,168(sp)
 100115c:	1803e416 	blt	r3,zero,10020f0 <___vfprintf_internal_r+0x1c3c>
 1001160:	180d883a 	mov	r6,r3
 1001164:	000b883a 	mov	r5,zero
 1001168:	8009883a 	mov	r4,r16
 100116c:	df003d15 	stw	fp,244(sp)
 1001170:	1005dec0 	call	1005dec <memchr>
 1001174:	da003d17 	ldw	r8,244(sp)
 1001178:	10046826 	beq	r2,zero,100231c <___vfprintf_internal_r+0x1e68>
 100117c:	1405c83a 	sub	r2,r2,r16
 1001180:	d8802b15 	stw	r2,172(sp)
 1001184:	1003e016 	blt	r2,zero,1002108 <___vfprintf_internal_r+0x1c54>
 1001188:	df002783 	ldbu	fp,158(sp)
 100118c:	d8802915 	stw	r2,164(sp)
 1001190:	dcc02e15 	stw	r19,184(sp)
 1001194:	d8002a15 	stw	zero,168(sp)
 1001198:	d8003215 	stw	zero,200(sp)
 100119c:	003ea206 	br	1000c28 <__alt_mem_epcs+0xfefffc28>
 10011a0:	8025883a 	mov	r18,r16
 10011a4:	dc002903 	ldbu	r16,164(sp)
 10011a8:	e011883a 	mov	r8,fp
 10011ac:	84003fcc 	andi	r16,r16,255
 10011b0:	803f8d26 	beq	r16,zero,1000fe8 <__alt_mem_epcs+0xfeffffe8>
 10011b4:	d8c02b03 	ldbu	r3,172(sp)
 10011b8:	d8c02785 	stb	r3,158(sp)
 10011bc:	003f8a06 	br	1000fe8 <__alt_mem_epcs+0xfeffffe8>
 10011c0:	8025883a 	mov	r18,r16
 10011c4:	dc002903 	ldbu	r16,164(sp)
 10011c8:	e011883a 	mov	r8,fp
 10011cc:	84003fcc 	andi	r16,r16,255
 10011d0:	8005661e 	bne	r16,zero,100276c <___vfprintf_internal_r+0x22b8>
 10011d4:	01004074 	movhi	r4,257
 10011d8:	21059b04 	addi	r4,r4,5740
 10011dc:	d9003915 	stw	r4,228(sp)
 10011e0:	9080080c 	andi	r2,r18,32
 10011e4:	103f9f1e 	bne	r2,zero,1001064 <__alt_mem_epcs+0xff000064>
 10011e8:	9080040c 	andi	r2,r18,16
 10011ec:	1002eb26 	beq	r2,zero,1001d9c <___vfprintf_internal_r+0x18e8>
 10011f0:	d8802e17 	ldw	r2,184(sp)
 10011f4:	002d883a 	mov	r22,zero
 10011f8:	14c00017 	ldw	r19,0(r2)
 10011fc:	10800104 	addi	r2,r2,4
 1001200:	d8802e15 	stw	r2,184(sp)
 1001204:	003f9c06 	br	1001078 <__alt_mem_epcs+0xff000078>
 1001208:	d8802b07 	ldb	r2,172(sp)
 100120c:	1002e11e 	bne	r2,zero,1001d94 <___vfprintf_internal_r+0x18e0>
 1001210:	00c00044 	movi	r3,1
 1001214:	d8c02905 	stb	r3,164(sp)
 1001218:	00c00804 	movi	r3,32
 100121c:	d8c02b05 	stb	r3,172(sp)
 1001220:	ac400007 	ldb	r17,0(r21)
 1001224:	003d0506 	br	100063c <__alt_mem_epcs+0xfefff63c>
 1001228:	84000054 	ori	r16,r16,1
 100122c:	ac400007 	ldb	r17,0(r21)
 1001230:	003d0206 	br	100063c <__alt_mem_epcs+0xfefff63c>
 1001234:	8025883a 	mov	r18,r16
 1001238:	dc002903 	ldbu	r16,164(sp)
 100123c:	e011883a 	mov	r8,fp
 1001240:	84003fcc 	andi	r16,r16,255
 1001244:	803de726 	beq	r16,zero,10009e4 <__alt_mem_epcs+0xfefff9e4>
 1001248:	d8c02b03 	ldbu	r3,172(sp)
 100124c:	d8c02785 	stb	r3,158(sp)
 1001250:	003de406 	br	10009e4 <__alt_mem_epcs+0xfefff9e4>
 1001254:	84001014 	ori	r16,r16,64
 1001258:	ac400007 	ldb	r17,0(r21)
 100125c:	003cf706 	br	100063c <__alt_mem_epcs+0xfefff63c>
 1001260:	ac400007 	ldb	r17,0(r21)
 1001264:	00801b04 	movi	r2,108
 1001268:	88838f26 	beq	r17,r2,10020a8 <___vfprintf_internal_r+0x1bf4>
 100126c:	84000414 	ori	r16,r16,16
 1001270:	003cf206 	br	100063c <__alt_mem_epcs+0xfefff63c>
 1001274:	8025883a 	mov	r18,r16
 1001278:	dc002903 	ldbu	r16,164(sp)
 100127c:	e011883a 	mov	r8,fp
 1001280:	84003fcc 	andi	r16,r16,255
 1001284:	80053f1e 	bne	r16,zero,1002784 <___vfprintf_internal_r+0x22d0>
 1001288:	9080080c 	andi	r2,r18,32
 100128c:	1002d226 	beq	r2,zero,1001dd8 <___vfprintf_internal_r+0x1924>
 1001290:	d9002e17 	ldw	r4,184(sp)
 1001294:	d9402f17 	ldw	r5,188(sp)
 1001298:	20800017 	ldw	r2,0(r4)
 100129c:	2807d7fa 	srai	r3,r5,31
 10012a0:	21000104 	addi	r4,r4,4
 10012a4:	d9002e15 	stw	r4,184(sp)
 10012a8:	11400015 	stw	r5,0(r2)
 10012ac:	10c00115 	stw	r3,4(r2)
 10012b0:	003cb806 	br	1000594 <__alt_mem_epcs+0xfefff594>
 10012b4:	d8c02e17 	ldw	r3,184(sp)
 10012b8:	d9002e17 	ldw	r4,184(sp)
 10012bc:	8025883a 	mov	r18,r16
 10012c0:	18800017 	ldw	r2,0(r3)
 10012c4:	21000104 	addi	r4,r4,4
 10012c8:	00c00044 	movi	r3,1
 10012cc:	e011883a 	mov	r8,fp
 10012d0:	d8c02915 	stw	r3,164(sp)
 10012d4:	d8002785 	stb	zero,158(sp)
 10012d8:	d8801405 	stb	r2,80(sp)
 10012dc:	d9002e15 	stw	r4,184(sp)
 10012e0:	d8c02b15 	stw	r3,172(sp)
 10012e4:	d8002a15 	stw	zero,168(sp)
 10012e8:	d8003215 	stw	zero,200(sp)
 10012ec:	dc001404 	addi	r16,sp,80
 10012f0:	0039883a 	mov	fp,zero
 10012f4:	003e5306 	br	1000c44 <__alt_mem_epcs+0xfefffc44>
 10012f8:	01004074 	movhi	r4,257
 10012fc:	21059b04 	addi	r4,r4,5740
 1001300:	0039883a 	mov	fp,zero
 1001304:	d9003915 	stw	r4,228(sp)
 1001308:	04401e04 	movi	r17,120
 100130c:	003f6906 	br	10010b4 <__alt_mem_epcs+0xff0000b4>
 1001310:	8025883a 	mov	r18,r16
 1001314:	dc002903 	ldbu	r16,164(sp)
 1001318:	e011883a 	mov	r8,fp
 100131c:	84003fcc 	andi	r16,r16,255
 1001320:	8005081e 	bne	r16,zero,1002744 <___vfprintf_internal_r+0x2290>
 1001324:	883d6126 	beq	r17,zero,10008ac <__alt_mem_epcs+0xfefff8ac>
 1001328:	00c00044 	movi	r3,1
 100132c:	d8c02915 	stw	r3,164(sp)
 1001330:	dc401405 	stb	r17,80(sp)
 1001334:	d8002785 	stb	zero,158(sp)
 1001338:	003fe906 	br	10012e0 <__alt_mem_epcs+0xff0002e0>
 100133c:	01404074 	movhi	r5,257
 1001340:	29459b04 	addi	r5,r5,5740
 1001344:	d9403915 	stw	r5,228(sp)
 1001348:	d8c02e15 	stw	r3,184(sp)
 100134c:	1025883a 	mov	r18,r2
 1001350:	04401e04 	movi	r17,120
 1001354:	9d84b03a 	or	r2,r19,r22
 1001358:	1000fc1e 	bne	r2,zero,100174c <___vfprintf_internal_r+0x1298>
 100135c:	0039883a 	mov	fp,zero
 1001360:	00800084 	movi	r2,2
 1001364:	10803fcc 	andi	r2,r2,255
 1001368:	00c00044 	movi	r3,1
 100136c:	10c20f26 	beq	r2,r3,1001bac <___vfprintf_internal_r+0x16f8>
 1001370:	00c00084 	movi	r3,2
 1001374:	10fd3326 	beq	r2,r3,1000844 <__alt_mem_epcs+0xfefff844>
 1001378:	003e0b06 	br	1000ba8 <__alt_mem_epcs+0xfefffba8>
 100137c:	d8c02017 	ldw	r3,128(sp)
 1001380:	003e7106 	br	1000d48 <__alt_mem_epcs+0xfefffd48>
 1001384:	00801944 	movi	r2,101
 1001388:	14407e0e 	bge	r2,r17,1001584 <___vfprintf_internal_r+0x10d0>
 100138c:	d9003617 	ldw	r4,216(sp)
 1001390:	d9403817 	ldw	r5,224(sp)
 1001394:	000d883a 	mov	r6,zero
 1001398:	000f883a 	mov	r7,zero
 100139c:	d8c03c15 	stw	r3,240(sp)
 10013a0:	da003d15 	stw	r8,244(sp)
 10013a4:	100bbf40 	call	100bbf4 <__eqdf2>
 10013a8:	d8c03c17 	ldw	r3,240(sp)
 10013ac:	da003d17 	ldw	r8,244(sp)
 10013b0:	1000f71e 	bne	r2,zero,1001790 <___vfprintf_internal_r+0x12dc>
 10013b4:	d8801f17 	ldw	r2,124(sp)
 10013b8:	01004074 	movhi	r4,257
 10013bc:	2105a204 	addi	r4,r4,5768
 10013c0:	18c00044 	addi	r3,r3,1
 10013c4:	10800044 	addi	r2,r2,1
 10013c8:	41000015 	stw	r4,0(r8)
 10013cc:	01000044 	movi	r4,1
 10013d0:	41000115 	stw	r4,4(r8)
 10013d4:	d8c02015 	stw	r3,128(sp)
 10013d8:	d8801f15 	stw	r2,124(sp)
 10013dc:	010001c4 	movi	r4,7
 10013e0:	2082b816 	blt	r4,r2,1001ec4 <___vfprintf_internal_r+0x1a10>
 10013e4:	42000204 	addi	r8,r8,8
 10013e8:	d8802617 	ldw	r2,152(sp)
 10013ec:	d9403317 	ldw	r5,204(sp)
 10013f0:	11400216 	blt	r2,r5,10013fc <___vfprintf_internal_r+0xf48>
 10013f4:	9080004c 	andi	r2,r18,1
 10013f8:	103eb326 	beq	r2,zero,1000ec8 <__alt_mem_epcs+0xfefffec8>
 10013fc:	d8803717 	ldw	r2,220(sp)
 1001400:	d9003417 	ldw	r4,208(sp)
 1001404:	d9403717 	ldw	r5,220(sp)
 1001408:	1887883a 	add	r3,r3,r2
 100140c:	d8801f17 	ldw	r2,124(sp)
 1001410:	41000015 	stw	r4,0(r8)
 1001414:	41400115 	stw	r5,4(r8)
 1001418:	10800044 	addi	r2,r2,1
 100141c:	d8c02015 	stw	r3,128(sp)
 1001420:	d8801f15 	stw	r2,124(sp)
 1001424:	010001c4 	movi	r4,7
 1001428:	20832916 	blt	r4,r2,10020d0 <___vfprintf_internal_r+0x1c1c>
 100142c:	42000204 	addi	r8,r8,8
 1001430:	d8803317 	ldw	r2,204(sp)
 1001434:	143fffc4 	addi	r16,r2,-1
 1001438:	043ea30e 	bge	zero,r16,1000ec8 <__alt_mem_epcs+0xfefffec8>
 100143c:	04400404 	movi	r17,16
 1001440:	d8801f17 	ldw	r2,124(sp)
 1001444:	8c00880e 	bge	r17,r16,1001668 <___vfprintf_internal_r+0x11b4>
 1001448:	01404074 	movhi	r5,257
 100144c:	2945a284 	addi	r5,r5,5770
 1001450:	d9402c15 	stw	r5,176(sp)
 1001454:	058001c4 	movi	r22,7
 1001458:	dcc02d17 	ldw	r19,180(sp)
 100145c:	00000306 	br	100146c <___vfprintf_internal_r+0xfb8>
 1001460:	42000204 	addi	r8,r8,8
 1001464:	843ffc04 	addi	r16,r16,-16
 1001468:	8c00820e 	bge	r17,r16,1001674 <___vfprintf_internal_r+0x11c0>
 100146c:	18c00404 	addi	r3,r3,16
 1001470:	10800044 	addi	r2,r2,1
 1001474:	45000015 	stw	r20,0(r8)
 1001478:	44400115 	stw	r17,4(r8)
 100147c:	d8c02015 	stw	r3,128(sp)
 1001480:	d8801f15 	stw	r2,124(sp)
 1001484:	b0bff60e 	bge	r22,r2,1001460 <__alt_mem_epcs+0xff000460>
 1001488:	d9801e04 	addi	r6,sp,120
 100148c:	b80b883a 	mov	r5,r23
 1001490:	9809883a 	mov	r4,r19
 1001494:	1007c940 	call	1007c94 <__sprint_r>
 1001498:	103d0a1e 	bne	r2,zero,10008c4 <__alt_mem_epcs+0xfefff8c4>
 100149c:	d8c02017 	ldw	r3,128(sp)
 10014a0:	d8801f17 	ldw	r2,124(sp)
 10014a4:	da000404 	addi	r8,sp,16
 10014a8:	003fee06 	br	1001464 <__alt_mem_epcs+0xff000464>
 10014ac:	d9403117 	ldw	r5,196(sp)
 10014b0:	d8802917 	ldw	r2,164(sp)
 10014b4:	28adc83a 	sub	r22,r5,r2
 10014b8:	05be410e 	bge	zero,r22,1000dc0 <__alt_mem_epcs+0xfefffdc0>
 10014bc:	07000404 	movi	fp,16
 10014c0:	d8801f17 	ldw	r2,124(sp)
 10014c4:	e5838f0e 	bge	fp,r22,1002304 <___vfprintf_internal_r+0x1e50>
 10014c8:	01404074 	movhi	r5,257
 10014cc:	2945a284 	addi	r5,r5,5770
 10014d0:	dc403015 	stw	r17,192(sp)
 10014d4:	d9402c15 	stw	r5,176(sp)
 10014d8:	b023883a 	mov	r17,r22
 10014dc:	04c001c4 	movi	r19,7
 10014e0:	a82d883a 	mov	r22,r21
 10014e4:	902b883a 	mov	r21,r18
 10014e8:	8025883a 	mov	r18,r16
 10014ec:	dc002d17 	ldw	r16,180(sp)
 10014f0:	00000306 	br	1001500 <___vfprintf_internal_r+0x104c>
 10014f4:	8c7ffc04 	addi	r17,r17,-16
 10014f8:	42000204 	addi	r8,r8,8
 10014fc:	e440110e 	bge	fp,r17,1001544 <___vfprintf_internal_r+0x1090>
 1001500:	18c00404 	addi	r3,r3,16
 1001504:	10800044 	addi	r2,r2,1
 1001508:	45000015 	stw	r20,0(r8)
 100150c:	47000115 	stw	fp,4(r8)
 1001510:	d8c02015 	stw	r3,128(sp)
 1001514:	d8801f15 	stw	r2,124(sp)
 1001518:	98bff60e 	bge	r19,r2,10014f4 <__alt_mem_epcs+0xff0004f4>
 100151c:	d9801e04 	addi	r6,sp,120
 1001520:	b80b883a 	mov	r5,r23
 1001524:	8009883a 	mov	r4,r16
 1001528:	1007c940 	call	1007c94 <__sprint_r>
 100152c:	103ce51e 	bne	r2,zero,10008c4 <__alt_mem_epcs+0xfefff8c4>
 1001530:	8c7ffc04 	addi	r17,r17,-16
 1001534:	d8c02017 	ldw	r3,128(sp)
 1001538:	d8801f17 	ldw	r2,124(sp)
 100153c:	da000404 	addi	r8,sp,16
 1001540:	e47fef16 	blt	fp,r17,1001500 <__alt_mem_epcs+0xff000500>
 1001544:	9021883a 	mov	r16,r18
 1001548:	a825883a 	mov	r18,r21
 100154c:	b02b883a 	mov	r21,r22
 1001550:	882d883a 	mov	r22,r17
 1001554:	dc403017 	ldw	r17,192(sp)
 1001558:	d9002c17 	ldw	r4,176(sp)
 100155c:	1d87883a 	add	r3,r3,r22
 1001560:	10800044 	addi	r2,r2,1
 1001564:	41000015 	stw	r4,0(r8)
 1001568:	45800115 	stw	r22,4(r8)
 100156c:	d8c02015 	stw	r3,128(sp)
 1001570:	d8801f15 	stw	r2,124(sp)
 1001574:	010001c4 	movi	r4,7
 1001578:	20818e16 	blt	r4,r2,1001bb4 <___vfprintf_internal_r+0x1700>
 100157c:	42000204 	addi	r8,r8,8
 1001580:	003e0f06 	br	1000dc0 <__alt_mem_epcs+0xfefffdc0>
 1001584:	d9403317 	ldw	r5,204(sp)
 1001588:	00800044 	movi	r2,1
 100158c:	18c00044 	addi	r3,r3,1
 1001590:	1141530e 	bge	r2,r5,1001ae0 <___vfprintf_internal_r+0x162c>
 1001594:	dc401f17 	ldw	r17,124(sp)
 1001598:	00800044 	movi	r2,1
 100159c:	40800115 	stw	r2,4(r8)
 10015a0:	8c400044 	addi	r17,r17,1
 10015a4:	44000015 	stw	r16,0(r8)
 10015a8:	d8c02015 	stw	r3,128(sp)
 10015ac:	dc401f15 	stw	r17,124(sp)
 10015b0:	008001c4 	movi	r2,7
 10015b4:	14416b16 	blt	r2,r17,1001b64 <___vfprintf_internal_r+0x16b0>
 10015b8:	42000204 	addi	r8,r8,8
 10015bc:	d8803717 	ldw	r2,220(sp)
 10015c0:	d9003417 	ldw	r4,208(sp)
 10015c4:	8c400044 	addi	r17,r17,1
 10015c8:	10c7883a 	add	r3,r2,r3
 10015cc:	40800115 	stw	r2,4(r8)
 10015d0:	41000015 	stw	r4,0(r8)
 10015d4:	d8c02015 	stw	r3,128(sp)
 10015d8:	dc401f15 	stw	r17,124(sp)
 10015dc:	008001c4 	movi	r2,7
 10015e0:	14416916 	blt	r2,r17,1001b88 <___vfprintf_internal_r+0x16d4>
 10015e4:	45800204 	addi	r22,r8,8
 10015e8:	d9003617 	ldw	r4,216(sp)
 10015ec:	d9403817 	ldw	r5,224(sp)
 10015f0:	000d883a 	mov	r6,zero
 10015f4:	000f883a 	mov	r7,zero
 10015f8:	d8c03c15 	stw	r3,240(sp)
 10015fc:	100bbf40 	call	100bbf4 <__eqdf2>
 1001600:	d8c03c17 	ldw	r3,240(sp)
 1001604:	1000bc26 	beq	r2,zero,10018f8 <___vfprintf_internal_r+0x1444>
 1001608:	d9403317 	ldw	r5,204(sp)
 100160c:	84000044 	addi	r16,r16,1
 1001610:	8c400044 	addi	r17,r17,1
 1001614:	28bfffc4 	addi	r2,r5,-1
 1001618:	1887883a 	add	r3,r3,r2
 100161c:	b0800115 	stw	r2,4(r22)
 1001620:	b4000015 	stw	r16,0(r22)
 1001624:	d8c02015 	stw	r3,128(sp)
 1001628:	dc401f15 	stw	r17,124(sp)
 100162c:	008001c4 	movi	r2,7
 1001630:	14414316 	blt	r2,r17,1001b40 <___vfprintf_internal_r+0x168c>
 1001634:	b5800204 	addi	r22,r22,8
 1001638:	d9003a17 	ldw	r4,232(sp)
 100163c:	df0022c4 	addi	fp,sp,139
 1001640:	8c400044 	addi	r17,r17,1
 1001644:	20c7883a 	add	r3,r4,r3
 1001648:	b7000015 	stw	fp,0(r22)
 100164c:	b1000115 	stw	r4,4(r22)
 1001650:	d8c02015 	stw	r3,128(sp)
 1001654:	dc401f15 	stw	r17,124(sp)
 1001658:	008001c4 	movi	r2,7
 100165c:	14400e16 	blt	r2,r17,1001698 <___vfprintf_internal_r+0x11e4>
 1001660:	b2000204 	addi	r8,r22,8
 1001664:	003e1806 	br	1000ec8 <__alt_mem_epcs+0xfefffec8>
 1001668:	01004074 	movhi	r4,257
 100166c:	2105a284 	addi	r4,r4,5770
 1001670:	d9002c15 	stw	r4,176(sp)
 1001674:	d9002c17 	ldw	r4,176(sp)
 1001678:	1c07883a 	add	r3,r3,r16
 100167c:	44000115 	stw	r16,4(r8)
 1001680:	41000015 	stw	r4,0(r8)
 1001684:	10800044 	addi	r2,r2,1
 1001688:	d8c02015 	stw	r3,128(sp)
 100168c:	d8801f15 	stw	r2,124(sp)
 1001690:	010001c4 	movi	r4,7
 1001694:	20be0b0e 	bge	r4,r2,1000ec4 <__alt_mem_epcs+0xfefffec4>
 1001698:	d9002d17 	ldw	r4,180(sp)
 100169c:	d9801e04 	addi	r6,sp,120
 10016a0:	b80b883a 	mov	r5,r23
 10016a4:	1007c940 	call	1007c94 <__sprint_r>
 10016a8:	103c861e 	bne	r2,zero,10008c4 <__alt_mem_epcs+0xfefff8c4>
 10016ac:	d8c02017 	ldw	r3,128(sp)
 10016b0:	da000404 	addi	r8,sp,16
 10016b4:	003e0406 	br	1000ec8 <__alt_mem_epcs+0xfefffec8>
 10016b8:	d9002d17 	ldw	r4,180(sp)
 10016bc:	d9801e04 	addi	r6,sp,120
 10016c0:	b80b883a 	mov	r5,r23
 10016c4:	1007c940 	call	1007c94 <__sprint_r>
 10016c8:	103e3b26 	beq	r2,zero,1000fb8 <__alt_mem_epcs+0xfeffffb8>
 10016cc:	003c7d06 	br	10008c4 <__alt_mem_epcs+0xfefff8c4>
 10016d0:	d9002d17 	ldw	r4,180(sp)
 10016d4:	d9801e04 	addi	r6,sp,120
 10016d8:	b80b883a 	mov	r5,r23
 10016dc:	1007c940 	call	1007c94 <__sprint_r>
 10016e0:	103c781e 	bne	r2,zero,10008c4 <__alt_mem_epcs+0xfefff8c4>
 10016e4:	d8c02017 	ldw	r3,128(sp)
 10016e8:	da000404 	addi	r8,sp,16
 10016ec:	003de906 	br	1000e94 <__alt_mem_epcs+0xfefffe94>
 10016f0:	d9002d17 	ldw	r4,180(sp)
 10016f4:	d9801e04 	addi	r6,sp,120
 10016f8:	b80b883a 	mov	r5,r23
 10016fc:	1007c940 	call	1007c94 <__sprint_r>
 1001700:	103c701e 	bne	r2,zero,10008c4 <__alt_mem_epcs+0xfefff8c4>
 1001704:	d8c02017 	ldw	r3,128(sp)
 1001708:	da000404 	addi	r8,sp,16
 100170c:	003d9b06 	br	1000d7c <__alt_mem_epcs+0xfefffd7c>
 1001710:	d9002d17 	ldw	r4,180(sp)
 1001714:	d9801e04 	addi	r6,sp,120
 1001718:	b80b883a 	mov	r5,r23
 100171c:	1007c940 	call	1007c94 <__sprint_r>
 1001720:	103c681e 	bne	r2,zero,10008c4 <__alt_mem_epcs+0xfefff8c4>
 1001724:	d8c02017 	ldw	r3,128(sp)
 1001728:	da000404 	addi	r8,sp,16
 100172c:	003da106 	br	1000db4 <__alt_mem_epcs+0xfefffdb4>
 1001730:	d9402a17 	ldw	r5,168(sp)
 1001734:	d8002785 	stb	zero,158(sp)
 1001738:	283f0616 	blt	r5,zero,1001354 <__alt_mem_epcs+0xff000354>
 100173c:	00ffdfc4 	movi	r3,-129
 1001740:	9d84b03a 	or	r2,r19,r22
 1001744:	90e4703a 	and	r18,r18,r3
 1001748:	103c3b26 	beq	r2,zero,1000838 <__alt_mem_epcs+0xfefff838>
 100174c:	0039883a 	mov	fp,zero
 1001750:	003e5806 	br	10010b4 <__alt_mem_epcs+0xff0000b4>
 1001754:	9080040c 	andi	r2,r18,16
 1001758:	1001b326 	beq	r2,zero,1001e28 <___vfprintf_internal_r+0x1974>
 100175c:	d8c02e17 	ldw	r3,184(sp)
 1001760:	d9002a17 	ldw	r4,168(sp)
 1001764:	d8002785 	stb	zero,158(sp)
 1001768:	18800104 	addi	r2,r3,4
 100176c:	1cc00017 	ldw	r19,0(r3)
 1001770:	002d883a 	mov	r22,zero
 1001774:	2001b516 	blt	r4,zero,1001e4c <___vfprintf_internal_r+0x1998>
 1001778:	00ffdfc4 	movi	r3,-129
 100177c:	d8802e15 	stw	r2,184(sp)
 1001780:	90e4703a 	and	r18,r18,r3
 1001784:	983d0526 	beq	r19,zero,1000b9c <__alt_mem_epcs+0xfefffb9c>
 1001788:	0039883a 	mov	fp,zero
 100178c:	003d0806 	br	1000bb0 <__alt_mem_epcs+0xfefffbb0>
 1001790:	dc402617 	ldw	r17,152(sp)
 1001794:	0441d30e 	bge	zero,r17,1001ee4 <___vfprintf_internal_r+0x1a30>
 1001798:	dc403217 	ldw	r17,200(sp)
 100179c:	d8803317 	ldw	r2,204(sp)
 10017a0:	1440010e 	bge	r2,r17,10017a8 <___vfprintf_internal_r+0x12f4>
 10017a4:	1023883a 	mov	r17,r2
 10017a8:	04400a0e 	bge	zero,r17,10017d4 <___vfprintf_internal_r+0x1320>
 10017ac:	d8801f17 	ldw	r2,124(sp)
 10017b0:	1c47883a 	add	r3,r3,r17
 10017b4:	44000015 	stw	r16,0(r8)
 10017b8:	10800044 	addi	r2,r2,1
 10017bc:	44400115 	stw	r17,4(r8)
 10017c0:	d8c02015 	stw	r3,128(sp)
 10017c4:	d8801f15 	stw	r2,124(sp)
 10017c8:	010001c4 	movi	r4,7
 10017cc:	20826516 	blt	r4,r2,1002164 <___vfprintf_internal_r+0x1cb0>
 10017d0:	42000204 	addi	r8,r8,8
 10017d4:	88026116 	blt	r17,zero,100215c <___vfprintf_internal_r+0x1ca8>
 10017d8:	d9003217 	ldw	r4,200(sp)
 10017dc:	2463c83a 	sub	r17,r4,r17
 10017e0:	04407b0e 	bge	zero,r17,10019d0 <___vfprintf_internal_r+0x151c>
 10017e4:	05800404 	movi	r22,16
 10017e8:	d8801f17 	ldw	r2,124(sp)
 10017ec:	b4419d0e 	bge	r22,r17,1001e64 <___vfprintf_internal_r+0x19b0>
 10017f0:	01004074 	movhi	r4,257
 10017f4:	2105a284 	addi	r4,r4,5770
 10017f8:	d9002c15 	stw	r4,176(sp)
 10017fc:	070001c4 	movi	fp,7
 1001800:	dcc02d17 	ldw	r19,180(sp)
 1001804:	00000306 	br	1001814 <___vfprintf_internal_r+0x1360>
 1001808:	42000204 	addi	r8,r8,8
 100180c:	8c7ffc04 	addi	r17,r17,-16
 1001810:	b441970e 	bge	r22,r17,1001e70 <___vfprintf_internal_r+0x19bc>
 1001814:	18c00404 	addi	r3,r3,16
 1001818:	10800044 	addi	r2,r2,1
 100181c:	45000015 	stw	r20,0(r8)
 1001820:	45800115 	stw	r22,4(r8)
 1001824:	d8c02015 	stw	r3,128(sp)
 1001828:	d8801f15 	stw	r2,124(sp)
 100182c:	e0bff60e 	bge	fp,r2,1001808 <__alt_mem_epcs+0xff000808>
 1001830:	d9801e04 	addi	r6,sp,120
 1001834:	b80b883a 	mov	r5,r23
 1001838:	9809883a 	mov	r4,r19
 100183c:	1007c940 	call	1007c94 <__sprint_r>
 1001840:	103c201e 	bne	r2,zero,10008c4 <__alt_mem_epcs+0xfefff8c4>
 1001844:	d8c02017 	ldw	r3,128(sp)
 1001848:	d8801f17 	ldw	r2,124(sp)
 100184c:	da000404 	addi	r8,sp,16
 1001850:	003fee06 	br	100180c <__alt_mem_epcs+0xff00080c>
 1001854:	d9002d17 	ldw	r4,180(sp)
 1001858:	d9801e04 	addi	r6,sp,120
 100185c:	b80b883a 	mov	r5,r23
 1001860:	1007c940 	call	1007c94 <__sprint_r>
 1001864:	103c171e 	bne	r2,zero,10008c4 <__alt_mem_epcs+0xfefff8c4>
 1001868:	d8c02017 	ldw	r3,128(sp)
 100186c:	df002787 	ldb	fp,158(sp)
 1001870:	da000404 	addi	r8,sp,16
 1001874:	003d3406 	br	1000d48 <__alt_mem_epcs+0xfefffd48>
 1001878:	9080040c 	andi	r2,r18,16
 100187c:	10016126 	beq	r2,zero,1001e04 <___vfprintf_internal_r+0x1950>
 1001880:	d9402e17 	ldw	r5,184(sp)
 1001884:	2cc00017 	ldw	r19,0(r5)
 1001888:	29400104 	addi	r5,r5,4
 100188c:	d9402e15 	stw	r5,184(sp)
 1001890:	982dd7fa 	srai	r22,r19,31
 1001894:	b005883a 	mov	r2,r22
 1001898:	003c5a06 	br	1000a04 <__alt_mem_epcs+0xfefffa04>
 100189c:	9080040c 	andi	r2,r18,16
 10018a0:	10003526 	beq	r2,zero,1001978 <___vfprintf_internal_r+0x14c4>
 10018a4:	d8c02e17 	ldw	r3,184(sp)
 10018a8:	d9002a17 	ldw	r4,168(sp)
 10018ac:	d8002785 	stb	zero,158(sp)
 10018b0:	18800104 	addi	r2,r3,4
 10018b4:	1cc00017 	ldw	r19,0(r3)
 10018b8:	002d883a 	mov	r22,zero
 10018bc:	20003716 	blt	r4,zero,100199c <___vfprintf_internal_r+0x14e8>
 10018c0:	00ffdfc4 	movi	r3,-129
 10018c4:	d8802e15 	stw	r2,184(sp)
 10018c8:	90e4703a 	and	r18,r18,r3
 10018cc:	0039883a 	mov	fp,zero
 10018d0:	983dd426 	beq	r19,zero,1001024 <__alt_mem_epcs+0xff000024>
 10018d4:	00800244 	movi	r2,9
 10018d8:	14fc5336 	bltu	r2,r19,1000a28 <__alt_mem_epcs+0xfefffa28>
 10018dc:	d8c02817 	ldw	r3,160(sp)
 10018e0:	dc001dc4 	addi	r16,sp,119
 10018e4:	9cc00c04 	addi	r19,r19,48
 10018e8:	1c07c83a 	sub	r3,r3,r16
 10018ec:	dcc01dc5 	stb	r19,119(sp)
 10018f0:	d8c02b15 	stw	r3,172(sp)
 10018f4:	003cc606 	br	1000c10 <__alt_mem_epcs+0xfefffc10>
 10018f8:	d8803317 	ldw	r2,204(sp)
 10018fc:	143fffc4 	addi	r16,r2,-1
 1001900:	043f4d0e 	bge	zero,r16,1001638 <__alt_mem_epcs+0xff000638>
 1001904:	07000404 	movi	fp,16
 1001908:	e400810e 	bge	fp,r16,1001b10 <___vfprintf_internal_r+0x165c>
 100190c:	01404074 	movhi	r5,257
 1001910:	2945a284 	addi	r5,r5,5770
 1001914:	d9402c15 	stw	r5,176(sp)
 1001918:	01c001c4 	movi	r7,7
 100191c:	dcc02d17 	ldw	r19,180(sp)
 1001920:	00000306 	br	1001930 <___vfprintf_internal_r+0x147c>
 1001924:	b5800204 	addi	r22,r22,8
 1001928:	843ffc04 	addi	r16,r16,-16
 100192c:	e4007b0e 	bge	fp,r16,1001b1c <___vfprintf_internal_r+0x1668>
 1001930:	18c00404 	addi	r3,r3,16
 1001934:	8c400044 	addi	r17,r17,1
 1001938:	b5000015 	stw	r20,0(r22)
 100193c:	b7000115 	stw	fp,4(r22)
 1001940:	d8c02015 	stw	r3,128(sp)
 1001944:	dc401f15 	stw	r17,124(sp)
 1001948:	3c7ff60e 	bge	r7,r17,1001924 <__alt_mem_epcs+0xff000924>
 100194c:	d9801e04 	addi	r6,sp,120
 1001950:	b80b883a 	mov	r5,r23
 1001954:	9809883a 	mov	r4,r19
 1001958:	d9c03c15 	stw	r7,240(sp)
 100195c:	1007c940 	call	1007c94 <__sprint_r>
 1001960:	d9c03c17 	ldw	r7,240(sp)
 1001964:	103bd71e 	bne	r2,zero,10008c4 <__alt_mem_epcs+0xfefff8c4>
 1001968:	d8c02017 	ldw	r3,128(sp)
 100196c:	dc401f17 	ldw	r17,124(sp)
 1001970:	dd800404 	addi	r22,sp,16
 1001974:	003fec06 	br	1001928 <__alt_mem_epcs+0xff000928>
 1001978:	9080100c 	andi	r2,r18,64
 100197c:	d8002785 	stb	zero,158(sp)
 1001980:	10010e26 	beq	r2,zero,1001dbc <___vfprintf_internal_r+0x1908>
 1001984:	d9402e17 	ldw	r5,184(sp)
 1001988:	d8c02a17 	ldw	r3,168(sp)
 100198c:	002d883a 	mov	r22,zero
 1001990:	28800104 	addi	r2,r5,4
 1001994:	2cc0000b 	ldhu	r19,0(r5)
 1001998:	183fc90e 	bge	r3,zero,10018c0 <__alt_mem_epcs+0xff0008c0>
 100199c:	d8802e15 	stw	r2,184(sp)
 10019a0:	0039883a 	mov	fp,zero
 10019a4:	9d84b03a 	or	r2,r19,r22
 10019a8:	103c1e1e 	bne	r2,zero,1000a24 <__alt_mem_epcs+0xfefffa24>
 10019ac:	00800044 	movi	r2,1
 10019b0:	003e6c06 	br	1001364 <__alt_mem_epcs+0xff000364>
 10019b4:	d9002d17 	ldw	r4,180(sp)
 10019b8:	d9801e04 	addi	r6,sp,120
 10019bc:	b80b883a 	mov	r5,r23
 10019c0:	1007c940 	call	1007c94 <__sprint_r>
 10019c4:	103bbf1e 	bne	r2,zero,10008c4 <__alt_mem_epcs+0xfefff8c4>
 10019c8:	d8c02017 	ldw	r3,128(sp)
 10019cc:	da000404 	addi	r8,sp,16
 10019d0:	d9003217 	ldw	r4,200(sp)
 10019d4:	d8802617 	ldw	r2,152(sp)
 10019d8:	d9403317 	ldw	r5,204(sp)
 10019dc:	8123883a 	add	r17,r16,r4
 10019e0:	11400216 	blt	r2,r5,10019ec <___vfprintf_internal_r+0x1538>
 10019e4:	9100004c 	andi	r4,r18,1
 10019e8:	20000d26 	beq	r4,zero,1001a20 <___vfprintf_internal_r+0x156c>
 10019ec:	d9003717 	ldw	r4,220(sp)
 10019f0:	d9403417 	ldw	r5,208(sp)
 10019f4:	1907883a 	add	r3,r3,r4
 10019f8:	d9001f17 	ldw	r4,124(sp)
 10019fc:	41400015 	stw	r5,0(r8)
 1001a00:	d9403717 	ldw	r5,220(sp)
 1001a04:	21000044 	addi	r4,r4,1
 1001a08:	d8c02015 	stw	r3,128(sp)
 1001a0c:	41400115 	stw	r5,4(r8)
 1001a10:	d9001f15 	stw	r4,124(sp)
 1001a14:	014001c4 	movi	r5,7
 1001a18:	2901e816 	blt	r5,r4,10021bc <___vfprintf_internal_r+0x1d08>
 1001a1c:	42000204 	addi	r8,r8,8
 1001a20:	d9003317 	ldw	r4,204(sp)
 1001a24:	8121883a 	add	r16,r16,r4
 1001a28:	2085c83a 	sub	r2,r4,r2
 1001a2c:	8461c83a 	sub	r16,r16,r17
 1001a30:	1400010e 	bge	r2,r16,1001a38 <___vfprintf_internal_r+0x1584>
 1001a34:	1021883a 	mov	r16,r2
 1001a38:	04000a0e 	bge	zero,r16,1001a64 <___vfprintf_internal_r+0x15b0>
 1001a3c:	d9001f17 	ldw	r4,124(sp)
 1001a40:	1c07883a 	add	r3,r3,r16
 1001a44:	44400015 	stw	r17,0(r8)
 1001a48:	21000044 	addi	r4,r4,1
 1001a4c:	44000115 	stw	r16,4(r8)
 1001a50:	d8c02015 	stw	r3,128(sp)
 1001a54:	d9001f15 	stw	r4,124(sp)
 1001a58:	014001c4 	movi	r5,7
 1001a5c:	2901fb16 	blt	r5,r4,100224c <___vfprintf_internal_r+0x1d98>
 1001a60:	42000204 	addi	r8,r8,8
 1001a64:	8001f716 	blt	r16,zero,1002244 <___vfprintf_internal_r+0x1d90>
 1001a68:	1421c83a 	sub	r16,r2,r16
 1001a6c:	043d160e 	bge	zero,r16,1000ec8 <__alt_mem_epcs+0xfefffec8>
 1001a70:	04400404 	movi	r17,16
 1001a74:	d8801f17 	ldw	r2,124(sp)
 1001a78:	8c3efb0e 	bge	r17,r16,1001668 <__alt_mem_epcs+0xff000668>
 1001a7c:	01404074 	movhi	r5,257
 1001a80:	2945a284 	addi	r5,r5,5770
 1001a84:	d9402c15 	stw	r5,176(sp)
 1001a88:	058001c4 	movi	r22,7
 1001a8c:	dcc02d17 	ldw	r19,180(sp)
 1001a90:	00000306 	br	1001aa0 <___vfprintf_internal_r+0x15ec>
 1001a94:	42000204 	addi	r8,r8,8
 1001a98:	843ffc04 	addi	r16,r16,-16
 1001a9c:	8c3ef50e 	bge	r17,r16,1001674 <__alt_mem_epcs+0xff000674>
 1001aa0:	18c00404 	addi	r3,r3,16
 1001aa4:	10800044 	addi	r2,r2,1
 1001aa8:	45000015 	stw	r20,0(r8)
 1001aac:	44400115 	stw	r17,4(r8)
 1001ab0:	d8c02015 	stw	r3,128(sp)
 1001ab4:	d8801f15 	stw	r2,124(sp)
 1001ab8:	b0bff60e 	bge	r22,r2,1001a94 <__alt_mem_epcs+0xff000a94>
 1001abc:	d9801e04 	addi	r6,sp,120
 1001ac0:	b80b883a 	mov	r5,r23
 1001ac4:	9809883a 	mov	r4,r19
 1001ac8:	1007c940 	call	1007c94 <__sprint_r>
 1001acc:	103b7d1e 	bne	r2,zero,10008c4 <__alt_mem_epcs+0xfefff8c4>
 1001ad0:	d8c02017 	ldw	r3,128(sp)
 1001ad4:	d8801f17 	ldw	r2,124(sp)
 1001ad8:	da000404 	addi	r8,sp,16
 1001adc:	003fee06 	br	1001a98 <__alt_mem_epcs+0xff000a98>
 1001ae0:	9088703a 	and	r4,r18,r2
 1001ae4:	203eab1e 	bne	r4,zero,1001594 <__alt_mem_epcs+0xff000594>
 1001ae8:	dc401f17 	ldw	r17,124(sp)
 1001aec:	40800115 	stw	r2,4(r8)
 1001af0:	44000015 	stw	r16,0(r8)
 1001af4:	8c400044 	addi	r17,r17,1
 1001af8:	d8c02015 	stw	r3,128(sp)
 1001afc:	dc401f15 	stw	r17,124(sp)
 1001b00:	008001c4 	movi	r2,7
 1001b04:	14400e16 	blt	r2,r17,1001b40 <___vfprintf_internal_r+0x168c>
 1001b08:	45800204 	addi	r22,r8,8
 1001b0c:	003eca06 	br	1001638 <__alt_mem_epcs+0xff000638>
 1001b10:	01004074 	movhi	r4,257
 1001b14:	2105a284 	addi	r4,r4,5770
 1001b18:	d9002c15 	stw	r4,176(sp)
 1001b1c:	d8802c17 	ldw	r2,176(sp)
 1001b20:	1c07883a 	add	r3,r3,r16
 1001b24:	8c400044 	addi	r17,r17,1
 1001b28:	b0800015 	stw	r2,0(r22)
 1001b2c:	b4000115 	stw	r16,4(r22)
 1001b30:	d8c02015 	stw	r3,128(sp)
 1001b34:	dc401f15 	stw	r17,124(sp)
 1001b38:	008001c4 	movi	r2,7
 1001b3c:	147ebd0e 	bge	r2,r17,1001634 <__alt_mem_epcs+0xff000634>
 1001b40:	d9002d17 	ldw	r4,180(sp)
 1001b44:	d9801e04 	addi	r6,sp,120
 1001b48:	b80b883a 	mov	r5,r23
 1001b4c:	1007c940 	call	1007c94 <__sprint_r>
 1001b50:	103b5c1e 	bne	r2,zero,10008c4 <__alt_mem_epcs+0xfefff8c4>
 1001b54:	d8c02017 	ldw	r3,128(sp)
 1001b58:	dc401f17 	ldw	r17,124(sp)
 1001b5c:	dd800404 	addi	r22,sp,16
 1001b60:	003eb506 	br	1001638 <__alt_mem_epcs+0xff000638>
 1001b64:	d9002d17 	ldw	r4,180(sp)
 1001b68:	d9801e04 	addi	r6,sp,120
 1001b6c:	b80b883a 	mov	r5,r23
 1001b70:	1007c940 	call	1007c94 <__sprint_r>
 1001b74:	103b531e 	bne	r2,zero,10008c4 <__alt_mem_epcs+0xfefff8c4>
 1001b78:	d8c02017 	ldw	r3,128(sp)
 1001b7c:	dc401f17 	ldw	r17,124(sp)
 1001b80:	da000404 	addi	r8,sp,16
 1001b84:	003e8d06 	br	10015bc <__alt_mem_epcs+0xff0005bc>
 1001b88:	d9002d17 	ldw	r4,180(sp)
 1001b8c:	d9801e04 	addi	r6,sp,120
 1001b90:	b80b883a 	mov	r5,r23
 1001b94:	1007c940 	call	1007c94 <__sprint_r>
 1001b98:	103b4a1e 	bne	r2,zero,10008c4 <__alt_mem_epcs+0xfefff8c4>
 1001b9c:	d8c02017 	ldw	r3,128(sp)
 1001ba0:	dc401f17 	ldw	r17,124(sp)
 1001ba4:	dd800404 	addi	r22,sp,16
 1001ba8:	003e8f06 	br	10015e8 <__alt_mem_epcs+0xff0005e8>
 1001bac:	0027883a 	mov	r19,zero
 1001bb0:	003f4a06 	br	10018dc <__alt_mem_epcs+0xff0008dc>
 1001bb4:	d9002d17 	ldw	r4,180(sp)
 1001bb8:	d9801e04 	addi	r6,sp,120
 1001bbc:	b80b883a 	mov	r5,r23
 1001bc0:	1007c940 	call	1007c94 <__sprint_r>
 1001bc4:	103b3f1e 	bne	r2,zero,10008c4 <__alt_mem_epcs+0xfefff8c4>
 1001bc8:	d8c02017 	ldw	r3,128(sp)
 1001bcc:	da000404 	addi	r8,sp,16
 1001bd0:	003c7b06 	br	1000dc0 <__alt_mem_epcs+0xfefffdc0>
 1001bd4:	d9402a17 	ldw	r5,168(sp)
 1001bd8:	04e7c83a 	sub	r19,zero,r19
 1001bdc:	07000b44 	movi	fp,45
 1001be0:	9804c03a 	cmpne	r2,r19,zero
 1001be4:	05adc83a 	sub	r22,zero,r22
 1001be8:	df002785 	stb	fp,158(sp)
 1001bec:	b0adc83a 	sub	r22,r22,r2
 1001bf0:	28017b16 	blt	r5,zero,10021e0 <___vfprintf_internal_r+0x1d2c>
 1001bf4:	00bfdfc4 	movi	r2,-129
 1001bf8:	90a4703a 	and	r18,r18,r2
 1001bfc:	003b8906 	br	1000a24 <__alt_mem_epcs+0xfefffa24>
 1001c00:	d9003617 	ldw	r4,216(sp)
 1001c04:	d9403817 	ldw	r5,224(sp)
 1001c08:	da003d15 	stw	r8,244(sp)
 1001c0c:	10078b80 	call	10078b8 <__fpclassifyd>
 1001c10:	da003d17 	ldw	r8,244(sp)
 1001c14:	1000f026 	beq	r2,zero,1001fd8 <___vfprintf_internal_r+0x1b24>
 1001c18:	d9002a17 	ldw	r4,168(sp)
 1001c1c:	05bff7c4 	movi	r22,-33
 1001c20:	00bfffc4 	movi	r2,-1
 1001c24:	8dac703a 	and	r22,r17,r22
 1001c28:	20820026 	beq	r4,r2,100242c <___vfprintf_internal_r+0x1f78>
 1001c2c:	008011c4 	movi	r2,71
 1001c30:	b081f726 	beq	r22,r2,1002410 <___vfprintf_internal_r+0x1f5c>
 1001c34:	d9003817 	ldw	r4,224(sp)
 1001c38:	90c04014 	ori	r3,r18,256
 1001c3c:	d8c02c15 	stw	r3,176(sp)
 1001c40:	20021516 	blt	r4,zero,1002498 <___vfprintf_internal_r+0x1fe4>
 1001c44:	dcc03817 	ldw	r19,224(sp)
 1001c48:	d8002905 	stb	zero,164(sp)
 1001c4c:	00801984 	movi	r2,102
 1001c50:	8881f926 	beq	r17,r2,1002438 <___vfprintf_internal_r+0x1f84>
 1001c54:	00801184 	movi	r2,70
 1001c58:	88821c26 	beq	r17,r2,10024cc <___vfprintf_internal_r+0x2018>
 1001c5c:	00801144 	movi	r2,69
 1001c60:	b081ef26 	beq	r22,r2,1002420 <___vfprintf_internal_r+0x1f6c>
 1001c64:	d8c02a17 	ldw	r3,168(sp)
 1001c68:	d8802104 	addi	r2,sp,132
 1001c6c:	d8800315 	stw	r2,12(sp)
 1001c70:	d9403617 	ldw	r5,216(sp)
 1001c74:	d8802504 	addi	r2,sp,148
 1001c78:	d9002d17 	ldw	r4,180(sp)
 1001c7c:	d8800215 	stw	r2,8(sp)
 1001c80:	d8802604 	addi	r2,sp,152
 1001c84:	d8c00015 	stw	r3,0(sp)
 1001c88:	d8800115 	stw	r2,4(sp)
 1001c8c:	01c00084 	movi	r7,2
 1001c90:	980d883a 	mov	r6,r19
 1001c94:	d8c03c15 	stw	r3,240(sp)
 1001c98:	da003d15 	stw	r8,244(sp)
 1001c9c:	1002be40 	call	1002be4 <_dtoa_r>
 1001ca0:	1021883a 	mov	r16,r2
 1001ca4:	008019c4 	movi	r2,103
 1001ca8:	d8c03c17 	ldw	r3,240(sp)
 1001cac:	da003d17 	ldw	r8,244(sp)
 1001cb0:	88817126 	beq	r17,r2,1002278 <___vfprintf_internal_r+0x1dc4>
 1001cb4:	008011c4 	movi	r2,71
 1001cb8:	88829126 	beq	r17,r2,1002700 <___vfprintf_internal_r+0x224c>
 1001cbc:	80f9883a 	add	fp,r16,r3
 1001cc0:	d9003617 	ldw	r4,216(sp)
 1001cc4:	000d883a 	mov	r6,zero
 1001cc8:	000f883a 	mov	r7,zero
 1001ccc:	980b883a 	mov	r5,r19
 1001cd0:	da003d15 	stw	r8,244(sp)
 1001cd4:	100bbf40 	call	100bbf4 <__eqdf2>
 1001cd8:	da003d17 	ldw	r8,244(sp)
 1001cdc:	10018d26 	beq	r2,zero,1002314 <___vfprintf_internal_r+0x1e60>
 1001ce0:	d8802117 	ldw	r2,132(sp)
 1001ce4:	1700062e 	bgeu	r2,fp,1001d00 <___vfprintf_internal_r+0x184c>
 1001ce8:	01000c04 	movi	r4,48
 1001cec:	10c00044 	addi	r3,r2,1
 1001cf0:	d8c02115 	stw	r3,132(sp)
 1001cf4:	11000005 	stb	r4,0(r2)
 1001cf8:	d8802117 	ldw	r2,132(sp)
 1001cfc:	173ffb36 	bltu	r2,fp,1001cec <__alt_mem_epcs+0xff000cec>
 1001d00:	1405c83a 	sub	r2,r2,r16
 1001d04:	d8803315 	stw	r2,204(sp)
 1001d08:	008011c4 	movi	r2,71
 1001d0c:	b0817626 	beq	r22,r2,10022e8 <___vfprintf_internal_r+0x1e34>
 1001d10:	00801944 	movi	r2,101
 1001d14:	1442800e 	bge	r2,r17,1002718 <___vfprintf_internal_r+0x2264>
 1001d18:	d8c02617 	ldw	r3,152(sp)
 1001d1c:	00801984 	movi	r2,102
 1001d20:	d8c03215 	stw	r3,200(sp)
 1001d24:	8881fe26 	beq	r17,r2,1002520 <___vfprintf_internal_r+0x206c>
 1001d28:	d8c03217 	ldw	r3,200(sp)
 1001d2c:	d9003317 	ldw	r4,204(sp)
 1001d30:	1901dd16 	blt	r3,r4,10024a8 <___vfprintf_internal_r+0x1ff4>
 1001d34:	9480004c 	andi	r18,r18,1
 1001d38:	90022b1e 	bne	r18,zero,10025e8 <___vfprintf_internal_r+0x2134>
 1001d3c:	1805883a 	mov	r2,r3
 1001d40:	18028316 	blt	r3,zero,1002750 <___vfprintf_internal_r+0x229c>
 1001d44:	d8c03217 	ldw	r3,200(sp)
 1001d48:	044019c4 	movi	r17,103
 1001d4c:	d8c02b15 	stw	r3,172(sp)
 1001d50:	df002907 	ldb	fp,164(sp)
 1001d54:	e001531e 	bne	fp,zero,10022a4 <___vfprintf_internal_r+0x1df0>
 1001d58:	df002783 	ldbu	fp,158(sp)
 1001d5c:	d8802915 	stw	r2,164(sp)
 1001d60:	dc802c17 	ldw	r18,176(sp)
 1001d64:	d8002a15 	stw	zero,168(sp)
 1001d68:	003baf06 	br	1000c28 <__alt_mem_epcs+0xfefffc28>
 1001d6c:	d8c02e17 	ldw	r3,184(sp)
 1001d70:	d9002e17 	ldw	r4,184(sp)
 1001d74:	d9402e17 	ldw	r5,184(sp)
 1001d78:	18c00017 	ldw	r3,0(r3)
 1001d7c:	21000117 	ldw	r4,4(r4)
 1001d80:	29400204 	addi	r5,r5,8
 1001d84:	d8c03615 	stw	r3,216(sp)
 1001d88:	d9003815 	stw	r4,224(sp)
 1001d8c:	d9402e15 	stw	r5,184(sp)
 1001d90:	003b5006 	br	1000ad4 <__alt_mem_epcs+0xfefffad4>
 1001d94:	ac400007 	ldb	r17,0(r21)
 1001d98:	003a2806 	br	100063c <__alt_mem_epcs+0xfefff63c>
 1001d9c:	9080100c 	andi	r2,r18,64
 1001da0:	1000a826 	beq	r2,zero,1002044 <___vfprintf_internal_r+0x1b90>
 1001da4:	d8c02e17 	ldw	r3,184(sp)
 1001da8:	002d883a 	mov	r22,zero
 1001dac:	1cc0000b 	ldhu	r19,0(r3)
 1001db0:	18c00104 	addi	r3,r3,4
 1001db4:	d8c02e15 	stw	r3,184(sp)
 1001db8:	003caf06 	br	1001078 <__alt_mem_epcs+0xff000078>
 1001dbc:	d9002e17 	ldw	r4,184(sp)
 1001dc0:	d9402a17 	ldw	r5,168(sp)
 1001dc4:	002d883a 	mov	r22,zero
 1001dc8:	20800104 	addi	r2,r4,4
 1001dcc:	24c00017 	ldw	r19,0(r4)
 1001dd0:	283ebb0e 	bge	r5,zero,10018c0 <__alt_mem_epcs+0xff0008c0>
 1001dd4:	003ef106 	br	100199c <__alt_mem_epcs+0xff00099c>
 1001dd8:	9080040c 	andi	r2,r18,16
 1001ddc:	1000921e 	bne	r2,zero,1002028 <___vfprintf_internal_r+0x1b74>
 1001de0:	9480100c 	andi	r18,r18,64
 1001de4:	90013926 	beq	r18,zero,10022cc <___vfprintf_internal_r+0x1e18>
 1001de8:	d9402e17 	ldw	r5,184(sp)
 1001dec:	d8c02f17 	ldw	r3,188(sp)
 1001df0:	28800017 	ldw	r2,0(r5)
 1001df4:	29400104 	addi	r5,r5,4
 1001df8:	d9402e15 	stw	r5,184(sp)
 1001dfc:	10c0000d 	sth	r3,0(r2)
 1001e00:	0039e406 	br	1000594 <__alt_mem_epcs+0xfefff594>
 1001e04:	9080100c 	andi	r2,r18,64
 1001e08:	10008026 	beq	r2,zero,100200c <___vfprintf_internal_r+0x1b58>
 1001e0c:	d8802e17 	ldw	r2,184(sp)
 1001e10:	14c0000f 	ldh	r19,0(r2)
 1001e14:	10800104 	addi	r2,r2,4
 1001e18:	d8802e15 	stw	r2,184(sp)
 1001e1c:	982dd7fa 	srai	r22,r19,31
 1001e20:	b005883a 	mov	r2,r22
 1001e24:	003af706 	br	1000a04 <__alt_mem_epcs+0xfefffa04>
 1001e28:	9080100c 	andi	r2,r18,64
 1001e2c:	d8002785 	stb	zero,158(sp)
 1001e30:	10008a1e 	bne	r2,zero,100205c <___vfprintf_internal_r+0x1ba8>
 1001e34:	d9002e17 	ldw	r4,184(sp)
 1001e38:	d9402a17 	ldw	r5,168(sp)
 1001e3c:	002d883a 	mov	r22,zero
 1001e40:	20800104 	addi	r2,r4,4
 1001e44:	24c00017 	ldw	r19,0(r4)
 1001e48:	283e4b0e 	bge	r5,zero,1001778 <__alt_mem_epcs+0xff000778>
 1001e4c:	9d86b03a 	or	r3,r19,r22
 1001e50:	d8802e15 	stw	r2,184(sp)
 1001e54:	183e4c1e 	bne	r3,zero,1001788 <__alt_mem_epcs+0xff000788>
 1001e58:	0039883a 	mov	fp,zero
 1001e5c:	0005883a 	mov	r2,zero
 1001e60:	003d4006 	br	1001364 <__alt_mem_epcs+0xff000364>
 1001e64:	01404074 	movhi	r5,257
 1001e68:	2945a284 	addi	r5,r5,5770
 1001e6c:	d9402c15 	stw	r5,176(sp)
 1001e70:	d9402c17 	ldw	r5,176(sp)
 1001e74:	1c47883a 	add	r3,r3,r17
 1001e78:	10800044 	addi	r2,r2,1
 1001e7c:	41400015 	stw	r5,0(r8)
 1001e80:	44400115 	stw	r17,4(r8)
 1001e84:	d8c02015 	stw	r3,128(sp)
 1001e88:	d8801f15 	stw	r2,124(sp)
 1001e8c:	010001c4 	movi	r4,7
 1001e90:	20bec816 	blt	r4,r2,10019b4 <__alt_mem_epcs+0xff0009b4>
 1001e94:	42000204 	addi	r8,r8,8
 1001e98:	003ecd06 	br	10019d0 <__alt_mem_epcs+0xff0009d0>
 1001e9c:	d9002a17 	ldw	r4,168(sp)
 1001ea0:	d8002785 	stb	zero,158(sp)
 1001ea4:	203d2d16 	blt	r4,zero,100135c <__alt_mem_epcs+0xff00035c>
 1001ea8:	00bfdfc4 	movi	r2,-129
 1001eac:	90a4703a 	and	r18,r18,r2
 1001eb0:	003a6106 	br	1000838 <__alt_mem_epcs+0xfefff838>
 1001eb4:	01004074 	movhi	r4,257
 1001eb8:	2105a284 	addi	r4,r4,5770
 1001ebc:	d9002c15 	stw	r4,176(sp)
 1001ec0:	003bea06 	br	1000e6c <__alt_mem_epcs+0xfefffe6c>
 1001ec4:	d9002d17 	ldw	r4,180(sp)
 1001ec8:	d9801e04 	addi	r6,sp,120
 1001ecc:	b80b883a 	mov	r5,r23
 1001ed0:	1007c940 	call	1007c94 <__sprint_r>
 1001ed4:	103a7b1e 	bne	r2,zero,10008c4 <__alt_mem_epcs+0xfefff8c4>
 1001ed8:	d8c02017 	ldw	r3,128(sp)
 1001edc:	da000404 	addi	r8,sp,16
 1001ee0:	003d4106 	br	10013e8 <__alt_mem_epcs+0xff0003e8>
 1001ee4:	d8801f17 	ldw	r2,124(sp)
 1001ee8:	01404074 	movhi	r5,257
 1001eec:	01000044 	movi	r4,1
 1001ef0:	18c00044 	addi	r3,r3,1
 1001ef4:	10800044 	addi	r2,r2,1
 1001ef8:	2945a204 	addi	r5,r5,5768
 1001efc:	41000115 	stw	r4,4(r8)
 1001f00:	41400015 	stw	r5,0(r8)
 1001f04:	d8c02015 	stw	r3,128(sp)
 1001f08:	d8801f15 	stw	r2,124(sp)
 1001f0c:	010001c4 	movi	r4,7
 1001f10:	20805c16 	blt	r4,r2,1002084 <___vfprintf_internal_r+0x1bd0>
 1001f14:	42000204 	addi	r8,r8,8
 1001f18:	8800041e 	bne	r17,zero,1001f2c <___vfprintf_internal_r+0x1a78>
 1001f1c:	d8803317 	ldw	r2,204(sp)
 1001f20:	1000021e 	bne	r2,zero,1001f2c <___vfprintf_internal_r+0x1a78>
 1001f24:	9080004c 	andi	r2,r18,1
 1001f28:	103be726 	beq	r2,zero,1000ec8 <__alt_mem_epcs+0xfefffec8>
 1001f2c:	d9003717 	ldw	r4,220(sp)
 1001f30:	d8801f17 	ldw	r2,124(sp)
 1001f34:	d9403417 	ldw	r5,208(sp)
 1001f38:	20c7883a 	add	r3,r4,r3
 1001f3c:	10800044 	addi	r2,r2,1
 1001f40:	41000115 	stw	r4,4(r8)
 1001f44:	41400015 	stw	r5,0(r8)
 1001f48:	d8c02015 	stw	r3,128(sp)
 1001f4c:	d8801f15 	stw	r2,124(sp)
 1001f50:	010001c4 	movi	r4,7
 1001f54:	20812116 	blt	r4,r2,10023dc <___vfprintf_internal_r+0x1f28>
 1001f58:	42000204 	addi	r8,r8,8
 1001f5c:	0463c83a 	sub	r17,zero,r17
 1001f60:	0440730e 	bge	zero,r17,1002130 <___vfprintf_internal_r+0x1c7c>
 1001f64:	05800404 	movi	r22,16
 1001f68:	b440860e 	bge	r22,r17,1002184 <___vfprintf_internal_r+0x1cd0>
 1001f6c:	01404074 	movhi	r5,257
 1001f70:	2945a284 	addi	r5,r5,5770
 1001f74:	d9402c15 	stw	r5,176(sp)
 1001f78:	070001c4 	movi	fp,7
 1001f7c:	dcc02d17 	ldw	r19,180(sp)
 1001f80:	00000306 	br	1001f90 <___vfprintf_internal_r+0x1adc>
 1001f84:	42000204 	addi	r8,r8,8
 1001f88:	8c7ffc04 	addi	r17,r17,-16
 1001f8c:	b440800e 	bge	r22,r17,1002190 <___vfprintf_internal_r+0x1cdc>
 1001f90:	18c00404 	addi	r3,r3,16
 1001f94:	10800044 	addi	r2,r2,1
 1001f98:	45000015 	stw	r20,0(r8)
 1001f9c:	45800115 	stw	r22,4(r8)
 1001fa0:	d8c02015 	stw	r3,128(sp)
 1001fa4:	d8801f15 	stw	r2,124(sp)
 1001fa8:	e0bff60e 	bge	fp,r2,1001f84 <__alt_mem_epcs+0xff000f84>
 1001fac:	d9801e04 	addi	r6,sp,120
 1001fb0:	b80b883a 	mov	r5,r23
 1001fb4:	9809883a 	mov	r4,r19
 1001fb8:	1007c940 	call	1007c94 <__sprint_r>
 1001fbc:	103a411e 	bne	r2,zero,10008c4 <__alt_mem_epcs+0xfefff8c4>
 1001fc0:	d8c02017 	ldw	r3,128(sp)
 1001fc4:	d8801f17 	ldw	r2,124(sp)
 1001fc8:	da000404 	addi	r8,sp,16
 1001fcc:	003fee06 	br	1001f88 <__alt_mem_epcs+0xff000f88>
 1001fd0:	00bfffc4 	movi	r2,-1
 1001fd4:	003a3f06 	br	10008d4 <__alt_mem_epcs+0xfefff8d4>
 1001fd8:	008011c4 	movi	r2,71
 1001fdc:	1440b816 	blt	r2,r17,10022c0 <___vfprintf_internal_r+0x1e0c>
 1001fe0:	04004074 	movhi	r16,257
 1001fe4:	84059404 	addi	r16,r16,5712
 1001fe8:	00c000c4 	movi	r3,3
 1001fec:	00bfdfc4 	movi	r2,-129
 1001ff0:	d8c02915 	stw	r3,164(sp)
 1001ff4:	90a4703a 	and	r18,r18,r2
 1001ff8:	df002783 	ldbu	fp,158(sp)
 1001ffc:	d8c02b15 	stw	r3,172(sp)
 1002000:	d8002a15 	stw	zero,168(sp)
 1002004:	d8003215 	stw	zero,200(sp)
 1002008:	003b0706 	br	1000c28 <__alt_mem_epcs+0xfefffc28>
 100200c:	d8c02e17 	ldw	r3,184(sp)
 1002010:	1cc00017 	ldw	r19,0(r3)
 1002014:	18c00104 	addi	r3,r3,4
 1002018:	d8c02e15 	stw	r3,184(sp)
 100201c:	982dd7fa 	srai	r22,r19,31
 1002020:	b005883a 	mov	r2,r22
 1002024:	003a7706 	br	1000a04 <__alt_mem_epcs+0xfefffa04>
 1002028:	d8c02e17 	ldw	r3,184(sp)
 100202c:	d9002f17 	ldw	r4,188(sp)
 1002030:	18800017 	ldw	r2,0(r3)
 1002034:	18c00104 	addi	r3,r3,4
 1002038:	d8c02e15 	stw	r3,184(sp)
 100203c:	11000015 	stw	r4,0(r2)
 1002040:	00395406 	br	1000594 <__alt_mem_epcs+0xfefff594>
 1002044:	d9002e17 	ldw	r4,184(sp)
 1002048:	002d883a 	mov	r22,zero
 100204c:	24c00017 	ldw	r19,0(r4)
 1002050:	21000104 	addi	r4,r4,4
 1002054:	d9002e15 	stw	r4,184(sp)
 1002058:	003c0706 	br	1001078 <__alt_mem_epcs+0xff000078>
 100205c:	d9402e17 	ldw	r5,184(sp)
 1002060:	d8c02a17 	ldw	r3,168(sp)
 1002064:	002d883a 	mov	r22,zero
 1002068:	28800104 	addi	r2,r5,4
 100206c:	2cc0000b 	ldhu	r19,0(r5)
 1002070:	183dc10e 	bge	r3,zero,1001778 <__alt_mem_epcs+0xff000778>
 1002074:	003f7506 	br	1001e4c <__alt_mem_epcs+0xff000e4c>
 1002078:	04004074 	movhi	r16,257
 100207c:	84059204 	addi	r16,r16,5704
 1002080:	003aa706 	br	1000b20 <__alt_mem_epcs+0xfefffb20>
 1002084:	d9002d17 	ldw	r4,180(sp)
 1002088:	d9801e04 	addi	r6,sp,120
 100208c:	b80b883a 	mov	r5,r23
 1002090:	1007c940 	call	1007c94 <__sprint_r>
 1002094:	103a0b1e 	bne	r2,zero,10008c4 <__alt_mem_epcs+0xfefff8c4>
 1002098:	dc402617 	ldw	r17,152(sp)
 100209c:	d8c02017 	ldw	r3,128(sp)
 10020a0:	da000404 	addi	r8,sp,16
 10020a4:	003f9c06 	br	1001f18 <__alt_mem_epcs+0xff000f18>
 10020a8:	ac400043 	ldbu	r17,1(r21)
 10020ac:	84000814 	ori	r16,r16,32
 10020b0:	ad400044 	addi	r21,r21,1
 10020b4:	8c403fcc 	andi	r17,r17,255
 10020b8:	8c40201c 	xori	r17,r17,128
 10020bc:	8c7fe004 	addi	r17,r17,-128
 10020c0:	00395e06 	br	100063c <__alt_mem_epcs+0xfefff63c>
 10020c4:	d8c02e15 	stw	r3,184(sp)
 10020c8:	0039883a 	mov	fp,zero
 10020cc:	003e3506 	br	10019a4 <__alt_mem_epcs+0xff0009a4>
 10020d0:	d9002d17 	ldw	r4,180(sp)
 10020d4:	d9801e04 	addi	r6,sp,120
 10020d8:	b80b883a 	mov	r5,r23
 10020dc:	1007c940 	call	1007c94 <__sprint_r>
 10020e0:	1039f81e 	bne	r2,zero,10008c4 <__alt_mem_epcs+0xfefff8c4>
 10020e4:	d8c02017 	ldw	r3,128(sp)
 10020e8:	da000404 	addi	r8,sp,16
 10020ec:	003cd006 	br	1001430 <__alt_mem_epcs+0xff000430>
 10020f0:	8009883a 	mov	r4,r16
 10020f4:	df003d15 	stw	fp,244(sp)
 10020f8:	100041c0 	call	100041c <strlen>
 10020fc:	d8802b15 	stw	r2,172(sp)
 1002100:	da003d17 	ldw	r8,244(sp)
 1002104:	103c200e 	bge	r2,zero,1001188 <__alt_mem_epcs+0xff000188>
 1002108:	0005883a 	mov	r2,zero
 100210c:	003c1e06 	br	1001188 <__alt_mem_epcs+0xff000188>
 1002110:	d9002d17 	ldw	r4,180(sp)
 1002114:	d9801e04 	addi	r6,sp,120
 1002118:	b80b883a 	mov	r5,r23
 100211c:	1007c940 	call	1007c94 <__sprint_r>
 1002120:	1039e81e 	bne	r2,zero,10008c4 <__alt_mem_epcs+0xfefff8c4>
 1002124:	d8c02017 	ldw	r3,128(sp)
 1002128:	d8801f17 	ldw	r2,124(sp)
 100212c:	da000404 	addi	r8,sp,16
 1002130:	d9403317 	ldw	r5,204(sp)
 1002134:	10800044 	addi	r2,r2,1
 1002138:	44000015 	stw	r16,0(r8)
 100213c:	28c7883a 	add	r3,r5,r3
 1002140:	003b5b06 	br	1000eb0 <__alt_mem_epcs+0xfefffeb0>
 1002144:	01004074 	movhi	r4,257
 1002148:	2105a684 	addi	r4,r4,5786
 100214c:	d9003515 	stw	r4,212(sp)
 1002150:	003af206 	br	1000d1c <__alt_mem_epcs+0xfefffd1c>
 1002154:	013fffc4 	movi	r4,-1
 1002158:	003a0806 	br	100097c <__alt_mem_epcs+0xfefff97c>
 100215c:	0023883a 	mov	r17,zero
 1002160:	003d9d06 	br	10017d8 <__alt_mem_epcs+0xff0007d8>
 1002164:	d9002d17 	ldw	r4,180(sp)
 1002168:	d9801e04 	addi	r6,sp,120
 100216c:	b80b883a 	mov	r5,r23
 1002170:	1007c940 	call	1007c94 <__sprint_r>
 1002174:	1039d31e 	bne	r2,zero,10008c4 <__alt_mem_epcs+0xfefff8c4>
 1002178:	d8c02017 	ldw	r3,128(sp)
 100217c:	da000404 	addi	r8,sp,16
 1002180:	003d9406 	br	10017d4 <__alt_mem_epcs+0xff0007d4>
 1002184:	01004074 	movhi	r4,257
 1002188:	2105a284 	addi	r4,r4,5770
 100218c:	d9002c15 	stw	r4,176(sp)
 1002190:	d9002c17 	ldw	r4,176(sp)
 1002194:	1c47883a 	add	r3,r3,r17
 1002198:	10800044 	addi	r2,r2,1
 100219c:	41000015 	stw	r4,0(r8)
 10021a0:	44400115 	stw	r17,4(r8)
 10021a4:	d8c02015 	stw	r3,128(sp)
 10021a8:	d8801f15 	stw	r2,124(sp)
 10021ac:	010001c4 	movi	r4,7
 10021b0:	20bfd716 	blt	r4,r2,1002110 <__alt_mem_epcs+0xff001110>
 10021b4:	42000204 	addi	r8,r8,8
 10021b8:	003fdd06 	br	1002130 <__alt_mem_epcs+0xff001130>
 10021bc:	d9002d17 	ldw	r4,180(sp)
 10021c0:	d9801e04 	addi	r6,sp,120
 10021c4:	b80b883a 	mov	r5,r23
 10021c8:	1007c940 	call	1007c94 <__sprint_r>
 10021cc:	1039bd1e 	bne	r2,zero,10008c4 <__alt_mem_epcs+0xfefff8c4>
 10021d0:	d8802617 	ldw	r2,152(sp)
 10021d4:	d8c02017 	ldw	r3,128(sp)
 10021d8:	da000404 	addi	r8,sp,16
 10021dc:	003e1006 	br	1001a20 <__alt_mem_epcs+0xff000a20>
 10021e0:	00800044 	movi	r2,1
 10021e4:	10803fcc 	andi	r2,r2,255
 10021e8:	00c00044 	movi	r3,1
 10021ec:	10fa0d26 	beq	r2,r3,1000a24 <__alt_mem_epcs+0xfefffa24>
 10021f0:	00c00084 	movi	r3,2
 10021f4:	10fbaf26 	beq	r2,r3,10010b4 <__alt_mem_epcs+0xff0000b4>
 10021f8:	003a6d06 	br	1000bb0 <__alt_mem_epcs+0xfefffbb0>
 10021fc:	01004074 	movhi	r4,257
 1002200:	2105a684 	addi	r4,r4,5786
 1002204:	d9003515 	stw	r4,212(sp)
 1002208:	003b5406 	br	1000f5c <__alt_mem_epcs+0xfeffff5c>
 100220c:	d8802a17 	ldw	r2,168(sp)
 1002210:	00c00184 	movi	r3,6
 1002214:	1880012e 	bgeu	r3,r2,100221c <___vfprintf_internal_r+0x1d68>
 1002218:	1805883a 	mov	r2,r3
 100221c:	d8802b15 	stw	r2,172(sp)
 1002220:	1000ef16 	blt	r2,zero,10025e0 <___vfprintf_internal_r+0x212c>
 1002224:	04004074 	movhi	r16,257
 1002228:	d8802915 	stw	r2,164(sp)
 100222c:	dcc02e15 	stw	r19,184(sp)
 1002230:	d8002a15 	stw	zero,168(sp)
 1002234:	d8003215 	stw	zero,200(sp)
 1002238:	8405a004 	addi	r16,r16,5760
 100223c:	0039883a 	mov	fp,zero
 1002240:	003a8006 	br	1000c44 <__alt_mem_epcs+0xfefffc44>
 1002244:	0021883a 	mov	r16,zero
 1002248:	003e0706 	br	1001a68 <__alt_mem_epcs+0xff000a68>
 100224c:	d9002d17 	ldw	r4,180(sp)
 1002250:	d9801e04 	addi	r6,sp,120
 1002254:	b80b883a 	mov	r5,r23
 1002258:	1007c940 	call	1007c94 <__sprint_r>
 100225c:	1039991e 	bne	r2,zero,10008c4 <__alt_mem_epcs+0xfefff8c4>
 1002260:	d8802617 	ldw	r2,152(sp)
 1002264:	d9403317 	ldw	r5,204(sp)
 1002268:	d8c02017 	ldw	r3,128(sp)
 100226c:	da000404 	addi	r8,sp,16
 1002270:	2885c83a 	sub	r2,r5,r2
 1002274:	003dfb06 	br	1001a64 <__alt_mem_epcs+0xff000a64>
 1002278:	9080004c 	andi	r2,r18,1
 100227c:	103e8f1e 	bne	r2,zero,1001cbc <__alt_mem_epcs+0xff000cbc>
 1002280:	d8802117 	ldw	r2,132(sp)
 1002284:	003e9e06 	br	1001d00 <__alt_mem_epcs+0xff000d00>
 1002288:	1025883a 	mov	r18,r2
 100228c:	0039883a 	mov	fp,zero
 1002290:	00800084 	movi	r2,2
 1002294:	003fd306 	br	10021e4 <__alt_mem_epcs+0xff0011e4>
 1002298:	07000b44 	movi	fp,45
 100229c:	df002785 	stb	fp,158(sp)
 10022a0:	003a1b06 	br	1000b10 <__alt_mem_epcs+0xfefffb10>
 10022a4:	00c00b44 	movi	r3,45
 10022a8:	d8c02785 	stb	r3,158(sp)
 10022ac:	d8802915 	stw	r2,164(sp)
 10022b0:	dc802c17 	ldw	r18,176(sp)
 10022b4:	d8002a15 	stw	zero,168(sp)
 10022b8:	07000b44 	movi	fp,45
 10022bc:	003a5e06 	br	1000c38 <__alt_mem_epcs+0xfefffc38>
 10022c0:	04004074 	movhi	r16,257
 10022c4:	84059504 	addi	r16,r16,5716
 10022c8:	003f4706 	br	1001fe8 <__alt_mem_epcs+0xff000fe8>
 10022cc:	d9002e17 	ldw	r4,184(sp)
 10022d0:	d9402f17 	ldw	r5,188(sp)
 10022d4:	20800017 	ldw	r2,0(r4)
 10022d8:	21000104 	addi	r4,r4,4
 10022dc:	d9002e15 	stw	r4,184(sp)
 10022e0:	11400015 	stw	r5,0(r2)
 10022e4:	0038ab06 	br	1000594 <__alt_mem_epcs+0xfefff594>
 10022e8:	dd802617 	ldw	r22,152(sp)
 10022ec:	00bfff44 	movi	r2,-3
 10022f0:	b0801c16 	blt	r22,r2,1002364 <___vfprintf_internal_r+0x1eb0>
 10022f4:	d9402a17 	ldw	r5,168(sp)
 10022f8:	2d801a16 	blt	r5,r22,1002364 <___vfprintf_internal_r+0x1eb0>
 10022fc:	dd803215 	stw	r22,200(sp)
 1002300:	003e8906 	br	1001d28 <__alt_mem_epcs+0xff000d28>
 1002304:	01004074 	movhi	r4,257
 1002308:	2105a284 	addi	r4,r4,5770
 100230c:	d9002c15 	stw	r4,176(sp)
 1002310:	003c9106 	br	1001558 <__alt_mem_epcs+0xff000558>
 1002314:	e005883a 	mov	r2,fp
 1002318:	003e7906 	br	1001d00 <__alt_mem_epcs+0xff000d00>
 100231c:	d9002a17 	ldw	r4,168(sp)
 1002320:	df002783 	ldbu	fp,158(sp)
 1002324:	dcc02e15 	stw	r19,184(sp)
 1002328:	d9002915 	stw	r4,164(sp)
 100232c:	d9002b15 	stw	r4,172(sp)
 1002330:	d8002a15 	stw	zero,168(sp)
 1002334:	d8003215 	stw	zero,200(sp)
 1002338:	003a3b06 	br	1000c28 <__alt_mem_epcs+0xfefffc28>
 100233c:	9080004c 	andi	r2,r18,1
 1002340:	0039883a 	mov	fp,zero
 1002344:	10000426 	beq	r2,zero,1002358 <___vfprintf_internal_r+0x1ea4>
 1002348:	00800c04 	movi	r2,48
 100234c:	dc001dc4 	addi	r16,sp,119
 1002350:	d8801dc5 	stb	r2,119(sp)
 1002354:	003b6406 	br	10010e8 <__alt_mem_epcs+0xff0000e8>
 1002358:	d8002b15 	stw	zero,172(sp)
 100235c:	dc001e04 	addi	r16,sp,120
 1002360:	003a2b06 	br	1000c10 <__alt_mem_epcs+0xfefffc10>
 1002364:	8c7fff84 	addi	r17,r17,-2
 1002368:	b5bfffc4 	addi	r22,r22,-1
 100236c:	dd802615 	stw	r22,152(sp)
 1002370:	dc4022c5 	stb	r17,139(sp)
 1002374:	b000bf16 	blt	r22,zero,1002674 <___vfprintf_internal_r+0x21c0>
 1002378:	00800ac4 	movi	r2,43
 100237c:	d8802305 	stb	r2,140(sp)
 1002380:	00800244 	movi	r2,9
 1002384:	15807016 	blt	r2,r22,1002548 <___vfprintf_internal_r+0x2094>
 1002388:	00800c04 	movi	r2,48
 100238c:	b5800c04 	addi	r22,r22,48
 1002390:	d8802345 	stb	r2,141(sp)
 1002394:	dd802385 	stb	r22,142(sp)
 1002398:	d88023c4 	addi	r2,sp,143
 100239c:	df0022c4 	addi	fp,sp,139
 10023a0:	d8c03317 	ldw	r3,204(sp)
 10023a4:	1739c83a 	sub	fp,r2,fp
 10023a8:	d9003317 	ldw	r4,204(sp)
 10023ac:	e0c7883a 	add	r3,fp,r3
 10023b0:	df003a15 	stw	fp,232(sp)
 10023b4:	d8c02b15 	stw	r3,172(sp)
 10023b8:	00800044 	movi	r2,1
 10023bc:	1100b30e 	bge	r2,r4,100268c <___vfprintf_internal_r+0x21d8>
 10023c0:	d8c02b17 	ldw	r3,172(sp)
 10023c4:	18c00044 	addi	r3,r3,1
 10023c8:	d8c02b15 	stw	r3,172(sp)
 10023cc:	1805883a 	mov	r2,r3
 10023d0:	1800ac16 	blt	r3,zero,1002684 <___vfprintf_internal_r+0x21d0>
 10023d4:	d8003215 	stw	zero,200(sp)
 10023d8:	003e5d06 	br	1001d50 <__alt_mem_epcs+0xff000d50>
 10023dc:	d9002d17 	ldw	r4,180(sp)
 10023e0:	d9801e04 	addi	r6,sp,120
 10023e4:	b80b883a 	mov	r5,r23
 10023e8:	1007c940 	call	1007c94 <__sprint_r>
 10023ec:	1039351e 	bne	r2,zero,10008c4 <__alt_mem_epcs+0xfefff8c4>
 10023f0:	dc402617 	ldw	r17,152(sp)
 10023f4:	d8c02017 	ldw	r3,128(sp)
 10023f8:	d8801f17 	ldw	r2,124(sp)
 10023fc:	da000404 	addi	r8,sp,16
 1002400:	003ed606 	br	1001f5c <__alt_mem_epcs+0xff000f5c>
 1002404:	182b883a 	mov	r21,r3
 1002408:	d8002a15 	stw	zero,168(sp)
 100240c:	00388c06 	br	1000640 <__alt_mem_epcs+0xfefff640>
 1002410:	d8802a17 	ldw	r2,168(sp)
 1002414:	103e071e 	bne	r2,zero,1001c34 <__alt_mem_epcs+0xff000c34>
 1002418:	dc002a15 	stw	r16,168(sp)
 100241c:	003e0506 	br	1001c34 <__alt_mem_epcs+0xff000c34>
 1002420:	d9002a17 	ldw	r4,168(sp)
 1002424:	20c00044 	addi	r3,r4,1
 1002428:	003e0f06 	br	1001c68 <__alt_mem_epcs+0xff000c68>
 100242c:	01400184 	movi	r5,6
 1002430:	d9402a15 	stw	r5,168(sp)
 1002434:	003dff06 	br	1001c34 <__alt_mem_epcs+0xff000c34>
 1002438:	d8802104 	addi	r2,sp,132
 100243c:	d8800315 	stw	r2,12(sp)
 1002440:	d8802504 	addi	r2,sp,148
 1002444:	d8800215 	stw	r2,8(sp)
 1002448:	d8802604 	addi	r2,sp,152
 100244c:	d8800115 	stw	r2,4(sp)
 1002450:	d8802a17 	ldw	r2,168(sp)
 1002454:	d9403617 	ldw	r5,216(sp)
 1002458:	d9002d17 	ldw	r4,180(sp)
 100245c:	d8800015 	stw	r2,0(sp)
 1002460:	01c000c4 	movi	r7,3
 1002464:	980d883a 	mov	r6,r19
 1002468:	da003d15 	stw	r8,244(sp)
 100246c:	1002be40 	call	1002be4 <_dtoa_r>
 1002470:	d8c02a17 	ldw	r3,168(sp)
 1002474:	da003d17 	ldw	r8,244(sp)
 1002478:	1021883a 	mov	r16,r2
 100247c:	10f9883a 	add	fp,r2,r3
 1002480:	81000007 	ldb	r4,0(r16)
 1002484:	00800c04 	movi	r2,48
 1002488:	20805e26 	beq	r4,r2,1002604 <___vfprintf_internal_r+0x2150>
 100248c:	d8c02617 	ldw	r3,152(sp)
 1002490:	e0f9883a 	add	fp,fp,r3
 1002494:	003e0a06 	br	1001cc0 <__alt_mem_epcs+0xff000cc0>
 1002498:	00c00b44 	movi	r3,45
 100249c:	24e0003c 	xorhi	r19,r4,32768
 10024a0:	d8c02905 	stb	r3,164(sp)
 10024a4:	003de906 	br	1001c4c <__alt_mem_epcs+0xff000c4c>
 10024a8:	d8c03217 	ldw	r3,200(sp)
 10024ac:	00c07a0e 	bge	zero,r3,1002698 <___vfprintf_internal_r+0x21e4>
 10024b0:	00800044 	movi	r2,1
 10024b4:	d9003317 	ldw	r4,204(sp)
 10024b8:	1105883a 	add	r2,r2,r4
 10024bc:	d8802b15 	stw	r2,172(sp)
 10024c0:	10004e16 	blt	r2,zero,10025fc <___vfprintf_internal_r+0x2148>
 10024c4:	044019c4 	movi	r17,103
 10024c8:	003e2106 	br	1001d50 <__alt_mem_epcs+0xff000d50>
 10024cc:	d9002a17 	ldw	r4,168(sp)
 10024d0:	d8802104 	addi	r2,sp,132
 10024d4:	d8800315 	stw	r2,12(sp)
 10024d8:	d9000015 	stw	r4,0(sp)
 10024dc:	d8802504 	addi	r2,sp,148
 10024e0:	d9403617 	ldw	r5,216(sp)
 10024e4:	d9002d17 	ldw	r4,180(sp)
 10024e8:	d8800215 	stw	r2,8(sp)
 10024ec:	d8802604 	addi	r2,sp,152
 10024f0:	d8800115 	stw	r2,4(sp)
 10024f4:	01c000c4 	movi	r7,3
 10024f8:	980d883a 	mov	r6,r19
 10024fc:	da003d15 	stw	r8,244(sp)
 1002500:	1002be40 	call	1002be4 <_dtoa_r>
 1002504:	d8c02a17 	ldw	r3,168(sp)
 1002508:	da003d17 	ldw	r8,244(sp)
 100250c:	1021883a 	mov	r16,r2
 1002510:	00801184 	movi	r2,70
 1002514:	80f9883a 	add	fp,r16,r3
 1002518:	88bfd926 	beq	r17,r2,1002480 <__alt_mem_epcs+0xff001480>
 100251c:	003de806 	br	1001cc0 <__alt_mem_epcs+0xff000cc0>
 1002520:	d9002a17 	ldw	r4,168(sp)
 1002524:	00c04d0e 	bge	zero,r3,100265c <___vfprintf_internal_r+0x21a8>
 1002528:	2000441e 	bne	r4,zero,100263c <___vfprintf_internal_r+0x2188>
 100252c:	9480004c 	andi	r18,r18,1
 1002530:	9000421e 	bne	r18,zero,100263c <___vfprintf_internal_r+0x2188>
 1002534:	1805883a 	mov	r2,r3
 1002538:	18006f16 	blt	r3,zero,10026f8 <___vfprintf_internal_r+0x2244>
 100253c:	d8c03217 	ldw	r3,200(sp)
 1002540:	d8c02b15 	stw	r3,172(sp)
 1002544:	003e0206 	br	1001d50 <__alt_mem_epcs+0xff000d50>
 1002548:	df0022c4 	addi	fp,sp,139
 100254c:	dc002a15 	stw	r16,168(sp)
 1002550:	4027883a 	mov	r19,r8
 1002554:	e021883a 	mov	r16,fp
 1002558:	b009883a 	mov	r4,r22
 100255c:	01400284 	movi	r5,10
 1002560:	100a8200 	call	100a820 <__modsi3>
 1002564:	10800c04 	addi	r2,r2,48
 1002568:	843fffc4 	addi	r16,r16,-1
 100256c:	b009883a 	mov	r4,r22
 1002570:	01400284 	movi	r5,10
 1002574:	80800005 	stb	r2,0(r16)
 1002578:	100a79c0 	call	100a79c <__divsi3>
 100257c:	102d883a 	mov	r22,r2
 1002580:	00800244 	movi	r2,9
 1002584:	15bff416 	blt	r2,r22,1002558 <__alt_mem_epcs+0xff001558>
 1002588:	9811883a 	mov	r8,r19
 100258c:	b0800c04 	addi	r2,r22,48
 1002590:	8027883a 	mov	r19,r16
 1002594:	997fffc4 	addi	r5,r19,-1
 1002598:	98bfffc5 	stb	r2,-1(r19)
 100259c:	dc002a17 	ldw	r16,168(sp)
 10025a0:	2f006d2e 	bgeu	r5,fp,1002758 <___vfprintf_internal_r+0x22a4>
 10025a4:	d9c02384 	addi	r7,sp,142
 10025a8:	3ccfc83a 	sub	r7,r7,r19
 10025ac:	d9002344 	addi	r4,sp,141
 10025b0:	e1cf883a 	add	r7,fp,r7
 10025b4:	00000106 	br	10025bc <___vfprintf_internal_r+0x2108>
 10025b8:	28800003 	ldbu	r2,0(r5)
 10025bc:	20800005 	stb	r2,0(r4)
 10025c0:	21000044 	addi	r4,r4,1
 10025c4:	29400044 	addi	r5,r5,1
 10025c8:	393ffb1e 	bne	r7,r4,10025b8 <__alt_mem_epcs+0xff0015b8>
 10025cc:	d8802304 	addi	r2,sp,140
 10025d0:	14c5c83a 	sub	r2,r2,r19
 10025d4:	d8c02344 	addi	r3,sp,141
 10025d8:	1885883a 	add	r2,r3,r2
 10025dc:	003f7006 	br	10023a0 <__alt_mem_epcs+0xff0013a0>
 10025e0:	0005883a 	mov	r2,zero
 10025e4:	003f0f06 	br	1002224 <__alt_mem_epcs+0xff001224>
 10025e8:	d8c03217 	ldw	r3,200(sp)
 10025ec:	18c00044 	addi	r3,r3,1
 10025f0:	d8c02b15 	stw	r3,172(sp)
 10025f4:	1805883a 	mov	r2,r3
 10025f8:	183fb20e 	bge	r3,zero,10024c4 <__alt_mem_epcs+0xff0014c4>
 10025fc:	0005883a 	mov	r2,zero
 1002600:	003fb006 	br	10024c4 <__alt_mem_epcs+0xff0014c4>
 1002604:	d9003617 	ldw	r4,216(sp)
 1002608:	000d883a 	mov	r6,zero
 100260c:	000f883a 	mov	r7,zero
 1002610:	980b883a 	mov	r5,r19
 1002614:	d8c03c15 	stw	r3,240(sp)
 1002618:	da003d15 	stw	r8,244(sp)
 100261c:	100bbf40 	call	100bbf4 <__eqdf2>
 1002620:	d8c03c17 	ldw	r3,240(sp)
 1002624:	da003d17 	ldw	r8,244(sp)
 1002628:	103f9826 	beq	r2,zero,100248c <__alt_mem_epcs+0xff00148c>
 100262c:	00800044 	movi	r2,1
 1002630:	10c7c83a 	sub	r3,r2,r3
 1002634:	d8c02615 	stw	r3,152(sp)
 1002638:	003f9506 	br	1002490 <__alt_mem_epcs+0xff001490>
 100263c:	d9002a17 	ldw	r4,168(sp)
 1002640:	d8c03217 	ldw	r3,200(sp)
 1002644:	20800044 	addi	r2,r4,1
 1002648:	1885883a 	add	r2,r3,r2
 100264c:	d8802b15 	stw	r2,172(sp)
 1002650:	103dbf0e 	bge	r2,zero,1001d50 <__alt_mem_epcs+0xff000d50>
 1002654:	0005883a 	mov	r2,zero
 1002658:	003dbd06 	br	1001d50 <__alt_mem_epcs+0xff000d50>
 100265c:	2000201e 	bne	r4,zero,10026e0 <___vfprintf_internal_r+0x222c>
 1002660:	9480004c 	andi	r18,r18,1
 1002664:	90001e1e 	bne	r18,zero,10026e0 <___vfprintf_internal_r+0x222c>
 1002668:	00800044 	movi	r2,1
 100266c:	d8802b15 	stw	r2,172(sp)
 1002670:	003db706 	br	1001d50 <__alt_mem_epcs+0xff000d50>
 1002674:	00800b44 	movi	r2,45
 1002678:	05adc83a 	sub	r22,zero,r22
 100267c:	d8802305 	stb	r2,140(sp)
 1002680:	003f3f06 	br	1002380 <__alt_mem_epcs+0xff001380>
 1002684:	0005883a 	mov	r2,zero
 1002688:	003f5206 	br	10023d4 <__alt_mem_epcs+0xff0013d4>
 100268c:	90a4703a 	and	r18,r18,r2
 1002690:	903f4e26 	beq	r18,zero,10023cc <__alt_mem_epcs+0xff0013cc>
 1002694:	003f4a06 	br	10023c0 <__alt_mem_epcs+0xff0013c0>
 1002698:	00800084 	movi	r2,2
 100269c:	10c5c83a 	sub	r2,r2,r3
 10026a0:	003f8406 	br	10024b4 <__alt_mem_epcs+0xff0014b4>
 10026a4:	d9402e17 	ldw	r5,184(sp)
 10026a8:	d9002e17 	ldw	r4,184(sp)
 10026ac:	ac400043 	ldbu	r17,1(r21)
 10026b0:	29400017 	ldw	r5,0(r5)
 10026b4:	20800104 	addi	r2,r4,4
 10026b8:	d8802e15 	stw	r2,184(sp)
 10026bc:	d9402a15 	stw	r5,168(sp)
 10026c0:	182b883a 	mov	r21,r3
 10026c4:	283e7b0e 	bge	r5,zero,10020b4 <__alt_mem_epcs+0xff0010b4>
 10026c8:	8c403fcc 	andi	r17,r17,255
 10026cc:	017fffc4 	movi	r5,-1
 10026d0:	8c40201c 	xori	r17,r17,128
 10026d4:	d9402a15 	stw	r5,168(sp)
 10026d8:	8c7fe004 	addi	r17,r17,-128
 10026dc:	0037d706 	br	100063c <__alt_mem_epcs+0xfefff63c>
 10026e0:	d8c02a17 	ldw	r3,168(sp)
 10026e4:	18c00084 	addi	r3,r3,2
 10026e8:	d8c02b15 	stw	r3,172(sp)
 10026ec:	1805883a 	mov	r2,r3
 10026f0:	183d970e 	bge	r3,zero,1001d50 <__alt_mem_epcs+0xff000d50>
 10026f4:	003fd706 	br	1002654 <__alt_mem_epcs+0xff001654>
 10026f8:	0005883a 	mov	r2,zero
 10026fc:	003f8f06 	br	100253c <__alt_mem_epcs+0xff00153c>
 1002700:	9080004c 	andi	r2,r18,1
 1002704:	103f821e 	bne	r2,zero,1002510 <__alt_mem_epcs+0xff001510>
 1002708:	d8802117 	ldw	r2,132(sp)
 100270c:	1405c83a 	sub	r2,r2,r16
 1002710:	d8803315 	stw	r2,204(sp)
 1002714:	b47ef426 	beq	r22,r17,10022e8 <__alt_mem_epcs+0xff0012e8>
 1002718:	dd802617 	ldw	r22,152(sp)
 100271c:	003f1206 	br	1002368 <__alt_mem_epcs+0xff001368>
 1002720:	d8c02b03 	ldbu	r3,172(sp)
 1002724:	d8c02785 	stb	r3,158(sp)
 1002728:	0038df06 	br	1000aa8 <__alt_mem_epcs+0xfefffaa8>
 100272c:	d8c02b03 	ldbu	r3,172(sp)
 1002730:	d8c02785 	stb	r3,158(sp)
 1002734:	0038aa06 	br	10009e0 <__alt_mem_epcs+0xfefff9e0>
 1002738:	d8c02b03 	ldbu	r3,172(sp)
 100273c:	d8c02785 	stb	r3,158(sp)
 1002740:	003a4306 	br	1001050 <__alt_mem_epcs+0xff000050>
 1002744:	d8c02b03 	ldbu	r3,172(sp)
 1002748:	d8c02785 	stb	r3,158(sp)
 100274c:	003af506 	br	1001324 <__alt_mem_epcs+0xff000324>
 1002750:	0005883a 	mov	r2,zero
 1002754:	003d7b06 	br	1001d44 <__alt_mem_epcs+0xff000d44>
 1002758:	d8802344 	addi	r2,sp,141
 100275c:	003f1006 	br	10023a0 <__alt_mem_epcs+0xff0013a0>
 1002760:	d8c02b03 	ldbu	r3,172(sp)
 1002764:	d8c02785 	stb	r3,158(sp)
 1002768:	0038fd06 	br	1000b60 <__alt_mem_epcs+0xfefffb60>
 100276c:	d8c02b03 	ldbu	r3,172(sp)
 1002770:	d8c02785 	stb	r3,158(sp)
 1002774:	003a9706 	br	10011d4 <__alt_mem_epcs+0xff0001d4>
 1002778:	d8c02b03 	ldbu	r3,172(sp)
 100277c:	d8c02785 	stb	r3,158(sp)
 1002780:	003a1806 	br	1000fe4 <__alt_mem_epcs+0xfeffffe4>
 1002784:	d8c02b03 	ldbu	r3,172(sp)
 1002788:	d8c02785 	stb	r3,158(sp)
 100278c:	003abe06 	br	1001288 <__alt_mem_epcs+0xff000288>

01002790 <__vfprintf_internal>:
 1002790:	00804074 	movhi	r2,257
 1002794:	108d9e04 	addi	r2,r2,13944
 1002798:	300f883a 	mov	r7,r6
 100279c:	280d883a 	mov	r6,r5
 10027a0:	200b883a 	mov	r5,r4
 10027a4:	11000017 	ldw	r4,0(r2)
 10027a8:	10004b41 	jmpi	10004b4 <___vfprintf_internal_r>

010027ac <__sbprintf>:
 10027ac:	2880030b 	ldhu	r2,12(r5)
 10027b0:	2ac01917 	ldw	r11,100(r5)
 10027b4:	2a80038b 	ldhu	r10,14(r5)
 10027b8:	2a400717 	ldw	r9,28(r5)
 10027bc:	2a000917 	ldw	r8,36(r5)
 10027c0:	defee204 	addi	sp,sp,-1144
 10027c4:	00c10004 	movi	r3,1024
 10027c8:	dc011a15 	stw	r16,1128(sp)
 10027cc:	10bfff4c 	andi	r2,r2,65533
 10027d0:	2821883a 	mov	r16,r5
 10027d4:	d8cb883a 	add	r5,sp,r3
 10027d8:	dc811c15 	stw	r18,1136(sp)
 10027dc:	dc411b15 	stw	r17,1132(sp)
 10027e0:	dfc11d15 	stw	ra,1140(sp)
 10027e4:	2025883a 	mov	r18,r4
 10027e8:	d881030d 	sth	r2,1036(sp)
 10027ec:	dac11915 	stw	r11,1124(sp)
 10027f0:	da81038d 	sth	r10,1038(sp)
 10027f4:	da410715 	stw	r9,1052(sp)
 10027f8:	da010915 	stw	r8,1060(sp)
 10027fc:	dec10015 	stw	sp,1024(sp)
 1002800:	dec10415 	stw	sp,1040(sp)
 1002804:	d8c10215 	stw	r3,1032(sp)
 1002808:	d8c10515 	stw	r3,1044(sp)
 100280c:	d8010615 	stw	zero,1048(sp)
 1002810:	10004b40 	call	10004b4 <___vfprintf_internal_r>
 1002814:	1023883a 	mov	r17,r2
 1002818:	10000416 	blt	r2,zero,100282c <__sbprintf+0x80>
 100281c:	d9410004 	addi	r5,sp,1024
 1002820:	9009883a 	mov	r4,r18
 1002824:	10044880 	call	1004488 <_fflush_r>
 1002828:	10000d1e 	bne	r2,zero,1002860 <__sbprintf+0xb4>
 100282c:	d881030b 	ldhu	r2,1036(sp)
 1002830:	1080100c 	andi	r2,r2,64
 1002834:	10000326 	beq	r2,zero,1002844 <__sbprintf+0x98>
 1002838:	8080030b 	ldhu	r2,12(r16)
 100283c:	10801014 	ori	r2,r2,64
 1002840:	8080030d 	sth	r2,12(r16)
 1002844:	8805883a 	mov	r2,r17
 1002848:	dfc11d17 	ldw	ra,1140(sp)
 100284c:	dc811c17 	ldw	r18,1136(sp)
 1002850:	dc411b17 	ldw	r17,1132(sp)
 1002854:	dc011a17 	ldw	r16,1128(sp)
 1002858:	dec11e04 	addi	sp,sp,1144
 100285c:	f800283a 	ret
 1002860:	047fffc4 	movi	r17,-1
 1002864:	003ff106 	br	100282c <__alt_mem_epcs+0xff00182c>

01002868 <__swsetup_r>:
 1002868:	00804074 	movhi	r2,257
 100286c:	defffd04 	addi	sp,sp,-12
 1002870:	108d9e04 	addi	r2,r2,13944
 1002874:	dc400115 	stw	r17,4(sp)
 1002878:	2023883a 	mov	r17,r4
 100287c:	11000017 	ldw	r4,0(r2)
 1002880:	dc000015 	stw	r16,0(sp)
 1002884:	dfc00215 	stw	ra,8(sp)
 1002888:	2821883a 	mov	r16,r5
 100288c:	20000226 	beq	r4,zero,1002898 <__swsetup_r+0x30>
 1002890:	20800e17 	ldw	r2,56(r4)
 1002894:	10003126 	beq	r2,zero,100295c <__swsetup_r+0xf4>
 1002898:	8080030b 	ldhu	r2,12(r16)
 100289c:	10c0020c 	andi	r3,r2,8
 10028a0:	1009883a 	mov	r4,r2
 10028a4:	18000f26 	beq	r3,zero,10028e4 <__swsetup_r+0x7c>
 10028a8:	80c00417 	ldw	r3,16(r16)
 10028ac:	18001526 	beq	r3,zero,1002904 <__swsetup_r+0x9c>
 10028b0:	1100004c 	andi	r4,r2,1
 10028b4:	20001c1e 	bne	r4,zero,1002928 <__swsetup_r+0xc0>
 10028b8:	1080008c 	andi	r2,r2,2
 10028bc:	1000291e 	bne	r2,zero,1002964 <__swsetup_r+0xfc>
 10028c0:	80800517 	ldw	r2,20(r16)
 10028c4:	80800215 	stw	r2,8(r16)
 10028c8:	18001c26 	beq	r3,zero,100293c <__swsetup_r+0xd4>
 10028cc:	0005883a 	mov	r2,zero
 10028d0:	dfc00217 	ldw	ra,8(sp)
 10028d4:	dc400117 	ldw	r17,4(sp)
 10028d8:	dc000017 	ldw	r16,0(sp)
 10028dc:	dec00304 	addi	sp,sp,12
 10028e0:	f800283a 	ret
 10028e4:	2080040c 	andi	r2,r4,16
 10028e8:	10002e26 	beq	r2,zero,10029a4 <__swsetup_r+0x13c>
 10028ec:	2080010c 	andi	r2,r4,4
 10028f0:	10001e1e 	bne	r2,zero,100296c <__swsetup_r+0x104>
 10028f4:	80c00417 	ldw	r3,16(r16)
 10028f8:	20800214 	ori	r2,r4,8
 10028fc:	8080030d 	sth	r2,12(r16)
 1002900:	183feb1e 	bne	r3,zero,10028b0 <__alt_mem_epcs+0xff0018b0>
 1002904:	1100a00c 	andi	r4,r2,640
 1002908:	01408004 	movi	r5,512
 100290c:	217fe826 	beq	r4,r5,10028b0 <__alt_mem_epcs+0xff0018b0>
 1002910:	800b883a 	mov	r5,r16
 1002914:	8809883a 	mov	r4,r17
 1002918:	10054240 	call	1005424 <__smakebuf_r>
 100291c:	8080030b 	ldhu	r2,12(r16)
 1002920:	80c00417 	ldw	r3,16(r16)
 1002924:	003fe206 	br	10028b0 <__alt_mem_epcs+0xff0018b0>
 1002928:	80800517 	ldw	r2,20(r16)
 100292c:	80000215 	stw	zero,8(r16)
 1002930:	0085c83a 	sub	r2,zero,r2
 1002934:	80800615 	stw	r2,24(r16)
 1002938:	183fe41e 	bne	r3,zero,10028cc <__alt_mem_epcs+0xff0018cc>
 100293c:	80c0030b 	ldhu	r3,12(r16)
 1002940:	0005883a 	mov	r2,zero
 1002944:	1900200c 	andi	r4,r3,128
 1002948:	203fe126 	beq	r4,zero,10028d0 <__alt_mem_epcs+0xff0018d0>
 100294c:	18c01014 	ori	r3,r3,64
 1002950:	80c0030d 	sth	r3,12(r16)
 1002954:	00bfffc4 	movi	r2,-1
 1002958:	003fdd06 	br	10028d0 <__alt_mem_epcs+0xff0018d0>
 100295c:	10048740 	call	1004874 <__sinit>
 1002960:	003fcd06 	br	1002898 <__alt_mem_epcs+0xff001898>
 1002964:	0005883a 	mov	r2,zero
 1002968:	003fd606 	br	10028c4 <__alt_mem_epcs+0xff0018c4>
 100296c:	81400c17 	ldw	r5,48(r16)
 1002970:	28000626 	beq	r5,zero,100298c <__swsetup_r+0x124>
 1002974:	80801004 	addi	r2,r16,64
 1002978:	28800326 	beq	r5,r2,1002988 <__swsetup_r+0x120>
 100297c:	8809883a 	mov	r4,r17
 1002980:	10049e80 	call	10049e8 <_free_r>
 1002984:	8100030b 	ldhu	r4,12(r16)
 1002988:	80000c15 	stw	zero,48(r16)
 100298c:	80c00417 	ldw	r3,16(r16)
 1002990:	00bff6c4 	movi	r2,-37
 1002994:	1108703a 	and	r4,r2,r4
 1002998:	80000115 	stw	zero,4(r16)
 100299c:	80c00015 	stw	r3,0(r16)
 10029a0:	003fd506 	br	10028f8 <__alt_mem_epcs+0xff0018f8>
 10029a4:	00800244 	movi	r2,9
 10029a8:	88800015 	stw	r2,0(r17)
 10029ac:	20801014 	ori	r2,r4,64
 10029b0:	8080030d 	sth	r2,12(r16)
 10029b4:	00bfffc4 	movi	r2,-1
 10029b8:	003fc506 	br	10028d0 <__alt_mem_epcs+0xff0018d0>

010029bc <quorem>:
 10029bc:	defff204 	addi	sp,sp,-56
 10029c0:	ddc00b15 	stw	r23,44(sp)
 10029c4:	20800417 	ldw	r2,16(r4)
 10029c8:	2dc00417 	ldw	r23,16(r5)
 10029cc:	dfc00d15 	stw	ra,52(sp)
 10029d0:	df000c15 	stw	fp,48(sp)
 10029d4:	dd800a15 	stw	r22,40(sp)
 10029d8:	dd400915 	stw	r21,36(sp)
 10029dc:	dd000815 	stw	r20,32(sp)
 10029e0:	dcc00715 	stw	r19,28(sp)
 10029e4:	dc800615 	stw	r18,24(sp)
 10029e8:	dc400515 	stw	r17,20(sp)
 10029ec:	dc000415 	stw	r16,16(sp)
 10029f0:	15c07a16 	blt	r2,r23,1002bdc <quorem+0x220>
 10029f4:	bdffffc4 	addi	r23,r23,-1
 10029f8:	bde9883a 	add	r20,r23,r23
 10029fc:	28c00504 	addi	r3,r5,20
 1002a00:	a529883a 	add	r20,r20,r20
 1002a04:	1d39883a 	add	fp,r3,r20
 1002a08:	24c00504 	addi	r19,r4,20
 1002a0c:	d9400215 	stw	r5,8(sp)
 1002a10:	9d29883a 	add	r20,r19,r20
 1002a14:	e1400017 	ldw	r5,0(fp)
 1002a18:	d9000015 	stw	r4,0(sp)
 1002a1c:	a1000017 	ldw	r4,0(r20)
 1002a20:	29400044 	addi	r5,r5,1
 1002a24:	d8c00115 	stw	r3,4(sp)
 1002a28:	dd000315 	stw	r20,12(sp)
 1002a2c:	100a8940 	call	100a894 <__udivsi3>
 1002a30:	1025883a 	mov	r18,r2
 1002a34:	10003026 	beq	r2,zero,1002af8 <quorem+0x13c>
 1002a38:	dc400117 	ldw	r17,4(sp)
 1002a3c:	9829883a 	mov	r20,r19
 1002a40:	002d883a 	mov	r22,zero
 1002a44:	0021883a 	mov	r16,zero
 1002a48:	8d400017 	ldw	r21,0(r17)
 1002a4c:	900b883a 	mov	r5,r18
 1002a50:	8c400104 	addi	r17,r17,4
 1002a54:	a93fffcc 	andi	r4,r21,65535
 1002a58:	100a9500 	call	100a950 <__mulsi3>
 1002a5c:	a808d43a 	srli	r4,r21,16
 1002a60:	900b883a 	mov	r5,r18
 1002a64:	15ad883a 	add	r22,r2,r22
 1002a68:	100a9500 	call	100a950 <__mulsi3>
 1002a6c:	a1000017 	ldw	r4,0(r20)
 1002a70:	b00cd43a 	srli	r6,r22,16
 1002a74:	b0ffffcc 	andi	r3,r22,65535
 1002a78:	217fffcc 	andi	r5,r4,65535
 1002a7c:	2c21883a 	add	r16,r5,r16
 1002a80:	80c7c83a 	sub	r3,r16,r3
 1002a84:	2008d43a 	srli	r4,r4,16
 1002a88:	1185883a 	add	r2,r2,r6
 1002a8c:	1821d43a 	srai	r16,r3,16
 1002a90:	117fffcc 	andi	r5,r2,65535
 1002a94:	2149c83a 	sub	r4,r4,r5
 1002a98:	2421883a 	add	r16,r4,r16
 1002a9c:	8008943a 	slli	r4,r16,16
 1002aa0:	18ffffcc 	andi	r3,r3,65535
 1002aa4:	102cd43a 	srli	r22,r2,16
 1002aa8:	20c8b03a 	or	r4,r4,r3
 1002aac:	a1000015 	stw	r4,0(r20)
 1002ab0:	8021d43a 	srai	r16,r16,16
 1002ab4:	a5000104 	addi	r20,r20,4
 1002ab8:	e47fe32e 	bgeu	fp,r17,1002a48 <__alt_mem_epcs+0xff001a48>
 1002abc:	d8c00317 	ldw	r3,12(sp)
 1002ac0:	18800017 	ldw	r2,0(r3)
 1002ac4:	10000c1e 	bne	r2,zero,1002af8 <quorem+0x13c>
 1002ac8:	18bfff04 	addi	r2,r3,-4
 1002acc:	9880082e 	bgeu	r19,r2,1002af0 <quorem+0x134>
 1002ad0:	18ffff17 	ldw	r3,-4(r3)
 1002ad4:	18000326 	beq	r3,zero,1002ae4 <quorem+0x128>
 1002ad8:	00000506 	br	1002af0 <quorem+0x134>
 1002adc:	10c00017 	ldw	r3,0(r2)
 1002ae0:	1800031e 	bne	r3,zero,1002af0 <quorem+0x134>
 1002ae4:	10bfff04 	addi	r2,r2,-4
 1002ae8:	bdffffc4 	addi	r23,r23,-1
 1002aec:	98bffb36 	bltu	r19,r2,1002adc <__alt_mem_epcs+0xff001adc>
 1002af0:	d8c00017 	ldw	r3,0(sp)
 1002af4:	1dc00415 	stw	r23,16(r3)
 1002af8:	d9400217 	ldw	r5,8(sp)
 1002afc:	d9000017 	ldw	r4,0(sp)
 1002b00:	1006c200 	call	1006c20 <__mcmp>
 1002b04:	10002816 	blt	r2,zero,1002ba8 <quorem+0x1ec>
 1002b08:	dc400117 	ldw	r17,4(sp)
 1002b0c:	94800044 	addi	r18,r18,1
 1002b10:	980d883a 	mov	r6,r19
 1002b14:	0007883a 	mov	r3,zero
 1002b18:	31000017 	ldw	r4,0(r6)
 1002b1c:	89400017 	ldw	r5,0(r17)
 1002b20:	31800104 	addi	r6,r6,4
 1002b24:	20bfffcc 	andi	r2,r4,65535
 1002b28:	10c7883a 	add	r3,r2,r3
 1002b2c:	28bfffcc 	andi	r2,r5,65535
 1002b30:	1885c83a 	sub	r2,r3,r2
 1002b34:	280ad43a 	srli	r5,r5,16
 1002b38:	2008d43a 	srli	r4,r4,16
 1002b3c:	1007d43a 	srai	r3,r2,16
 1002b40:	10bfffcc 	andi	r2,r2,65535
 1002b44:	2149c83a 	sub	r4,r4,r5
 1002b48:	20c9883a 	add	r4,r4,r3
 1002b4c:	200a943a 	slli	r5,r4,16
 1002b50:	8c400104 	addi	r17,r17,4
 1002b54:	2007d43a 	srai	r3,r4,16
 1002b58:	2884b03a 	or	r2,r5,r2
 1002b5c:	30bfff15 	stw	r2,-4(r6)
 1002b60:	e47fed2e 	bgeu	fp,r17,1002b18 <__alt_mem_epcs+0xff001b18>
 1002b64:	bdc5883a 	add	r2,r23,r23
 1002b68:	1085883a 	add	r2,r2,r2
 1002b6c:	9887883a 	add	r3,r19,r2
 1002b70:	18800017 	ldw	r2,0(r3)
 1002b74:	10000c1e 	bne	r2,zero,1002ba8 <quorem+0x1ec>
 1002b78:	18bfff04 	addi	r2,r3,-4
 1002b7c:	9880082e 	bgeu	r19,r2,1002ba0 <quorem+0x1e4>
 1002b80:	18ffff17 	ldw	r3,-4(r3)
 1002b84:	18000326 	beq	r3,zero,1002b94 <quorem+0x1d8>
 1002b88:	00000506 	br	1002ba0 <quorem+0x1e4>
 1002b8c:	10c00017 	ldw	r3,0(r2)
 1002b90:	1800031e 	bne	r3,zero,1002ba0 <quorem+0x1e4>
 1002b94:	10bfff04 	addi	r2,r2,-4
 1002b98:	bdffffc4 	addi	r23,r23,-1
 1002b9c:	98bffb36 	bltu	r19,r2,1002b8c <__alt_mem_epcs+0xff001b8c>
 1002ba0:	d8c00017 	ldw	r3,0(sp)
 1002ba4:	1dc00415 	stw	r23,16(r3)
 1002ba8:	9005883a 	mov	r2,r18
 1002bac:	dfc00d17 	ldw	ra,52(sp)
 1002bb0:	df000c17 	ldw	fp,48(sp)
 1002bb4:	ddc00b17 	ldw	r23,44(sp)
 1002bb8:	dd800a17 	ldw	r22,40(sp)
 1002bbc:	dd400917 	ldw	r21,36(sp)
 1002bc0:	dd000817 	ldw	r20,32(sp)
 1002bc4:	dcc00717 	ldw	r19,28(sp)
 1002bc8:	dc800617 	ldw	r18,24(sp)
 1002bcc:	dc400517 	ldw	r17,20(sp)
 1002bd0:	dc000417 	ldw	r16,16(sp)
 1002bd4:	dec00e04 	addi	sp,sp,56
 1002bd8:	f800283a 	ret
 1002bdc:	0005883a 	mov	r2,zero
 1002be0:	003ff206 	br	1002bac <__alt_mem_epcs+0xff001bac>

01002be4 <_dtoa_r>:
 1002be4:	20801017 	ldw	r2,64(r4)
 1002be8:	deffde04 	addi	sp,sp,-136
 1002bec:	df002015 	stw	fp,128(sp)
 1002bf0:	dcc01b15 	stw	r19,108(sp)
 1002bf4:	dc801a15 	stw	r18,104(sp)
 1002bf8:	dc401915 	stw	r17,100(sp)
 1002bfc:	dc001815 	stw	r16,96(sp)
 1002c00:	dfc02115 	stw	ra,132(sp)
 1002c04:	ddc01f15 	stw	r23,124(sp)
 1002c08:	dd801e15 	stw	r22,120(sp)
 1002c0c:	dd401d15 	stw	r21,116(sp)
 1002c10:	dd001c15 	stw	r20,112(sp)
 1002c14:	d9c00315 	stw	r7,12(sp)
 1002c18:	2039883a 	mov	fp,r4
 1002c1c:	3023883a 	mov	r17,r6
 1002c20:	2825883a 	mov	r18,r5
 1002c24:	dc002417 	ldw	r16,144(sp)
 1002c28:	3027883a 	mov	r19,r6
 1002c2c:	10000826 	beq	r2,zero,1002c50 <_dtoa_r+0x6c>
 1002c30:	21801117 	ldw	r6,68(r4)
 1002c34:	00c00044 	movi	r3,1
 1002c38:	100b883a 	mov	r5,r2
 1002c3c:	1986983a 	sll	r3,r3,r6
 1002c40:	11800115 	stw	r6,4(r2)
 1002c44:	10c00215 	stw	r3,8(r2)
 1002c48:	10063440 	call	1006344 <_Bfree>
 1002c4c:	e0001015 	stw	zero,64(fp)
 1002c50:	88002e16 	blt	r17,zero,1002d0c <_dtoa_r+0x128>
 1002c54:	80000015 	stw	zero,0(r16)
 1002c58:	889ffc2c 	andhi	r2,r17,32752
 1002c5c:	00dffc34 	movhi	r3,32752
 1002c60:	10c01c26 	beq	r2,r3,1002cd4 <_dtoa_r+0xf0>
 1002c64:	000d883a 	mov	r6,zero
 1002c68:	000f883a 	mov	r7,zero
 1002c6c:	9009883a 	mov	r4,r18
 1002c70:	980b883a 	mov	r5,r19
 1002c74:	100bbf40 	call	100bbf4 <__eqdf2>
 1002c78:	10002b1e 	bne	r2,zero,1002d28 <_dtoa_r+0x144>
 1002c7c:	d9c02317 	ldw	r7,140(sp)
 1002c80:	00800044 	movi	r2,1
 1002c84:	38800015 	stw	r2,0(r7)
 1002c88:	d8802517 	ldw	r2,148(sp)
 1002c8c:	10019e26 	beq	r2,zero,1003308 <_dtoa_r+0x724>
 1002c90:	d8c02517 	ldw	r3,148(sp)
 1002c94:	00804074 	movhi	r2,257
 1002c98:	1085a244 	addi	r2,r2,5769
 1002c9c:	18800015 	stw	r2,0(r3)
 1002ca0:	10bfffc4 	addi	r2,r2,-1
 1002ca4:	dfc02117 	ldw	ra,132(sp)
 1002ca8:	df002017 	ldw	fp,128(sp)
 1002cac:	ddc01f17 	ldw	r23,124(sp)
 1002cb0:	dd801e17 	ldw	r22,120(sp)
 1002cb4:	dd401d17 	ldw	r21,116(sp)
 1002cb8:	dd001c17 	ldw	r20,112(sp)
 1002cbc:	dcc01b17 	ldw	r19,108(sp)
 1002cc0:	dc801a17 	ldw	r18,104(sp)
 1002cc4:	dc401917 	ldw	r17,100(sp)
 1002cc8:	dc001817 	ldw	r16,96(sp)
 1002ccc:	dec02204 	addi	sp,sp,136
 1002cd0:	f800283a 	ret
 1002cd4:	d8c02317 	ldw	r3,140(sp)
 1002cd8:	0089c3c4 	movi	r2,9999
 1002cdc:	18800015 	stw	r2,0(r3)
 1002ce0:	90017726 	beq	r18,zero,10032c0 <_dtoa_r+0x6dc>
 1002ce4:	00804074 	movhi	r2,257
 1002ce8:	1085ae04 	addi	r2,r2,5816
 1002cec:	d9002517 	ldw	r4,148(sp)
 1002cf0:	203fec26 	beq	r4,zero,1002ca4 <__alt_mem_epcs+0xff001ca4>
 1002cf4:	10c000c7 	ldb	r3,3(r2)
 1002cf8:	1801781e 	bne	r3,zero,10032dc <_dtoa_r+0x6f8>
 1002cfc:	10c000c4 	addi	r3,r2,3
 1002d00:	d9802517 	ldw	r6,148(sp)
 1002d04:	30c00015 	stw	r3,0(r6)
 1002d08:	003fe606 	br	1002ca4 <__alt_mem_epcs+0xff001ca4>
 1002d0c:	04e00034 	movhi	r19,32768
 1002d10:	9cffffc4 	addi	r19,r19,-1
 1002d14:	00800044 	movi	r2,1
 1002d18:	8ce6703a 	and	r19,r17,r19
 1002d1c:	80800015 	stw	r2,0(r16)
 1002d20:	9823883a 	mov	r17,r19
 1002d24:	003fcc06 	br	1002c58 <__alt_mem_epcs+0xff001c58>
 1002d28:	d8800204 	addi	r2,sp,8
 1002d2c:	d8800015 	stw	r2,0(sp)
 1002d30:	d9c00104 	addi	r7,sp,4
 1002d34:	900b883a 	mov	r5,r18
 1002d38:	980d883a 	mov	r6,r19
 1002d3c:	e009883a 	mov	r4,fp
 1002d40:	8820d53a 	srli	r16,r17,20
 1002d44:	1006fec0 	call	1006fec <__d2b>
 1002d48:	d8800915 	stw	r2,36(sp)
 1002d4c:	8001651e 	bne	r16,zero,10032e4 <_dtoa_r+0x700>
 1002d50:	dd800217 	ldw	r22,8(sp)
 1002d54:	dc000117 	ldw	r16,4(sp)
 1002d58:	00800804 	movi	r2,32
 1002d5c:	b421883a 	add	r16,r22,r16
 1002d60:	80c10c84 	addi	r3,r16,1074
 1002d64:	10c2d10e 	bge	r2,r3,10038ac <_dtoa_r+0xcc8>
 1002d68:	00801004 	movi	r2,64
 1002d6c:	81010484 	addi	r4,r16,1042
 1002d70:	10c7c83a 	sub	r3,r2,r3
 1002d74:	9108d83a 	srl	r4,r18,r4
 1002d78:	88e2983a 	sll	r17,r17,r3
 1002d7c:	2448b03a 	or	r4,r4,r17
 1002d80:	100d1100 	call	100d110 <__floatunsidf>
 1002d84:	017f8434 	movhi	r5,65040
 1002d88:	01800044 	movi	r6,1
 1002d8c:	1009883a 	mov	r4,r2
 1002d90:	194b883a 	add	r5,r3,r5
 1002d94:	843fffc4 	addi	r16,r16,-1
 1002d98:	d9801115 	stw	r6,68(sp)
 1002d9c:	000d883a 	mov	r6,zero
 1002da0:	01cffe34 	movhi	r7,16376
 1002da4:	100c6b80 	call	100c6b8 <__subdf3>
 1002da8:	0198dbf4 	movhi	r6,25455
 1002dac:	01cff4f4 	movhi	r7,16339
 1002db0:	3190d844 	addi	r6,r6,17249
 1002db4:	39e1e9c4 	addi	r7,r7,-30809
 1002db8:	1009883a 	mov	r4,r2
 1002dbc:	180b883a 	mov	r5,r3
 1002dc0:	100be4c0 	call	100be4c <__muldf3>
 1002dc4:	01a2d874 	movhi	r6,35681
 1002dc8:	01cff1f4 	movhi	r7,16327
 1002dcc:	31b22cc4 	addi	r6,r6,-14157
 1002dd0:	39e28a04 	addi	r7,r7,-30168
 1002dd4:	180b883a 	mov	r5,r3
 1002dd8:	1009883a 	mov	r4,r2
 1002ddc:	100a9780 	call	100a978 <__adddf3>
 1002de0:	8009883a 	mov	r4,r16
 1002de4:	1029883a 	mov	r20,r2
 1002de8:	1823883a 	mov	r17,r3
 1002dec:	100d0340 	call	100d034 <__floatsidf>
 1002df0:	019427f4 	movhi	r6,20639
 1002df4:	01cff4f4 	movhi	r7,16339
 1002df8:	319e7ec4 	addi	r6,r6,31227
 1002dfc:	39d104c4 	addi	r7,r7,17427
 1002e00:	1009883a 	mov	r4,r2
 1002e04:	180b883a 	mov	r5,r3
 1002e08:	100be4c0 	call	100be4c <__muldf3>
 1002e0c:	100d883a 	mov	r6,r2
 1002e10:	180f883a 	mov	r7,r3
 1002e14:	a009883a 	mov	r4,r20
 1002e18:	880b883a 	mov	r5,r17
 1002e1c:	100a9780 	call	100a978 <__adddf3>
 1002e20:	1009883a 	mov	r4,r2
 1002e24:	180b883a 	mov	r5,r3
 1002e28:	1029883a 	mov	r20,r2
 1002e2c:	1823883a 	mov	r17,r3
 1002e30:	100cfb40 	call	100cfb4 <__fixdfsi>
 1002e34:	000d883a 	mov	r6,zero
 1002e38:	000f883a 	mov	r7,zero
 1002e3c:	a009883a 	mov	r4,r20
 1002e40:	880b883a 	mov	r5,r17
 1002e44:	d8800515 	stw	r2,20(sp)
 1002e48:	100bd580 	call	100bd58 <__ledf2>
 1002e4c:	10028716 	blt	r2,zero,100386c <_dtoa_r+0xc88>
 1002e50:	d8c00517 	ldw	r3,20(sp)
 1002e54:	00800584 	movi	r2,22
 1002e58:	10c27536 	bltu	r2,r3,1003830 <_dtoa_r+0xc4c>
 1002e5c:	180490fa 	slli	r2,r3,3
 1002e60:	00c04074 	movhi	r3,257
 1002e64:	18c5ca04 	addi	r3,r3,5928
 1002e68:	1885883a 	add	r2,r3,r2
 1002e6c:	11000017 	ldw	r4,0(r2)
 1002e70:	11400117 	ldw	r5,4(r2)
 1002e74:	900d883a 	mov	r6,r18
 1002e78:	980f883a 	mov	r7,r19
 1002e7c:	100bc7c0 	call	100bc7c <__gedf2>
 1002e80:	00828d0e 	bge	zero,r2,10038b8 <_dtoa_r+0xcd4>
 1002e84:	d9000517 	ldw	r4,20(sp)
 1002e88:	d8000e15 	stw	zero,56(sp)
 1002e8c:	213fffc4 	addi	r4,r4,-1
 1002e90:	d9000515 	stw	r4,20(sp)
 1002e94:	b42dc83a 	sub	r22,r22,r16
 1002e98:	b5bfffc4 	addi	r22,r22,-1
 1002e9c:	b0026f16 	blt	r22,zero,100385c <_dtoa_r+0xc78>
 1002ea0:	d8000815 	stw	zero,32(sp)
 1002ea4:	d9c00517 	ldw	r7,20(sp)
 1002ea8:	38026416 	blt	r7,zero,100383c <_dtoa_r+0xc58>
 1002eac:	b1ed883a 	add	r22,r22,r7
 1002eb0:	d9c00d15 	stw	r7,52(sp)
 1002eb4:	d8000a15 	stw	zero,40(sp)
 1002eb8:	d9800317 	ldw	r6,12(sp)
 1002ebc:	00800244 	movi	r2,9
 1002ec0:	11811436 	bltu	r2,r6,1003314 <_dtoa_r+0x730>
 1002ec4:	00800144 	movi	r2,5
 1002ec8:	1184e10e 	bge	r2,r6,1004250 <_dtoa_r+0x166c>
 1002ecc:	31bfff04 	addi	r6,r6,-4
 1002ed0:	d9800315 	stw	r6,12(sp)
 1002ed4:	0023883a 	mov	r17,zero
 1002ed8:	d9800317 	ldw	r6,12(sp)
 1002edc:	008000c4 	movi	r2,3
 1002ee0:	30836726 	beq	r6,r2,1003c80 <_dtoa_r+0x109c>
 1002ee4:	1183410e 	bge	r2,r6,1003bec <_dtoa_r+0x1008>
 1002ee8:	d9c00317 	ldw	r7,12(sp)
 1002eec:	00800104 	movi	r2,4
 1002ef0:	38827c26 	beq	r7,r2,10038e4 <_dtoa_r+0xd00>
 1002ef4:	00800144 	movi	r2,5
 1002ef8:	3884c41e 	bne	r7,r2,100420c <_dtoa_r+0x1628>
 1002efc:	00800044 	movi	r2,1
 1002f00:	d8800b15 	stw	r2,44(sp)
 1002f04:	d8c00517 	ldw	r3,20(sp)
 1002f08:	d9002217 	ldw	r4,136(sp)
 1002f0c:	1907883a 	add	r3,r3,r4
 1002f10:	19800044 	addi	r6,r3,1
 1002f14:	d8c00c15 	stw	r3,48(sp)
 1002f18:	d9800615 	stw	r6,24(sp)
 1002f1c:	0183a40e 	bge	zero,r6,1003db0 <_dtoa_r+0x11cc>
 1002f20:	d9800617 	ldw	r6,24(sp)
 1002f24:	3021883a 	mov	r16,r6
 1002f28:	e0001115 	stw	zero,68(fp)
 1002f2c:	008005c4 	movi	r2,23
 1002f30:	1184c92e 	bgeu	r2,r6,1004258 <_dtoa_r+0x1674>
 1002f34:	00c00044 	movi	r3,1
 1002f38:	00800104 	movi	r2,4
 1002f3c:	1085883a 	add	r2,r2,r2
 1002f40:	11000504 	addi	r4,r2,20
 1002f44:	180b883a 	mov	r5,r3
 1002f48:	18c00044 	addi	r3,r3,1
 1002f4c:	313ffb2e 	bgeu	r6,r4,1002f3c <__alt_mem_epcs+0xff001f3c>
 1002f50:	e1401115 	stw	r5,68(fp)
 1002f54:	e009883a 	mov	r4,fp
 1002f58:	100629c0 	call	100629c <_Balloc>
 1002f5c:	d8800715 	stw	r2,28(sp)
 1002f60:	e0801015 	stw	r2,64(fp)
 1002f64:	00800384 	movi	r2,14
 1002f68:	1400f736 	bltu	r2,r16,1003348 <_dtoa_r+0x764>
 1002f6c:	8800f626 	beq	r17,zero,1003348 <_dtoa_r+0x764>
 1002f70:	d9c00517 	ldw	r7,20(sp)
 1002f74:	01c39a0e 	bge	zero,r7,1003de0 <_dtoa_r+0x11fc>
 1002f78:	388003cc 	andi	r2,r7,15
 1002f7c:	100490fa 	slli	r2,r2,3
 1002f80:	382bd13a 	srai	r21,r7,4
 1002f84:	00c04074 	movhi	r3,257
 1002f88:	18c5ca04 	addi	r3,r3,5928
 1002f8c:	1885883a 	add	r2,r3,r2
 1002f90:	a8c0040c 	andi	r3,r21,16
 1002f94:	12400017 	ldw	r9,0(r2)
 1002f98:	12000117 	ldw	r8,4(r2)
 1002f9c:	18037926 	beq	r3,zero,1003d84 <_dtoa_r+0x11a0>
 1002fa0:	00804074 	movhi	r2,257
 1002fa4:	1085c004 	addi	r2,r2,5888
 1002fa8:	11800817 	ldw	r6,32(r2)
 1002fac:	11c00917 	ldw	r7,36(r2)
 1002fb0:	9009883a 	mov	r4,r18
 1002fb4:	980b883a 	mov	r5,r19
 1002fb8:	da001715 	stw	r8,92(sp)
 1002fbc:	da401615 	stw	r9,88(sp)
 1002fc0:	100b2240 	call	100b224 <__divdf3>
 1002fc4:	da001717 	ldw	r8,92(sp)
 1002fc8:	da401617 	ldw	r9,88(sp)
 1002fcc:	ad4003cc 	andi	r21,r21,15
 1002fd0:	040000c4 	movi	r16,3
 1002fd4:	1023883a 	mov	r17,r2
 1002fd8:	1829883a 	mov	r20,r3
 1002fdc:	a8001126 	beq	r21,zero,1003024 <_dtoa_r+0x440>
 1002fe0:	05c04074 	movhi	r23,257
 1002fe4:	bdc5c004 	addi	r23,r23,5888
 1002fe8:	4805883a 	mov	r2,r9
 1002fec:	4007883a 	mov	r3,r8
 1002ff0:	a980004c 	andi	r6,r21,1
 1002ff4:	1009883a 	mov	r4,r2
 1002ff8:	a82bd07a 	srai	r21,r21,1
 1002ffc:	180b883a 	mov	r5,r3
 1003000:	30000426 	beq	r6,zero,1003014 <_dtoa_r+0x430>
 1003004:	b9800017 	ldw	r6,0(r23)
 1003008:	b9c00117 	ldw	r7,4(r23)
 100300c:	84000044 	addi	r16,r16,1
 1003010:	100be4c0 	call	100be4c <__muldf3>
 1003014:	bdc00204 	addi	r23,r23,8
 1003018:	a83ff51e 	bne	r21,zero,1002ff0 <__alt_mem_epcs+0xff001ff0>
 100301c:	1013883a 	mov	r9,r2
 1003020:	1811883a 	mov	r8,r3
 1003024:	480d883a 	mov	r6,r9
 1003028:	400f883a 	mov	r7,r8
 100302c:	8809883a 	mov	r4,r17
 1003030:	a00b883a 	mov	r5,r20
 1003034:	100b2240 	call	100b224 <__divdf3>
 1003038:	d8800f15 	stw	r2,60(sp)
 100303c:	d8c01015 	stw	r3,64(sp)
 1003040:	d8c00e17 	ldw	r3,56(sp)
 1003044:	18000626 	beq	r3,zero,1003060 <_dtoa_r+0x47c>
 1003048:	d9000f17 	ldw	r4,60(sp)
 100304c:	d9401017 	ldw	r5,64(sp)
 1003050:	000d883a 	mov	r6,zero
 1003054:	01cffc34 	movhi	r7,16368
 1003058:	100bd580 	call	100bd58 <__ledf2>
 100305c:	10040b16 	blt	r2,zero,100408c <_dtoa_r+0x14a8>
 1003060:	8009883a 	mov	r4,r16
 1003064:	100d0340 	call	100d034 <__floatsidf>
 1003068:	d9800f17 	ldw	r6,60(sp)
 100306c:	d9c01017 	ldw	r7,64(sp)
 1003070:	1009883a 	mov	r4,r2
 1003074:	180b883a 	mov	r5,r3
 1003078:	100be4c0 	call	100be4c <__muldf3>
 100307c:	000d883a 	mov	r6,zero
 1003080:	01d00734 	movhi	r7,16412
 1003084:	1009883a 	mov	r4,r2
 1003088:	180b883a 	mov	r5,r3
 100308c:	100a9780 	call	100a978 <__adddf3>
 1003090:	1021883a 	mov	r16,r2
 1003094:	d8800617 	ldw	r2,24(sp)
 1003098:	047f3034 	movhi	r17,64704
 100309c:	1c63883a 	add	r17,r3,r17
 10030a0:	10031826 	beq	r2,zero,1003d04 <_dtoa_r+0x1120>
 10030a4:	d8c00517 	ldw	r3,20(sp)
 10030a8:	db000617 	ldw	r12,24(sp)
 10030ac:	d8c01315 	stw	r3,76(sp)
 10030b0:	d9000b17 	ldw	r4,44(sp)
 10030b4:	20038f26 	beq	r4,zero,1003ef4 <_dtoa_r+0x1310>
 10030b8:	60bfffc4 	addi	r2,r12,-1
 10030bc:	100490fa 	slli	r2,r2,3
 10030c0:	00c04074 	movhi	r3,257
 10030c4:	18c5ca04 	addi	r3,r3,5928
 10030c8:	1885883a 	add	r2,r3,r2
 10030cc:	11800017 	ldw	r6,0(r2)
 10030d0:	11c00117 	ldw	r7,4(r2)
 10030d4:	d8800717 	ldw	r2,28(sp)
 10030d8:	0009883a 	mov	r4,zero
 10030dc:	014ff834 	movhi	r5,16352
 10030e0:	db001615 	stw	r12,88(sp)
 10030e4:	15c00044 	addi	r23,r2,1
 10030e8:	100b2240 	call	100b224 <__divdf3>
 10030ec:	800d883a 	mov	r6,r16
 10030f0:	880f883a 	mov	r7,r17
 10030f4:	1009883a 	mov	r4,r2
 10030f8:	180b883a 	mov	r5,r3
 10030fc:	100c6b80 	call	100c6b8 <__subdf3>
 1003100:	d9401017 	ldw	r5,64(sp)
 1003104:	d9000f17 	ldw	r4,60(sp)
 1003108:	102b883a 	mov	r21,r2
 100310c:	d8c01215 	stw	r3,72(sp)
 1003110:	100cfb40 	call	100cfb4 <__fixdfsi>
 1003114:	1009883a 	mov	r4,r2
 1003118:	1029883a 	mov	r20,r2
 100311c:	100d0340 	call	100d034 <__floatsidf>
 1003120:	d9000f17 	ldw	r4,60(sp)
 1003124:	d9401017 	ldw	r5,64(sp)
 1003128:	100d883a 	mov	r6,r2
 100312c:	180f883a 	mov	r7,r3
 1003130:	100c6b80 	call	100c6b8 <__subdf3>
 1003134:	1823883a 	mov	r17,r3
 1003138:	d8c00717 	ldw	r3,28(sp)
 100313c:	d9401217 	ldw	r5,72(sp)
 1003140:	a2000c04 	addi	r8,r20,48
 1003144:	1021883a 	mov	r16,r2
 1003148:	1a000005 	stb	r8,0(r3)
 100314c:	800d883a 	mov	r6,r16
 1003150:	880f883a 	mov	r7,r17
 1003154:	a809883a 	mov	r4,r21
 1003158:	4029883a 	mov	r20,r8
 100315c:	100bc7c0 	call	100bc7c <__gedf2>
 1003160:	00841d16 	blt	zero,r2,10041d8 <_dtoa_r+0x15f4>
 1003164:	800d883a 	mov	r6,r16
 1003168:	880f883a 	mov	r7,r17
 100316c:	0009883a 	mov	r4,zero
 1003170:	014ffc34 	movhi	r5,16368
 1003174:	100c6b80 	call	100c6b8 <__subdf3>
 1003178:	d9401217 	ldw	r5,72(sp)
 100317c:	100d883a 	mov	r6,r2
 1003180:	180f883a 	mov	r7,r3
 1003184:	a809883a 	mov	r4,r21
 1003188:	100bc7c0 	call	100bc7c <__gedf2>
 100318c:	db001617 	ldw	r12,88(sp)
 1003190:	00840e16 	blt	zero,r2,10041cc <_dtoa_r+0x15e8>
 1003194:	00800044 	movi	r2,1
 1003198:	13006b0e 	bge	r2,r12,1003348 <_dtoa_r+0x764>
 100319c:	d9000717 	ldw	r4,28(sp)
 10031a0:	dd800f15 	stw	r22,60(sp)
 10031a4:	dcc01015 	stw	r19,64(sp)
 10031a8:	2319883a 	add	r12,r4,r12
 10031ac:	dcc01217 	ldw	r19,72(sp)
 10031b0:	602d883a 	mov	r22,r12
 10031b4:	dc801215 	stw	r18,72(sp)
 10031b8:	b825883a 	mov	r18,r23
 10031bc:	00000906 	br	10031e4 <_dtoa_r+0x600>
 10031c0:	100c6b80 	call	100c6b8 <__subdf3>
 10031c4:	a80d883a 	mov	r6,r21
 10031c8:	980f883a 	mov	r7,r19
 10031cc:	1009883a 	mov	r4,r2
 10031d0:	180b883a 	mov	r5,r3
 10031d4:	100bd580 	call	100bd58 <__ledf2>
 10031d8:	1003e816 	blt	r2,zero,100417c <_dtoa_r+0x1598>
 10031dc:	b825883a 	mov	r18,r23
 10031e0:	bd83e926 	beq	r23,r22,1004188 <_dtoa_r+0x15a4>
 10031e4:	a809883a 	mov	r4,r21
 10031e8:	980b883a 	mov	r5,r19
 10031ec:	000d883a 	mov	r6,zero
 10031f0:	01d00934 	movhi	r7,16420
 10031f4:	100be4c0 	call	100be4c <__muldf3>
 10031f8:	000d883a 	mov	r6,zero
 10031fc:	01d00934 	movhi	r7,16420
 1003200:	8009883a 	mov	r4,r16
 1003204:	880b883a 	mov	r5,r17
 1003208:	102b883a 	mov	r21,r2
 100320c:	1827883a 	mov	r19,r3
 1003210:	100be4c0 	call	100be4c <__muldf3>
 1003214:	180b883a 	mov	r5,r3
 1003218:	1009883a 	mov	r4,r2
 100321c:	1821883a 	mov	r16,r3
 1003220:	1023883a 	mov	r17,r2
 1003224:	100cfb40 	call	100cfb4 <__fixdfsi>
 1003228:	1009883a 	mov	r4,r2
 100322c:	1029883a 	mov	r20,r2
 1003230:	100d0340 	call	100d034 <__floatsidf>
 1003234:	8809883a 	mov	r4,r17
 1003238:	800b883a 	mov	r5,r16
 100323c:	100d883a 	mov	r6,r2
 1003240:	180f883a 	mov	r7,r3
 1003244:	100c6b80 	call	100c6b8 <__subdf3>
 1003248:	a5000c04 	addi	r20,r20,48
 100324c:	a80d883a 	mov	r6,r21
 1003250:	980f883a 	mov	r7,r19
 1003254:	1009883a 	mov	r4,r2
 1003258:	180b883a 	mov	r5,r3
 100325c:	95000005 	stb	r20,0(r18)
 1003260:	1021883a 	mov	r16,r2
 1003264:	1823883a 	mov	r17,r3
 1003268:	100bd580 	call	100bd58 <__ledf2>
 100326c:	bdc00044 	addi	r23,r23,1
 1003270:	800d883a 	mov	r6,r16
 1003274:	880f883a 	mov	r7,r17
 1003278:	0009883a 	mov	r4,zero
 100327c:	014ffc34 	movhi	r5,16368
 1003280:	103fcf0e 	bge	r2,zero,10031c0 <__alt_mem_epcs+0xff0021c0>
 1003284:	d8c01317 	ldw	r3,76(sp)
 1003288:	d8c00515 	stw	r3,20(sp)
 100328c:	d9400917 	ldw	r5,36(sp)
 1003290:	e009883a 	mov	r4,fp
 1003294:	10063440 	call	1006344 <_Bfree>
 1003298:	d9000517 	ldw	r4,20(sp)
 100329c:	d9802317 	ldw	r6,140(sp)
 10032a0:	d9c02517 	ldw	r7,148(sp)
 10032a4:	b8000005 	stb	zero,0(r23)
 10032a8:	20800044 	addi	r2,r4,1
 10032ac:	30800015 	stw	r2,0(r6)
 10032b0:	3802aa26 	beq	r7,zero,1003d5c <_dtoa_r+0x1178>
 10032b4:	3dc00015 	stw	r23,0(r7)
 10032b8:	d8800717 	ldw	r2,28(sp)
 10032bc:	003e7906 	br	1002ca4 <__alt_mem_epcs+0xff001ca4>
 10032c0:	00800434 	movhi	r2,16
 10032c4:	10bfffc4 	addi	r2,r2,-1
 10032c8:	88a2703a 	and	r17,r17,r2
 10032cc:	883e851e 	bne	r17,zero,1002ce4 <__alt_mem_epcs+0xff001ce4>
 10032d0:	00804074 	movhi	r2,257
 10032d4:	1085ab04 	addi	r2,r2,5804
 10032d8:	003e8406 	br	1002cec <__alt_mem_epcs+0xff001cec>
 10032dc:	10c00204 	addi	r3,r2,8
 10032e0:	003e8706 	br	1002d00 <__alt_mem_epcs+0xff001d00>
 10032e4:	01400434 	movhi	r5,16
 10032e8:	297fffc4 	addi	r5,r5,-1
 10032ec:	994a703a 	and	r5,r19,r5
 10032f0:	9009883a 	mov	r4,r18
 10032f4:	843f0044 	addi	r16,r16,-1023
 10032f8:	294ffc34 	orhi	r5,r5,16368
 10032fc:	dd800217 	ldw	r22,8(sp)
 1003300:	d8001115 	stw	zero,68(sp)
 1003304:	003ea506 	br	1002d9c <__alt_mem_epcs+0xff001d9c>
 1003308:	00804074 	movhi	r2,257
 100330c:	1085a204 	addi	r2,r2,5768
 1003310:	003e6406 	br	1002ca4 <__alt_mem_epcs+0xff001ca4>
 1003314:	e0001115 	stw	zero,68(fp)
 1003318:	000b883a 	mov	r5,zero
 100331c:	e009883a 	mov	r4,fp
 1003320:	100629c0 	call	100629c <_Balloc>
 1003324:	01bfffc4 	movi	r6,-1
 1003328:	01c00044 	movi	r7,1
 100332c:	d8800715 	stw	r2,28(sp)
 1003330:	d9800c15 	stw	r6,48(sp)
 1003334:	e0801015 	stw	r2,64(fp)
 1003338:	d8000315 	stw	zero,12(sp)
 100333c:	d9c00b15 	stw	r7,44(sp)
 1003340:	d9800615 	stw	r6,24(sp)
 1003344:	d8002215 	stw	zero,136(sp)
 1003348:	d8800117 	ldw	r2,4(sp)
 100334c:	10008916 	blt	r2,zero,1003574 <_dtoa_r+0x990>
 1003350:	d9000517 	ldw	r4,20(sp)
 1003354:	00c00384 	movi	r3,14
 1003358:	19008616 	blt	r3,r4,1003574 <_dtoa_r+0x990>
 100335c:	200490fa 	slli	r2,r4,3
 1003360:	00c04074 	movhi	r3,257
 1003364:	d9802217 	ldw	r6,136(sp)
 1003368:	18c5ca04 	addi	r3,r3,5928
 100336c:	1885883a 	add	r2,r3,r2
 1003370:	14000017 	ldw	r16,0(r2)
 1003374:	14400117 	ldw	r17,4(r2)
 1003378:	30016316 	blt	r6,zero,1003908 <_dtoa_r+0xd24>
 100337c:	800d883a 	mov	r6,r16
 1003380:	880f883a 	mov	r7,r17
 1003384:	9009883a 	mov	r4,r18
 1003388:	980b883a 	mov	r5,r19
 100338c:	100b2240 	call	100b224 <__divdf3>
 1003390:	180b883a 	mov	r5,r3
 1003394:	1009883a 	mov	r4,r2
 1003398:	100cfb40 	call	100cfb4 <__fixdfsi>
 100339c:	1009883a 	mov	r4,r2
 10033a0:	102b883a 	mov	r21,r2
 10033a4:	100d0340 	call	100d034 <__floatsidf>
 10033a8:	800d883a 	mov	r6,r16
 10033ac:	880f883a 	mov	r7,r17
 10033b0:	1009883a 	mov	r4,r2
 10033b4:	180b883a 	mov	r5,r3
 10033b8:	100be4c0 	call	100be4c <__muldf3>
 10033bc:	100d883a 	mov	r6,r2
 10033c0:	180f883a 	mov	r7,r3
 10033c4:	9009883a 	mov	r4,r18
 10033c8:	980b883a 	mov	r5,r19
 10033cc:	100c6b80 	call	100c6b8 <__subdf3>
 10033d0:	d9c00717 	ldw	r7,28(sp)
 10033d4:	1009883a 	mov	r4,r2
 10033d8:	a8800c04 	addi	r2,r21,48
 10033dc:	38800005 	stb	r2,0(r7)
 10033e0:	3dc00044 	addi	r23,r7,1
 10033e4:	d9c00617 	ldw	r7,24(sp)
 10033e8:	01800044 	movi	r6,1
 10033ec:	180b883a 	mov	r5,r3
 10033f0:	2005883a 	mov	r2,r4
 10033f4:	39803826 	beq	r7,r6,10034d8 <_dtoa_r+0x8f4>
 10033f8:	000d883a 	mov	r6,zero
 10033fc:	01d00934 	movhi	r7,16420
 1003400:	100be4c0 	call	100be4c <__muldf3>
 1003404:	000d883a 	mov	r6,zero
 1003408:	000f883a 	mov	r7,zero
 100340c:	1009883a 	mov	r4,r2
 1003410:	180b883a 	mov	r5,r3
 1003414:	1025883a 	mov	r18,r2
 1003418:	1827883a 	mov	r19,r3
 100341c:	100bbf40 	call	100bbf4 <__eqdf2>
 1003420:	103f9a26 	beq	r2,zero,100328c <__alt_mem_epcs+0xff00228c>
 1003424:	d9c00617 	ldw	r7,24(sp)
 1003428:	d8c00717 	ldw	r3,28(sp)
 100342c:	b829883a 	mov	r20,r23
 1003430:	38bfffc4 	addi	r2,r7,-1
 1003434:	18ad883a 	add	r22,r3,r2
 1003438:	00000a06 	br	1003464 <_dtoa_r+0x880>
 100343c:	100be4c0 	call	100be4c <__muldf3>
 1003440:	000d883a 	mov	r6,zero
 1003444:	000f883a 	mov	r7,zero
 1003448:	1009883a 	mov	r4,r2
 100344c:	180b883a 	mov	r5,r3
 1003450:	1025883a 	mov	r18,r2
 1003454:	1827883a 	mov	r19,r3
 1003458:	b829883a 	mov	r20,r23
 100345c:	100bbf40 	call	100bbf4 <__eqdf2>
 1003460:	103f8a26 	beq	r2,zero,100328c <__alt_mem_epcs+0xff00228c>
 1003464:	800d883a 	mov	r6,r16
 1003468:	880f883a 	mov	r7,r17
 100346c:	9009883a 	mov	r4,r18
 1003470:	980b883a 	mov	r5,r19
 1003474:	100b2240 	call	100b224 <__divdf3>
 1003478:	180b883a 	mov	r5,r3
 100347c:	1009883a 	mov	r4,r2
 1003480:	100cfb40 	call	100cfb4 <__fixdfsi>
 1003484:	1009883a 	mov	r4,r2
 1003488:	102b883a 	mov	r21,r2
 100348c:	100d0340 	call	100d034 <__floatsidf>
 1003490:	800d883a 	mov	r6,r16
 1003494:	880f883a 	mov	r7,r17
 1003498:	1009883a 	mov	r4,r2
 100349c:	180b883a 	mov	r5,r3
 10034a0:	100be4c0 	call	100be4c <__muldf3>
 10034a4:	100d883a 	mov	r6,r2
 10034a8:	180f883a 	mov	r7,r3
 10034ac:	9009883a 	mov	r4,r18
 10034b0:	980b883a 	mov	r5,r19
 10034b4:	100c6b80 	call	100c6b8 <__subdf3>
 10034b8:	aa000c04 	addi	r8,r21,48
 10034bc:	a2000005 	stb	r8,0(r20)
 10034c0:	000d883a 	mov	r6,zero
 10034c4:	01d00934 	movhi	r7,16420
 10034c8:	1009883a 	mov	r4,r2
 10034cc:	180b883a 	mov	r5,r3
 10034d0:	a5c00044 	addi	r23,r20,1
 10034d4:	b53fd91e 	bne	r22,r20,100343c <__alt_mem_epcs+0xff00243c>
 10034d8:	100d883a 	mov	r6,r2
 10034dc:	180f883a 	mov	r7,r3
 10034e0:	1009883a 	mov	r4,r2
 10034e4:	180b883a 	mov	r5,r3
 10034e8:	100a9780 	call	100a978 <__adddf3>
 10034ec:	100d883a 	mov	r6,r2
 10034f0:	180f883a 	mov	r7,r3
 10034f4:	8009883a 	mov	r4,r16
 10034f8:	880b883a 	mov	r5,r17
 10034fc:	1027883a 	mov	r19,r2
 1003500:	1825883a 	mov	r18,r3
 1003504:	100bd580 	call	100bd58 <__ledf2>
 1003508:	10000816 	blt	r2,zero,100352c <_dtoa_r+0x948>
 100350c:	980d883a 	mov	r6,r19
 1003510:	900f883a 	mov	r7,r18
 1003514:	8009883a 	mov	r4,r16
 1003518:	880b883a 	mov	r5,r17
 100351c:	100bbf40 	call	100bbf4 <__eqdf2>
 1003520:	103f5a1e 	bne	r2,zero,100328c <__alt_mem_epcs+0xff00228c>
 1003524:	ad40004c 	andi	r21,r21,1
 1003528:	a83f5826 	beq	r21,zero,100328c <__alt_mem_epcs+0xff00228c>
 100352c:	bd3fffc3 	ldbu	r20,-1(r23)
 1003530:	b8bfffc4 	addi	r2,r23,-1
 1003534:	1007883a 	mov	r3,r2
 1003538:	01400e44 	movi	r5,57
 100353c:	d9800717 	ldw	r6,28(sp)
 1003540:	00000506 	br	1003558 <_dtoa_r+0x974>
 1003544:	18ffffc4 	addi	r3,r3,-1
 1003548:	11824726 	beq	r2,r6,1003e68 <_dtoa_r+0x1284>
 100354c:	1d000003 	ldbu	r20,0(r3)
 1003550:	102f883a 	mov	r23,r2
 1003554:	10bfffc4 	addi	r2,r2,-1
 1003558:	a1003fcc 	andi	r4,r20,255
 100355c:	2100201c 	xori	r4,r4,128
 1003560:	213fe004 	addi	r4,r4,-128
 1003564:	217ff726 	beq	r4,r5,1003544 <__alt_mem_epcs+0xff002544>
 1003568:	a2000044 	addi	r8,r20,1
 100356c:	12000005 	stb	r8,0(r2)
 1003570:	003f4606 	br	100328c <__alt_mem_epcs+0xff00228c>
 1003574:	d9000b17 	ldw	r4,44(sp)
 1003578:	2000c826 	beq	r4,zero,100389c <_dtoa_r+0xcb8>
 100357c:	d9800317 	ldw	r6,12(sp)
 1003580:	00c00044 	movi	r3,1
 1003584:	1980f90e 	bge	r3,r6,100396c <_dtoa_r+0xd88>
 1003588:	d8800617 	ldw	r2,24(sp)
 100358c:	d8c00a17 	ldw	r3,40(sp)
 1003590:	157fffc4 	addi	r21,r2,-1
 1003594:	1d41f316 	blt	r3,r21,1003d64 <_dtoa_r+0x1180>
 1003598:	1d6bc83a 	sub	r21,r3,r21
 100359c:	d9c00617 	ldw	r7,24(sp)
 10035a0:	3802aa16 	blt	r7,zero,100404c <_dtoa_r+0x1468>
 10035a4:	dd000817 	ldw	r20,32(sp)
 10035a8:	d8800617 	ldw	r2,24(sp)
 10035ac:	d8c00817 	ldw	r3,32(sp)
 10035b0:	01400044 	movi	r5,1
 10035b4:	e009883a 	mov	r4,fp
 10035b8:	1887883a 	add	r3,r3,r2
 10035bc:	d8c00815 	stw	r3,32(sp)
 10035c0:	b0ad883a 	add	r22,r22,r2
 10035c4:	10066d00 	call	10066d0 <__i2b>
 10035c8:	1023883a 	mov	r17,r2
 10035cc:	a0000826 	beq	r20,zero,10035f0 <_dtoa_r+0xa0c>
 10035d0:	0580070e 	bge	zero,r22,10035f0 <_dtoa_r+0xa0c>
 10035d4:	a005883a 	mov	r2,r20
 10035d8:	b500b916 	blt	r22,r20,10038c0 <_dtoa_r+0xcdc>
 10035dc:	d9000817 	ldw	r4,32(sp)
 10035e0:	a0a9c83a 	sub	r20,r20,r2
 10035e4:	b0adc83a 	sub	r22,r22,r2
 10035e8:	2089c83a 	sub	r4,r4,r2
 10035ec:	d9000815 	stw	r4,32(sp)
 10035f0:	d9800a17 	ldw	r6,40(sp)
 10035f4:	0181810e 	bge	zero,r6,1003bfc <_dtoa_r+0x1018>
 10035f8:	d9c00b17 	ldw	r7,44(sp)
 10035fc:	3800b326 	beq	r7,zero,10038cc <_dtoa_r+0xce8>
 1003600:	a800b226 	beq	r21,zero,10038cc <_dtoa_r+0xce8>
 1003604:	880b883a 	mov	r5,r17
 1003608:	a80d883a 	mov	r6,r21
 100360c:	e009883a 	mov	r4,fp
 1003610:	10069980 	call	1006998 <__pow5mult>
 1003614:	d9800917 	ldw	r6,36(sp)
 1003618:	100b883a 	mov	r5,r2
 100361c:	e009883a 	mov	r4,fp
 1003620:	1023883a 	mov	r17,r2
 1003624:	100670c0 	call	100670c <__multiply>
 1003628:	1021883a 	mov	r16,r2
 100362c:	d8800a17 	ldw	r2,40(sp)
 1003630:	d9400917 	ldw	r5,36(sp)
 1003634:	e009883a 	mov	r4,fp
 1003638:	1545c83a 	sub	r2,r2,r21
 100363c:	d8800a15 	stw	r2,40(sp)
 1003640:	10063440 	call	1006344 <_Bfree>
 1003644:	d8c00a17 	ldw	r3,40(sp)
 1003648:	18009f1e 	bne	r3,zero,10038c8 <_dtoa_r+0xce4>
 100364c:	05c00044 	movi	r23,1
 1003650:	e009883a 	mov	r4,fp
 1003654:	b80b883a 	mov	r5,r23
 1003658:	10066d00 	call	10066d0 <__i2b>
 100365c:	d9000d17 	ldw	r4,52(sp)
 1003660:	102b883a 	mov	r21,r2
 1003664:	2000ce26 	beq	r4,zero,10039a0 <_dtoa_r+0xdbc>
 1003668:	200d883a 	mov	r6,r4
 100366c:	100b883a 	mov	r5,r2
 1003670:	e009883a 	mov	r4,fp
 1003674:	10069980 	call	1006998 <__pow5mult>
 1003678:	d9800317 	ldw	r6,12(sp)
 100367c:	102b883a 	mov	r21,r2
 1003680:	b981810e 	bge	r23,r6,1003c88 <_dtoa_r+0x10a4>
 1003684:	0027883a 	mov	r19,zero
 1003688:	a8800417 	ldw	r2,16(r21)
 100368c:	05c00804 	movi	r23,32
 1003690:	10800104 	addi	r2,r2,4
 1003694:	1085883a 	add	r2,r2,r2
 1003698:	1085883a 	add	r2,r2,r2
 100369c:	a885883a 	add	r2,r21,r2
 10036a0:	11000017 	ldw	r4,0(r2)
 10036a4:	10065b80 	call	10065b8 <__hi0bits>
 10036a8:	b885c83a 	sub	r2,r23,r2
 10036ac:	1585883a 	add	r2,r2,r22
 10036b0:	108007cc 	andi	r2,r2,31
 10036b4:	1000b326 	beq	r2,zero,1003984 <_dtoa_r+0xda0>
 10036b8:	00c00804 	movi	r3,32
 10036bc:	1887c83a 	sub	r3,r3,r2
 10036c0:	01000104 	movi	r4,4
 10036c4:	20c2cd0e 	bge	r4,r3,10041fc <_dtoa_r+0x1618>
 10036c8:	00c00704 	movi	r3,28
 10036cc:	1885c83a 	sub	r2,r3,r2
 10036d0:	d8c00817 	ldw	r3,32(sp)
 10036d4:	a0a9883a 	add	r20,r20,r2
 10036d8:	b0ad883a 	add	r22,r22,r2
 10036dc:	1887883a 	add	r3,r3,r2
 10036e0:	d8c00815 	stw	r3,32(sp)
 10036e4:	d9800817 	ldw	r6,32(sp)
 10036e8:	0180040e 	bge	zero,r6,10036fc <_dtoa_r+0xb18>
 10036ec:	800b883a 	mov	r5,r16
 10036f0:	e009883a 	mov	r4,fp
 10036f4:	1006ad80 	call	1006ad8 <__lshift>
 10036f8:	1021883a 	mov	r16,r2
 10036fc:	0580050e 	bge	zero,r22,1003714 <_dtoa_r+0xb30>
 1003700:	a80b883a 	mov	r5,r21
 1003704:	b00d883a 	mov	r6,r22
 1003708:	e009883a 	mov	r4,fp
 100370c:	1006ad80 	call	1006ad8 <__lshift>
 1003710:	102b883a 	mov	r21,r2
 1003714:	d9c00e17 	ldw	r7,56(sp)
 1003718:	3801211e 	bne	r7,zero,1003ba0 <_dtoa_r+0xfbc>
 100371c:	d9800617 	ldw	r6,24(sp)
 1003720:	0181380e 	bge	zero,r6,1003c04 <_dtoa_r+0x1020>
 1003724:	d8c00b17 	ldw	r3,44(sp)
 1003728:	1800ab1e 	bne	r3,zero,10039d8 <_dtoa_r+0xdf4>
 100372c:	dc800717 	ldw	r18,28(sp)
 1003730:	dcc00617 	ldw	r19,24(sp)
 1003734:	9029883a 	mov	r20,r18
 1003738:	00000206 	br	1003744 <_dtoa_r+0xb60>
 100373c:	100636c0 	call	100636c <__multadd>
 1003740:	1021883a 	mov	r16,r2
 1003744:	a80b883a 	mov	r5,r21
 1003748:	8009883a 	mov	r4,r16
 100374c:	10029bc0 	call	10029bc <quorem>
 1003750:	10800c04 	addi	r2,r2,48
 1003754:	90800005 	stb	r2,0(r18)
 1003758:	94800044 	addi	r18,r18,1
 100375c:	9507c83a 	sub	r3,r18,r20
 1003760:	000f883a 	mov	r7,zero
 1003764:	01800284 	movi	r6,10
 1003768:	800b883a 	mov	r5,r16
 100376c:	e009883a 	mov	r4,fp
 1003770:	1cfff216 	blt	r3,r19,100373c <__alt_mem_epcs+0xff00273c>
 1003774:	1011883a 	mov	r8,r2
 1003778:	d8800617 	ldw	r2,24(sp)
 100377c:	0082370e 	bge	zero,r2,100405c <_dtoa_r+0x1478>
 1003780:	d9000717 	ldw	r4,28(sp)
 1003784:	0025883a 	mov	r18,zero
 1003788:	20af883a 	add	r23,r4,r2
 100378c:	01800044 	movi	r6,1
 1003790:	800b883a 	mov	r5,r16
 1003794:	e009883a 	mov	r4,fp
 1003798:	da001715 	stw	r8,92(sp)
 100379c:	1006ad80 	call	1006ad8 <__lshift>
 10037a0:	a80b883a 	mov	r5,r21
 10037a4:	1009883a 	mov	r4,r2
 10037a8:	d8800915 	stw	r2,36(sp)
 10037ac:	1006c200 	call	1006c20 <__mcmp>
 10037b0:	da001717 	ldw	r8,92(sp)
 10037b4:	0081800e 	bge	zero,r2,1003db8 <_dtoa_r+0x11d4>
 10037b8:	b93fffc3 	ldbu	r4,-1(r23)
 10037bc:	b8bfffc4 	addi	r2,r23,-1
 10037c0:	1007883a 	mov	r3,r2
 10037c4:	01800e44 	movi	r6,57
 10037c8:	d9c00717 	ldw	r7,28(sp)
 10037cc:	00000506 	br	10037e4 <_dtoa_r+0xc00>
 10037d0:	18ffffc4 	addi	r3,r3,-1
 10037d4:	11c12326 	beq	r2,r7,1003c64 <_dtoa_r+0x1080>
 10037d8:	19000003 	ldbu	r4,0(r3)
 10037dc:	102f883a 	mov	r23,r2
 10037e0:	10bfffc4 	addi	r2,r2,-1
 10037e4:	21403fcc 	andi	r5,r4,255
 10037e8:	2940201c 	xori	r5,r5,128
 10037ec:	297fe004 	addi	r5,r5,-128
 10037f0:	29bff726 	beq	r5,r6,10037d0 <__alt_mem_epcs+0xff0027d0>
 10037f4:	21000044 	addi	r4,r4,1
 10037f8:	11000005 	stb	r4,0(r2)
 10037fc:	a80b883a 	mov	r5,r21
 1003800:	e009883a 	mov	r4,fp
 1003804:	10063440 	call	1006344 <_Bfree>
 1003808:	883ea026 	beq	r17,zero,100328c <__alt_mem_epcs+0xff00228c>
 100380c:	90000426 	beq	r18,zero,1003820 <_dtoa_r+0xc3c>
 1003810:	94400326 	beq	r18,r17,1003820 <_dtoa_r+0xc3c>
 1003814:	900b883a 	mov	r5,r18
 1003818:	e009883a 	mov	r4,fp
 100381c:	10063440 	call	1006344 <_Bfree>
 1003820:	880b883a 	mov	r5,r17
 1003824:	e009883a 	mov	r4,fp
 1003828:	10063440 	call	1006344 <_Bfree>
 100382c:	003e9706 	br	100328c <__alt_mem_epcs+0xff00228c>
 1003830:	01800044 	movi	r6,1
 1003834:	d9800e15 	stw	r6,56(sp)
 1003838:	003d9606 	br	1002e94 <__alt_mem_epcs+0xff001e94>
 100383c:	d8800817 	ldw	r2,32(sp)
 1003840:	d8c00517 	ldw	r3,20(sp)
 1003844:	d8000d15 	stw	zero,52(sp)
 1003848:	10c5c83a 	sub	r2,r2,r3
 100384c:	00c9c83a 	sub	r4,zero,r3
 1003850:	d8800815 	stw	r2,32(sp)
 1003854:	d9000a15 	stw	r4,40(sp)
 1003858:	003d9706 	br	1002eb8 <__alt_mem_epcs+0xff001eb8>
 100385c:	05adc83a 	sub	r22,zero,r22
 1003860:	dd800815 	stw	r22,32(sp)
 1003864:	002d883a 	mov	r22,zero
 1003868:	003d8e06 	br	1002ea4 <__alt_mem_epcs+0xff001ea4>
 100386c:	d9000517 	ldw	r4,20(sp)
 1003870:	100d0340 	call	100d034 <__floatsidf>
 1003874:	100d883a 	mov	r6,r2
 1003878:	180f883a 	mov	r7,r3
 100387c:	a009883a 	mov	r4,r20
 1003880:	880b883a 	mov	r5,r17
 1003884:	100bbf40 	call	100bbf4 <__eqdf2>
 1003888:	103d7126 	beq	r2,zero,1002e50 <__alt_mem_epcs+0xff001e50>
 100388c:	d9c00517 	ldw	r7,20(sp)
 1003890:	39ffffc4 	addi	r7,r7,-1
 1003894:	d9c00515 	stw	r7,20(sp)
 1003898:	003d6d06 	br	1002e50 <__alt_mem_epcs+0xff001e50>
 100389c:	dd400a17 	ldw	r21,40(sp)
 10038a0:	dd000817 	ldw	r20,32(sp)
 10038a4:	0023883a 	mov	r17,zero
 10038a8:	003f4806 	br	10035cc <__alt_mem_epcs+0xff0025cc>
 10038ac:	10e3c83a 	sub	r17,r2,r3
 10038b0:	9448983a 	sll	r4,r18,r17
 10038b4:	003d3206 	br	1002d80 <__alt_mem_epcs+0xff001d80>
 10038b8:	d8000e15 	stw	zero,56(sp)
 10038bc:	003d7506 	br	1002e94 <__alt_mem_epcs+0xff001e94>
 10038c0:	b005883a 	mov	r2,r22
 10038c4:	003f4506 	br	10035dc <__alt_mem_epcs+0xff0025dc>
 10038c8:	dc000915 	stw	r16,36(sp)
 10038cc:	d9800a17 	ldw	r6,40(sp)
 10038d0:	d9400917 	ldw	r5,36(sp)
 10038d4:	e009883a 	mov	r4,fp
 10038d8:	10069980 	call	1006998 <__pow5mult>
 10038dc:	1021883a 	mov	r16,r2
 10038e0:	003f5a06 	br	100364c <__alt_mem_epcs+0xff00264c>
 10038e4:	01c00044 	movi	r7,1
 10038e8:	d9c00b15 	stw	r7,44(sp)
 10038ec:	d8802217 	ldw	r2,136(sp)
 10038f0:	0081280e 	bge	zero,r2,1003d94 <_dtoa_r+0x11b0>
 10038f4:	100d883a 	mov	r6,r2
 10038f8:	1021883a 	mov	r16,r2
 10038fc:	d8800c15 	stw	r2,48(sp)
 1003900:	d8800615 	stw	r2,24(sp)
 1003904:	003d8806 	br	1002f28 <__alt_mem_epcs+0xff001f28>
 1003908:	d8800617 	ldw	r2,24(sp)
 100390c:	00be9b16 	blt	zero,r2,100337c <__alt_mem_epcs+0xff00237c>
 1003910:	10010f1e 	bne	r2,zero,1003d50 <_dtoa_r+0x116c>
 1003914:	880b883a 	mov	r5,r17
 1003918:	000d883a 	mov	r6,zero
 100391c:	01d00534 	movhi	r7,16404
 1003920:	8009883a 	mov	r4,r16
 1003924:	100be4c0 	call	100be4c <__muldf3>
 1003928:	900d883a 	mov	r6,r18
 100392c:	980f883a 	mov	r7,r19
 1003930:	1009883a 	mov	r4,r2
 1003934:	180b883a 	mov	r5,r3
 1003938:	100bc7c0 	call	100bc7c <__gedf2>
 100393c:	002b883a 	mov	r21,zero
 1003940:	0023883a 	mov	r17,zero
 1003944:	1000bf16 	blt	r2,zero,1003c44 <_dtoa_r+0x1060>
 1003948:	d9802217 	ldw	r6,136(sp)
 100394c:	ddc00717 	ldw	r23,28(sp)
 1003950:	018c303a 	nor	r6,zero,r6
 1003954:	d9800515 	stw	r6,20(sp)
 1003958:	a80b883a 	mov	r5,r21
 100395c:	e009883a 	mov	r4,fp
 1003960:	10063440 	call	1006344 <_Bfree>
 1003964:	883e4926 	beq	r17,zero,100328c <__alt_mem_epcs+0xff00228c>
 1003968:	003fad06 	br	1003820 <__alt_mem_epcs+0xff002820>
 100396c:	d9c01117 	ldw	r7,68(sp)
 1003970:	3801bc26 	beq	r7,zero,1004064 <_dtoa_r+0x1480>
 1003974:	10810cc4 	addi	r2,r2,1075
 1003978:	dd400a17 	ldw	r21,40(sp)
 100397c:	dd000817 	ldw	r20,32(sp)
 1003980:	003f0a06 	br	10035ac <__alt_mem_epcs+0xff0025ac>
 1003984:	00800704 	movi	r2,28
 1003988:	d9000817 	ldw	r4,32(sp)
 100398c:	a0a9883a 	add	r20,r20,r2
 1003990:	b0ad883a 	add	r22,r22,r2
 1003994:	2089883a 	add	r4,r4,r2
 1003998:	d9000815 	stw	r4,32(sp)
 100399c:	003f5106 	br	10036e4 <__alt_mem_epcs+0xff0026e4>
 10039a0:	d8c00317 	ldw	r3,12(sp)
 10039a4:	b8c1fc0e 	bge	r23,r3,1004198 <_dtoa_r+0x15b4>
 10039a8:	0027883a 	mov	r19,zero
 10039ac:	b805883a 	mov	r2,r23
 10039b0:	003f3e06 	br	10036ac <__alt_mem_epcs+0xff0026ac>
 10039b4:	880b883a 	mov	r5,r17
 10039b8:	e009883a 	mov	r4,fp
 10039bc:	000f883a 	mov	r7,zero
 10039c0:	01800284 	movi	r6,10
 10039c4:	100636c0 	call	100636c <__multadd>
 10039c8:	d9000c17 	ldw	r4,48(sp)
 10039cc:	1023883a 	mov	r17,r2
 10039d0:	0102040e 	bge	zero,r4,10041e4 <_dtoa_r+0x1600>
 10039d4:	d9000615 	stw	r4,24(sp)
 10039d8:	0500050e 	bge	zero,r20,10039f0 <_dtoa_r+0xe0c>
 10039dc:	880b883a 	mov	r5,r17
 10039e0:	a00d883a 	mov	r6,r20
 10039e4:	e009883a 	mov	r4,fp
 10039e8:	1006ad80 	call	1006ad8 <__lshift>
 10039ec:	1023883a 	mov	r17,r2
 10039f0:	9801241e 	bne	r19,zero,1003e84 <_dtoa_r+0x12a0>
 10039f4:	8829883a 	mov	r20,r17
 10039f8:	d9000617 	ldw	r4,24(sp)
 10039fc:	dcc00717 	ldw	r19,28(sp)
 1003a00:	9480004c 	andi	r18,r18,1
 1003a04:	20bfffc4 	addi	r2,r4,-1
 1003a08:	9885883a 	add	r2,r19,r2
 1003a0c:	d8800415 	stw	r2,16(sp)
 1003a10:	dc800615 	stw	r18,24(sp)
 1003a14:	a80b883a 	mov	r5,r21
 1003a18:	8009883a 	mov	r4,r16
 1003a1c:	10029bc0 	call	10029bc <quorem>
 1003a20:	880b883a 	mov	r5,r17
 1003a24:	8009883a 	mov	r4,r16
 1003a28:	102f883a 	mov	r23,r2
 1003a2c:	1006c200 	call	1006c20 <__mcmp>
 1003a30:	a80b883a 	mov	r5,r21
 1003a34:	a00d883a 	mov	r6,r20
 1003a38:	e009883a 	mov	r4,fp
 1003a3c:	102d883a 	mov	r22,r2
 1003a40:	1006c800 	call	1006c80 <__mdiff>
 1003a44:	1007883a 	mov	r3,r2
 1003a48:	10800317 	ldw	r2,12(r2)
 1003a4c:	bc800c04 	addi	r18,r23,48
 1003a50:	180b883a 	mov	r5,r3
 1003a54:	10004e1e 	bne	r2,zero,1003b90 <_dtoa_r+0xfac>
 1003a58:	8009883a 	mov	r4,r16
 1003a5c:	d8c01615 	stw	r3,88(sp)
 1003a60:	1006c200 	call	1006c20 <__mcmp>
 1003a64:	d8c01617 	ldw	r3,88(sp)
 1003a68:	e009883a 	mov	r4,fp
 1003a6c:	d8801615 	stw	r2,88(sp)
 1003a70:	180b883a 	mov	r5,r3
 1003a74:	10063440 	call	1006344 <_Bfree>
 1003a78:	d8801617 	ldw	r2,88(sp)
 1003a7c:	1000041e 	bne	r2,zero,1003a90 <_dtoa_r+0xeac>
 1003a80:	d9800317 	ldw	r6,12(sp)
 1003a84:	3000021e 	bne	r6,zero,1003a90 <_dtoa_r+0xeac>
 1003a88:	d8c00617 	ldw	r3,24(sp)
 1003a8c:	18003726 	beq	r3,zero,1003b6c <_dtoa_r+0xf88>
 1003a90:	b0002016 	blt	r22,zero,1003b14 <_dtoa_r+0xf30>
 1003a94:	b000041e 	bne	r22,zero,1003aa8 <_dtoa_r+0xec4>
 1003a98:	d9000317 	ldw	r4,12(sp)
 1003a9c:	2000021e 	bne	r4,zero,1003aa8 <_dtoa_r+0xec4>
 1003aa0:	d8c00617 	ldw	r3,24(sp)
 1003aa4:	18001b26 	beq	r3,zero,1003b14 <_dtoa_r+0xf30>
 1003aa8:	00810716 	blt	zero,r2,1003ec8 <_dtoa_r+0x12e4>
 1003aac:	d8c00417 	ldw	r3,16(sp)
 1003ab0:	9d800044 	addi	r22,r19,1
 1003ab4:	9c800005 	stb	r18,0(r19)
 1003ab8:	b02f883a 	mov	r23,r22
 1003abc:	98c10626 	beq	r19,r3,1003ed8 <_dtoa_r+0x12f4>
 1003ac0:	800b883a 	mov	r5,r16
 1003ac4:	000f883a 	mov	r7,zero
 1003ac8:	01800284 	movi	r6,10
 1003acc:	e009883a 	mov	r4,fp
 1003ad0:	100636c0 	call	100636c <__multadd>
 1003ad4:	1021883a 	mov	r16,r2
 1003ad8:	000f883a 	mov	r7,zero
 1003adc:	01800284 	movi	r6,10
 1003ae0:	880b883a 	mov	r5,r17
 1003ae4:	e009883a 	mov	r4,fp
 1003ae8:	8d002526 	beq	r17,r20,1003b80 <_dtoa_r+0xf9c>
 1003aec:	100636c0 	call	100636c <__multadd>
 1003af0:	a00b883a 	mov	r5,r20
 1003af4:	000f883a 	mov	r7,zero
 1003af8:	01800284 	movi	r6,10
 1003afc:	e009883a 	mov	r4,fp
 1003b00:	1023883a 	mov	r17,r2
 1003b04:	100636c0 	call	100636c <__multadd>
 1003b08:	1029883a 	mov	r20,r2
 1003b0c:	b027883a 	mov	r19,r22
 1003b10:	003fc006 	br	1003a14 <__alt_mem_epcs+0xff002a14>
 1003b14:	9011883a 	mov	r8,r18
 1003b18:	00800e0e 	bge	zero,r2,1003b54 <_dtoa_r+0xf70>
 1003b1c:	800b883a 	mov	r5,r16
 1003b20:	01800044 	movi	r6,1
 1003b24:	e009883a 	mov	r4,fp
 1003b28:	da001715 	stw	r8,92(sp)
 1003b2c:	1006ad80 	call	1006ad8 <__lshift>
 1003b30:	a80b883a 	mov	r5,r21
 1003b34:	1009883a 	mov	r4,r2
 1003b38:	1021883a 	mov	r16,r2
 1003b3c:	1006c200 	call	1006c20 <__mcmp>
 1003b40:	da001717 	ldw	r8,92(sp)
 1003b44:	0081960e 	bge	zero,r2,10041a0 <_dtoa_r+0x15bc>
 1003b48:	00800e44 	movi	r2,57
 1003b4c:	40817026 	beq	r8,r2,1004110 <_dtoa_r+0x152c>
 1003b50:	ba000c44 	addi	r8,r23,49
 1003b54:	8825883a 	mov	r18,r17
 1003b58:	9dc00044 	addi	r23,r19,1
 1003b5c:	9a000005 	stb	r8,0(r19)
 1003b60:	a023883a 	mov	r17,r20
 1003b64:	dc000915 	stw	r16,36(sp)
 1003b68:	003f2406 	br	10037fc <__alt_mem_epcs+0xff0027fc>
 1003b6c:	00800e44 	movi	r2,57
 1003b70:	9011883a 	mov	r8,r18
 1003b74:	90816626 	beq	r18,r2,1004110 <_dtoa_r+0x152c>
 1003b78:	05bff516 	blt	zero,r22,1003b50 <__alt_mem_epcs+0xff002b50>
 1003b7c:	003ff506 	br	1003b54 <__alt_mem_epcs+0xff002b54>
 1003b80:	100636c0 	call	100636c <__multadd>
 1003b84:	1023883a 	mov	r17,r2
 1003b88:	1029883a 	mov	r20,r2
 1003b8c:	003fdf06 	br	1003b0c <__alt_mem_epcs+0xff002b0c>
 1003b90:	e009883a 	mov	r4,fp
 1003b94:	10063440 	call	1006344 <_Bfree>
 1003b98:	00800044 	movi	r2,1
 1003b9c:	003fbc06 	br	1003a90 <__alt_mem_epcs+0xff002a90>
 1003ba0:	a80b883a 	mov	r5,r21
 1003ba4:	8009883a 	mov	r4,r16
 1003ba8:	1006c200 	call	1006c20 <__mcmp>
 1003bac:	103edb0e 	bge	r2,zero,100371c <__alt_mem_epcs+0xff00271c>
 1003bb0:	800b883a 	mov	r5,r16
 1003bb4:	000f883a 	mov	r7,zero
 1003bb8:	01800284 	movi	r6,10
 1003bbc:	e009883a 	mov	r4,fp
 1003bc0:	100636c0 	call	100636c <__multadd>
 1003bc4:	1021883a 	mov	r16,r2
 1003bc8:	d8800517 	ldw	r2,20(sp)
 1003bcc:	d8c00b17 	ldw	r3,44(sp)
 1003bd0:	10bfffc4 	addi	r2,r2,-1
 1003bd4:	d8800515 	stw	r2,20(sp)
 1003bd8:	183f761e 	bne	r3,zero,10039b4 <__alt_mem_epcs+0xff0029b4>
 1003bdc:	d9000c17 	ldw	r4,48(sp)
 1003be0:	0101730e 	bge	zero,r4,10041b0 <_dtoa_r+0x15cc>
 1003be4:	d9000615 	stw	r4,24(sp)
 1003be8:	003ed006 	br	100372c <__alt_mem_epcs+0xff00272c>
 1003bec:	00800084 	movi	r2,2
 1003bf0:	3081861e 	bne	r6,r2,100420c <_dtoa_r+0x1628>
 1003bf4:	d8000b15 	stw	zero,44(sp)
 1003bf8:	003f3c06 	br	10038ec <__alt_mem_epcs+0xff0028ec>
 1003bfc:	dc000917 	ldw	r16,36(sp)
 1003c00:	003e9206 	br	100364c <__alt_mem_epcs+0xff00264c>
 1003c04:	d9c00317 	ldw	r7,12(sp)
 1003c08:	00800084 	movi	r2,2
 1003c0c:	11fec50e 	bge	r2,r7,1003724 <__alt_mem_epcs+0xff002724>
 1003c10:	d9000617 	ldw	r4,24(sp)
 1003c14:	20013c1e 	bne	r4,zero,1004108 <_dtoa_r+0x1524>
 1003c18:	a80b883a 	mov	r5,r21
 1003c1c:	000f883a 	mov	r7,zero
 1003c20:	01800144 	movi	r6,5
 1003c24:	e009883a 	mov	r4,fp
 1003c28:	100636c0 	call	100636c <__multadd>
 1003c2c:	100b883a 	mov	r5,r2
 1003c30:	8009883a 	mov	r4,r16
 1003c34:	102b883a 	mov	r21,r2
 1003c38:	1006c200 	call	1006c20 <__mcmp>
 1003c3c:	dc000915 	stw	r16,36(sp)
 1003c40:	00bf410e 	bge	zero,r2,1003948 <__alt_mem_epcs+0xff002948>
 1003c44:	d9c00717 	ldw	r7,28(sp)
 1003c48:	00800c44 	movi	r2,49
 1003c4c:	38800005 	stb	r2,0(r7)
 1003c50:	d8800517 	ldw	r2,20(sp)
 1003c54:	3dc00044 	addi	r23,r7,1
 1003c58:	10800044 	addi	r2,r2,1
 1003c5c:	d8800515 	stw	r2,20(sp)
 1003c60:	003f3d06 	br	1003958 <__alt_mem_epcs+0xff002958>
 1003c64:	d9800517 	ldw	r6,20(sp)
 1003c68:	d9c00717 	ldw	r7,28(sp)
 1003c6c:	00800c44 	movi	r2,49
 1003c70:	31800044 	addi	r6,r6,1
 1003c74:	d9800515 	stw	r6,20(sp)
 1003c78:	38800005 	stb	r2,0(r7)
 1003c7c:	003edf06 	br	10037fc <__alt_mem_epcs+0xff0027fc>
 1003c80:	d8000b15 	stw	zero,44(sp)
 1003c84:	003c9f06 	br	1002f04 <__alt_mem_epcs+0xff001f04>
 1003c88:	903e7e1e 	bne	r18,zero,1003684 <__alt_mem_epcs+0xff002684>
 1003c8c:	00800434 	movhi	r2,16
 1003c90:	10bfffc4 	addi	r2,r2,-1
 1003c94:	9884703a 	and	r2,r19,r2
 1003c98:	1000ea1e 	bne	r2,zero,1004044 <_dtoa_r+0x1460>
 1003c9c:	9cdffc2c 	andhi	r19,r19,32752
 1003ca0:	9800e826 	beq	r19,zero,1004044 <_dtoa_r+0x1460>
 1003ca4:	d9c00817 	ldw	r7,32(sp)
 1003ca8:	b5800044 	addi	r22,r22,1
 1003cac:	04c00044 	movi	r19,1
 1003cb0:	39c00044 	addi	r7,r7,1
 1003cb4:	d9c00815 	stw	r7,32(sp)
 1003cb8:	d8800d17 	ldw	r2,52(sp)
 1003cbc:	103e721e 	bne	r2,zero,1003688 <__alt_mem_epcs+0xff002688>
 1003cc0:	00800044 	movi	r2,1
 1003cc4:	003e7906 	br	10036ac <__alt_mem_epcs+0xff0026ac>
 1003cc8:	8009883a 	mov	r4,r16
 1003ccc:	100d0340 	call	100d034 <__floatsidf>
 1003cd0:	d9800f17 	ldw	r6,60(sp)
 1003cd4:	d9c01017 	ldw	r7,64(sp)
 1003cd8:	1009883a 	mov	r4,r2
 1003cdc:	180b883a 	mov	r5,r3
 1003ce0:	100be4c0 	call	100be4c <__muldf3>
 1003ce4:	000d883a 	mov	r6,zero
 1003ce8:	01d00734 	movhi	r7,16412
 1003cec:	1009883a 	mov	r4,r2
 1003cf0:	180b883a 	mov	r5,r3
 1003cf4:	100a9780 	call	100a978 <__adddf3>
 1003cf8:	047f3034 	movhi	r17,64704
 1003cfc:	1021883a 	mov	r16,r2
 1003d00:	1c63883a 	add	r17,r3,r17
 1003d04:	d9000f17 	ldw	r4,60(sp)
 1003d08:	d9401017 	ldw	r5,64(sp)
 1003d0c:	000d883a 	mov	r6,zero
 1003d10:	01d00534 	movhi	r7,16404
 1003d14:	100c6b80 	call	100c6b8 <__subdf3>
 1003d18:	800d883a 	mov	r6,r16
 1003d1c:	880f883a 	mov	r7,r17
 1003d20:	1009883a 	mov	r4,r2
 1003d24:	180b883a 	mov	r5,r3
 1003d28:	102b883a 	mov	r21,r2
 1003d2c:	1829883a 	mov	r20,r3
 1003d30:	100bc7c0 	call	100bc7c <__gedf2>
 1003d34:	00806c16 	blt	zero,r2,1003ee8 <_dtoa_r+0x1304>
 1003d38:	89e0003c 	xorhi	r7,r17,32768
 1003d3c:	800d883a 	mov	r6,r16
 1003d40:	a809883a 	mov	r4,r21
 1003d44:	a00b883a 	mov	r5,r20
 1003d48:	100bd580 	call	100bd58 <__ledf2>
 1003d4c:	103d7e0e 	bge	r2,zero,1003348 <__alt_mem_epcs+0xff002348>
 1003d50:	002b883a 	mov	r21,zero
 1003d54:	0023883a 	mov	r17,zero
 1003d58:	003efb06 	br	1003948 <__alt_mem_epcs+0xff002948>
 1003d5c:	d8800717 	ldw	r2,28(sp)
 1003d60:	003bd006 	br	1002ca4 <__alt_mem_epcs+0xff001ca4>
 1003d64:	d9000a17 	ldw	r4,40(sp)
 1003d68:	d9800d17 	ldw	r6,52(sp)
 1003d6c:	dd400a15 	stw	r21,40(sp)
 1003d70:	a905c83a 	sub	r2,r21,r4
 1003d74:	308d883a 	add	r6,r6,r2
 1003d78:	d9800d15 	stw	r6,52(sp)
 1003d7c:	002b883a 	mov	r21,zero
 1003d80:	003e0606 	br	100359c <__alt_mem_epcs+0xff00259c>
 1003d84:	9023883a 	mov	r17,r18
 1003d88:	9829883a 	mov	r20,r19
 1003d8c:	04000084 	movi	r16,2
 1003d90:	003c9206 	br	1002fdc <__alt_mem_epcs+0xff001fdc>
 1003d94:	04000044 	movi	r16,1
 1003d98:	dc000c15 	stw	r16,48(sp)
 1003d9c:	dc000615 	stw	r16,24(sp)
 1003da0:	dc002215 	stw	r16,136(sp)
 1003da4:	e0001115 	stw	zero,68(fp)
 1003da8:	000b883a 	mov	r5,zero
 1003dac:	003c6906 	br	1002f54 <__alt_mem_epcs+0xff001f54>
 1003db0:	3021883a 	mov	r16,r6
 1003db4:	003ffb06 	br	1003da4 <__alt_mem_epcs+0xff002da4>
 1003db8:	1000021e 	bne	r2,zero,1003dc4 <_dtoa_r+0x11e0>
 1003dbc:	4200004c 	andi	r8,r8,1
 1003dc0:	403e7d1e 	bne	r8,zero,10037b8 <__alt_mem_epcs+0xff0027b8>
 1003dc4:	01000c04 	movi	r4,48
 1003dc8:	00000106 	br	1003dd0 <_dtoa_r+0x11ec>
 1003dcc:	102f883a 	mov	r23,r2
 1003dd0:	b8bfffc4 	addi	r2,r23,-1
 1003dd4:	10c00007 	ldb	r3,0(r2)
 1003dd8:	193ffc26 	beq	r3,r4,1003dcc <__alt_mem_epcs+0xff002dcc>
 1003ddc:	003e8706 	br	10037fc <__alt_mem_epcs+0xff0027fc>
 1003de0:	d8800517 	ldw	r2,20(sp)
 1003de4:	00a3c83a 	sub	r17,zero,r2
 1003de8:	8800a426 	beq	r17,zero,100407c <_dtoa_r+0x1498>
 1003dec:	888003cc 	andi	r2,r17,15
 1003df0:	100490fa 	slli	r2,r2,3
 1003df4:	00c04074 	movhi	r3,257
 1003df8:	18c5ca04 	addi	r3,r3,5928
 1003dfc:	1885883a 	add	r2,r3,r2
 1003e00:	11800017 	ldw	r6,0(r2)
 1003e04:	11c00117 	ldw	r7,4(r2)
 1003e08:	9009883a 	mov	r4,r18
 1003e0c:	980b883a 	mov	r5,r19
 1003e10:	8823d13a 	srai	r17,r17,4
 1003e14:	100be4c0 	call	100be4c <__muldf3>
 1003e18:	d8800f15 	stw	r2,60(sp)
 1003e1c:	d8c01015 	stw	r3,64(sp)
 1003e20:	8800e826 	beq	r17,zero,10041c4 <_dtoa_r+0x15e0>
 1003e24:	05004074 	movhi	r20,257
 1003e28:	a505c004 	addi	r20,r20,5888
 1003e2c:	04000084 	movi	r16,2
 1003e30:	8980004c 	andi	r6,r17,1
 1003e34:	1009883a 	mov	r4,r2
 1003e38:	8823d07a 	srai	r17,r17,1
 1003e3c:	180b883a 	mov	r5,r3
 1003e40:	30000426 	beq	r6,zero,1003e54 <_dtoa_r+0x1270>
 1003e44:	a1800017 	ldw	r6,0(r20)
 1003e48:	a1c00117 	ldw	r7,4(r20)
 1003e4c:	84000044 	addi	r16,r16,1
 1003e50:	100be4c0 	call	100be4c <__muldf3>
 1003e54:	a5000204 	addi	r20,r20,8
 1003e58:	883ff51e 	bne	r17,zero,1003e30 <__alt_mem_epcs+0xff002e30>
 1003e5c:	d8800f15 	stw	r2,60(sp)
 1003e60:	d8c01015 	stw	r3,64(sp)
 1003e64:	003c7606 	br	1003040 <__alt_mem_epcs+0xff002040>
 1003e68:	00c00c04 	movi	r3,48
 1003e6c:	10c00005 	stb	r3,0(r2)
 1003e70:	d8c00517 	ldw	r3,20(sp)
 1003e74:	bd3fffc3 	ldbu	r20,-1(r23)
 1003e78:	18c00044 	addi	r3,r3,1
 1003e7c:	d8c00515 	stw	r3,20(sp)
 1003e80:	003db906 	br	1003568 <__alt_mem_epcs+0xff002568>
 1003e84:	89400117 	ldw	r5,4(r17)
 1003e88:	e009883a 	mov	r4,fp
 1003e8c:	100629c0 	call	100629c <_Balloc>
 1003e90:	89800417 	ldw	r6,16(r17)
 1003e94:	89400304 	addi	r5,r17,12
 1003e98:	11000304 	addi	r4,r2,12
 1003e9c:	31800084 	addi	r6,r6,2
 1003ea0:	318d883a 	add	r6,r6,r6
 1003ea4:	318d883a 	add	r6,r6,r6
 1003ea8:	1027883a 	mov	r19,r2
 1003eac:	1005ed00 	call	1005ed0 <memcpy>
 1003eb0:	01800044 	movi	r6,1
 1003eb4:	980b883a 	mov	r5,r19
 1003eb8:	e009883a 	mov	r4,fp
 1003ebc:	1006ad80 	call	1006ad8 <__lshift>
 1003ec0:	1029883a 	mov	r20,r2
 1003ec4:	003ecc06 	br	10039f8 <__alt_mem_epcs+0xff0029f8>
 1003ec8:	00800e44 	movi	r2,57
 1003ecc:	90809026 	beq	r18,r2,1004110 <_dtoa_r+0x152c>
 1003ed0:	92000044 	addi	r8,r18,1
 1003ed4:	003f1f06 	br	1003b54 <__alt_mem_epcs+0xff002b54>
 1003ed8:	9011883a 	mov	r8,r18
 1003edc:	8825883a 	mov	r18,r17
 1003ee0:	a023883a 	mov	r17,r20
 1003ee4:	003e2906 	br	100378c <__alt_mem_epcs+0xff00278c>
 1003ee8:	002b883a 	mov	r21,zero
 1003eec:	0023883a 	mov	r17,zero
 1003ef0:	003f5406 	br	1003c44 <__alt_mem_epcs+0xff002c44>
 1003ef4:	61bfffc4 	addi	r6,r12,-1
 1003ef8:	300490fa 	slli	r2,r6,3
 1003efc:	00c04074 	movhi	r3,257
 1003f00:	18c5ca04 	addi	r3,r3,5928
 1003f04:	1885883a 	add	r2,r3,r2
 1003f08:	11000017 	ldw	r4,0(r2)
 1003f0c:	11400117 	ldw	r5,4(r2)
 1003f10:	d8800717 	ldw	r2,28(sp)
 1003f14:	880f883a 	mov	r7,r17
 1003f18:	d9801215 	stw	r6,72(sp)
 1003f1c:	800d883a 	mov	r6,r16
 1003f20:	db001615 	stw	r12,88(sp)
 1003f24:	15c00044 	addi	r23,r2,1
 1003f28:	100be4c0 	call	100be4c <__muldf3>
 1003f2c:	d9401017 	ldw	r5,64(sp)
 1003f30:	d9000f17 	ldw	r4,60(sp)
 1003f34:	d8c01515 	stw	r3,84(sp)
 1003f38:	d8801415 	stw	r2,80(sp)
 1003f3c:	100cfb40 	call	100cfb4 <__fixdfsi>
 1003f40:	1009883a 	mov	r4,r2
 1003f44:	1021883a 	mov	r16,r2
 1003f48:	100d0340 	call	100d034 <__floatsidf>
 1003f4c:	d9000f17 	ldw	r4,60(sp)
 1003f50:	d9401017 	ldw	r5,64(sp)
 1003f54:	100d883a 	mov	r6,r2
 1003f58:	180f883a 	mov	r7,r3
 1003f5c:	100c6b80 	call	100c6b8 <__subdf3>
 1003f60:	1829883a 	mov	r20,r3
 1003f64:	d8c00717 	ldw	r3,28(sp)
 1003f68:	84000c04 	addi	r16,r16,48
 1003f6c:	1023883a 	mov	r17,r2
 1003f70:	1c000005 	stb	r16,0(r3)
 1003f74:	db001617 	ldw	r12,88(sp)
 1003f78:	00800044 	movi	r2,1
 1003f7c:	60802226 	beq	r12,r2,1004008 <_dtoa_r+0x1424>
 1003f80:	d9c00717 	ldw	r7,28(sp)
 1003f84:	8805883a 	mov	r2,r17
 1003f88:	b82b883a 	mov	r21,r23
 1003f8c:	3b19883a 	add	r12,r7,r12
 1003f90:	6023883a 	mov	r17,r12
 1003f94:	a007883a 	mov	r3,r20
 1003f98:	dc800f15 	stw	r18,60(sp)
 1003f9c:	000d883a 	mov	r6,zero
 1003fa0:	01d00934 	movhi	r7,16420
 1003fa4:	1009883a 	mov	r4,r2
 1003fa8:	180b883a 	mov	r5,r3
 1003fac:	100be4c0 	call	100be4c <__muldf3>
 1003fb0:	180b883a 	mov	r5,r3
 1003fb4:	1009883a 	mov	r4,r2
 1003fb8:	1829883a 	mov	r20,r3
 1003fbc:	1025883a 	mov	r18,r2
 1003fc0:	100cfb40 	call	100cfb4 <__fixdfsi>
 1003fc4:	1009883a 	mov	r4,r2
 1003fc8:	1021883a 	mov	r16,r2
 1003fcc:	100d0340 	call	100d034 <__floatsidf>
 1003fd0:	100d883a 	mov	r6,r2
 1003fd4:	180f883a 	mov	r7,r3
 1003fd8:	9009883a 	mov	r4,r18
 1003fdc:	a00b883a 	mov	r5,r20
 1003fe0:	84000c04 	addi	r16,r16,48
 1003fe4:	100c6b80 	call	100c6b8 <__subdf3>
 1003fe8:	ad400044 	addi	r21,r21,1
 1003fec:	ac3fffc5 	stb	r16,-1(r21)
 1003ff0:	ac7fea1e 	bne	r21,r17,1003f9c <__alt_mem_epcs+0xff002f9c>
 1003ff4:	1023883a 	mov	r17,r2
 1003ff8:	d8801217 	ldw	r2,72(sp)
 1003ffc:	dc800f17 	ldw	r18,60(sp)
 1004000:	1829883a 	mov	r20,r3
 1004004:	b8af883a 	add	r23,r23,r2
 1004008:	d9001417 	ldw	r4,80(sp)
 100400c:	d9401517 	ldw	r5,84(sp)
 1004010:	000d883a 	mov	r6,zero
 1004014:	01cff834 	movhi	r7,16352
 1004018:	100a9780 	call	100a978 <__adddf3>
 100401c:	880d883a 	mov	r6,r17
 1004020:	a00f883a 	mov	r7,r20
 1004024:	1009883a 	mov	r4,r2
 1004028:	180b883a 	mov	r5,r3
 100402c:	100bd580 	call	100bd58 <__ledf2>
 1004030:	10003e0e 	bge	r2,zero,100412c <_dtoa_r+0x1548>
 1004034:	d9001317 	ldw	r4,76(sp)
 1004038:	bd3fffc3 	ldbu	r20,-1(r23)
 100403c:	d9000515 	stw	r4,20(sp)
 1004040:	003d3b06 	br	1003530 <__alt_mem_epcs+0xff002530>
 1004044:	0027883a 	mov	r19,zero
 1004048:	003f1b06 	br	1003cb8 <__alt_mem_epcs+0xff002cb8>
 100404c:	d8800817 	ldw	r2,32(sp)
 1004050:	11e9c83a 	sub	r20,r2,r7
 1004054:	0005883a 	mov	r2,zero
 1004058:	003d5406 	br	10035ac <__alt_mem_epcs+0xff0025ac>
 100405c:	00800044 	movi	r2,1
 1004060:	003dc706 	br	1003780 <__alt_mem_epcs+0xff002780>
 1004064:	d8c00217 	ldw	r3,8(sp)
 1004068:	00800d84 	movi	r2,54
 100406c:	dd400a17 	ldw	r21,40(sp)
 1004070:	10c5c83a 	sub	r2,r2,r3
 1004074:	dd000817 	ldw	r20,32(sp)
 1004078:	003d4c06 	br	10035ac <__alt_mem_epcs+0xff0025ac>
 100407c:	dc800f15 	stw	r18,60(sp)
 1004080:	dcc01015 	stw	r19,64(sp)
 1004084:	04000084 	movi	r16,2
 1004088:	003bed06 	br	1003040 <__alt_mem_epcs+0xff002040>
 100408c:	d9000617 	ldw	r4,24(sp)
 1004090:	203f0d26 	beq	r4,zero,1003cc8 <__alt_mem_epcs+0xff002cc8>
 1004094:	d9800c17 	ldw	r6,48(sp)
 1004098:	01bcab0e 	bge	zero,r6,1003348 <__alt_mem_epcs+0xff002348>
 100409c:	d9401017 	ldw	r5,64(sp)
 10040a0:	d9000f17 	ldw	r4,60(sp)
 10040a4:	000d883a 	mov	r6,zero
 10040a8:	01d00934 	movhi	r7,16420
 10040ac:	100be4c0 	call	100be4c <__muldf3>
 10040b0:	81000044 	addi	r4,r16,1
 10040b4:	d8800f15 	stw	r2,60(sp)
 10040b8:	d8c01015 	stw	r3,64(sp)
 10040bc:	100d0340 	call	100d034 <__floatsidf>
 10040c0:	d9800f17 	ldw	r6,60(sp)
 10040c4:	d9c01017 	ldw	r7,64(sp)
 10040c8:	1009883a 	mov	r4,r2
 10040cc:	180b883a 	mov	r5,r3
 10040d0:	100be4c0 	call	100be4c <__muldf3>
 10040d4:	01d00734 	movhi	r7,16412
 10040d8:	000d883a 	mov	r6,zero
 10040dc:	1009883a 	mov	r4,r2
 10040e0:	180b883a 	mov	r5,r3
 10040e4:	100a9780 	call	100a978 <__adddf3>
 10040e8:	d9c00517 	ldw	r7,20(sp)
 10040ec:	047f3034 	movhi	r17,64704
 10040f0:	1021883a 	mov	r16,r2
 10040f4:	39ffffc4 	addi	r7,r7,-1
 10040f8:	d9c01315 	stw	r7,76(sp)
 10040fc:	1c63883a 	add	r17,r3,r17
 1004100:	db000c17 	ldw	r12,48(sp)
 1004104:	003bea06 	br	10030b0 <__alt_mem_epcs+0xff0020b0>
 1004108:	dc000915 	stw	r16,36(sp)
 100410c:	003e0e06 	br	1003948 <__alt_mem_epcs+0xff002948>
 1004110:	01000e44 	movi	r4,57
 1004114:	8825883a 	mov	r18,r17
 1004118:	9dc00044 	addi	r23,r19,1
 100411c:	99000005 	stb	r4,0(r19)
 1004120:	a023883a 	mov	r17,r20
 1004124:	dc000915 	stw	r16,36(sp)
 1004128:	003da406 	br	10037bc <__alt_mem_epcs+0xff0027bc>
 100412c:	d9801417 	ldw	r6,80(sp)
 1004130:	d9c01517 	ldw	r7,84(sp)
 1004134:	0009883a 	mov	r4,zero
 1004138:	014ff834 	movhi	r5,16352
 100413c:	100c6b80 	call	100c6b8 <__subdf3>
 1004140:	880d883a 	mov	r6,r17
 1004144:	a00f883a 	mov	r7,r20
 1004148:	1009883a 	mov	r4,r2
 100414c:	180b883a 	mov	r5,r3
 1004150:	100bc7c0 	call	100bc7c <__gedf2>
 1004154:	00bc7c0e 	bge	zero,r2,1003348 <__alt_mem_epcs+0xff002348>
 1004158:	01000c04 	movi	r4,48
 100415c:	00000106 	br	1004164 <_dtoa_r+0x1580>
 1004160:	102f883a 	mov	r23,r2
 1004164:	b8bfffc4 	addi	r2,r23,-1
 1004168:	10c00007 	ldb	r3,0(r2)
 100416c:	193ffc26 	beq	r3,r4,1004160 <__alt_mem_epcs+0xff003160>
 1004170:	d9801317 	ldw	r6,76(sp)
 1004174:	d9800515 	stw	r6,20(sp)
 1004178:	003c4406 	br	100328c <__alt_mem_epcs+0xff00228c>
 100417c:	d9801317 	ldw	r6,76(sp)
 1004180:	d9800515 	stw	r6,20(sp)
 1004184:	003cea06 	br	1003530 <__alt_mem_epcs+0xff002530>
 1004188:	dd800f17 	ldw	r22,60(sp)
 100418c:	dcc01017 	ldw	r19,64(sp)
 1004190:	dc801217 	ldw	r18,72(sp)
 1004194:	003c6c06 	br	1003348 <__alt_mem_epcs+0xff002348>
 1004198:	903e031e 	bne	r18,zero,10039a8 <__alt_mem_epcs+0xff0029a8>
 100419c:	003ebb06 	br	1003c8c <__alt_mem_epcs+0xff002c8c>
 10041a0:	103e6c1e 	bne	r2,zero,1003b54 <__alt_mem_epcs+0xff002b54>
 10041a4:	4080004c 	andi	r2,r8,1
 10041a8:	103e6a26 	beq	r2,zero,1003b54 <__alt_mem_epcs+0xff002b54>
 10041ac:	003e6606 	br	1003b48 <__alt_mem_epcs+0xff002b48>
 10041b0:	d8c00317 	ldw	r3,12(sp)
 10041b4:	00800084 	movi	r2,2
 10041b8:	10c02916 	blt	r2,r3,1004260 <_dtoa_r+0x167c>
 10041bc:	d9000c17 	ldw	r4,48(sp)
 10041c0:	003e8806 	br	1003be4 <__alt_mem_epcs+0xff002be4>
 10041c4:	04000084 	movi	r16,2
 10041c8:	003b9d06 	br	1003040 <__alt_mem_epcs+0xff002040>
 10041cc:	d9001317 	ldw	r4,76(sp)
 10041d0:	d9000515 	stw	r4,20(sp)
 10041d4:	003cd606 	br	1003530 <__alt_mem_epcs+0xff002530>
 10041d8:	d8801317 	ldw	r2,76(sp)
 10041dc:	d8800515 	stw	r2,20(sp)
 10041e0:	003c2a06 	br	100328c <__alt_mem_epcs+0xff00228c>
 10041e4:	d9800317 	ldw	r6,12(sp)
 10041e8:	00800084 	movi	r2,2
 10041ec:	11801516 	blt	r2,r6,1004244 <_dtoa_r+0x1660>
 10041f0:	d9c00c17 	ldw	r7,48(sp)
 10041f4:	d9c00615 	stw	r7,24(sp)
 10041f8:	003df706 	br	10039d8 <__alt_mem_epcs+0xff0029d8>
 10041fc:	193d3926 	beq	r3,r4,10036e4 <__alt_mem_epcs+0xff0026e4>
 1004200:	00c00f04 	movi	r3,60
 1004204:	1885c83a 	sub	r2,r3,r2
 1004208:	003ddf06 	br	1003988 <__alt_mem_epcs+0xff002988>
 100420c:	e009883a 	mov	r4,fp
 1004210:	e0001115 	stw	zero,68(fp)
 1004214:	000b883a 	mov	r5,zero
 1004218:	100629c0 	call	100629c <_Balloc>
 100421c:	d8800715 	stw	r2,28(sp)
 1004220:	d8c00717 	ldw	r3,28(sp)
 1004224:	00bfffc4 	movi	r2,-1
 1004228:	01000044 	movi	r4,1
 100422c:	d8800c15 	stw	r2,48(sp)
 1004230:	e0c01015 	stw	r3,64(fp)
 1004234:	d9000b15 	stw	r4,44(sp)
 1004238:	d8800615 	stw	r2,24(sp)
 100423c:	d8002215 	stw	zero,136(sp)
 1004240:	003c4106 	br	1003348 <__alt_mem_epcs+0xff002348>
 1004244:	d8c00c17 	ldw	r3,48(sp)
 1004248:	d8c00615 	stw	r3,24(sp)
 100424c:	003e7006 	br	1003c10 <__alt_mem_epcs+0xff002c10>
 1004250:	04400044 	movi	r17,1
 1004254:	003b2006 	br	1002ed8 <__alt_mem_epcs+0xff001ed8>
 1004258:	000b883a 	mov	r5,zero
 100425c:	003b3d06 	br	1002f54 <__alt_mem_epcs+0xff001f54>
 1004260:	d8800c17 	ldw	r2,48(sp)
 1004264:	d8800615 	stw	r2,24(sp)
 1004268:	003e6906 	br	1003c10 <__alt_mem_epcs+0xff002c10>

0100426c <__sflush_r>:
 100426c:	2880030b 	ldhu	r2,12(r5)
 1004270:	defffb04 	addi	sp,sp,-20
 1004274:	dcc00315 	stw	r19,12(sp)
 1004278:	dc400115 	stw	r17,4(sp)
 100427c:	dfc00415 	stw	ra,16(sp)
 1004280:	dc800215 	stw	r18,8(sp)
 1004284:	dc000015 	stw	r16,0(sp)
 1004288:	10c0020c 	andi	r3,r2,8
 100428c:	2823883a 	mov	r17,r5
 1004290:	2027883a 	mov	r19,r4
 1004294:	1800311e 	bne	r3,zero,100435c <__sflush_r+0xf0>
 1004298:	28c00117 	ldw	r3,4(r5)
 100429c:	10820014 	ori	r2,r2,2048
 10042a0:	2880030d 	sth	r2,12(r5)
 10042a4:	00c04b0e 	bge	zero,r3,10043d4 <__sflush_r+0x168>
 10042a8:	8a000a17 	ldw	r8,40(r17)
 10042ac:	40002326 	beq	r8,zero,100433c <__sflush_r+0xd0>
 10042b0:	9c000017 	ldw	r16,0(r19)
 10042b4:	10c4000c 	andi	r3,r2,4096
 10042b8:	98000015 	stw	zero,0(r19)
 10042bc:	18004826 	beq	r3,zero,10043e0 <__sflush_r+0x174>
 10042c0:	89801417 	ldw	r6,80(r17)
 10042c4:	10c0010c 	andi	r3,r2,4
 10042c8:	18000626 	beq	r3,zero,10042e4 <__sflush_r+0x78>
 10042cc:	88c00117 	ldw	r3,4(r17)
 10042d0:	88800c17 	ldw	r2,48(r17)
 10042d4:	30cdc83a 	sub	r6,r6,r3
 10042d8:	10000226 	beq	r2,zero,10042e4 <__sflush_r+0x78>
 10042dc:	88800f17 	ldw	r2,60(r17)
 10042e0:	308dc83a 	sub	r6,r6,r2
 10042e4:	89400717 	ldw	r5,28(r17)
 10042e8:	000f883a 	mov	r7,zero
 10042ec:	9809883a 	mov	r4,r19
 10042f0:	403ee83a 	callr	r8
 10042f4:	00ffffc4 	movi	r3,-1
 10042f8:	10c04426 	beq	r2,r3,100440c <__sflush_r+0x1a0>
 10042fc:	88c0030b 	ldhu	r3,12(r17)
 1004300:	89000417 	ldw	r4,16(r17)
 1004304:	88000115 	stw	zero,4(r17)
 1004308:	197dffcc 	andi	r5,r3,63487
 100430c:	8940030d 	sth	r5,12(r17)
 1004310:	89000015 	stw	r4,0(r17)
 1004314:	18c4000c 	andi	r3,r3,4096
 1004318:	18002c1e 	bne	r3,zero,10043cc <__sflush_r+0x160>
 100431c:	89400c17 	ldw	r5,48(r17)
 1004320:	9c000015 	stw	r16,0(r19)
 1004324:	28000526 	beq	r5,zero,100433c <__sflush_r+0xd0>
 1004328:	88801004 	addi	r2,r17,64
 100432c:	28800226 	beq	r5,r2,1004338 <__sflush_r+0xcc>
 1004330:	9809883a 	mov	r4,r19
 1004334:	10049e80 	call	10049e8 <_free_r>
 1004338:	88000c15 	stw	zero,48(r17)
 100433c:	0005883a 	mov	r2,zero
 1004340:	dfc00417 	ldw	ra,16(sp)
 1004344:	dcc00317 	ldw	r19,12(sp)
 1004348:	dc800217 	ldw	r18,8(sp)
 100434c:	dc400117 	ldw	r17,4(sp)
 1004350:	dc000017 	ldw	r16,0(sp)
 1004354:	dec00504 	addi	sp,sp,20
 1004358:	f800283a 	ret
 100435c:	2c800417 	ldw	r18,16(r5)
 1004360:	903ff626 	beq	r18,zero,100433c <__alt_mem_epcs+0xff00333c>
 1004364:	2c000017 	ldw	r16,0(r5)
 1004368:	108000cc 	andi	r2,r2,3
 100436c:	2c800015 	stw	r18,0(r5)
 1004370:	84a1c83a 	sub	r16,r16,r18
 1004374:	1000131e 	bne	r2,zero,10043c4 <__sflush_r+0x158>
 1004378:	28800517 	ldw	r2,20(r5)
 100437c:	88800215 	stw	r2,8(r17)
 1004380:	04000316 	blt	zero,r16,1004390 <__sflush_r+0x124>
 1004384:	003fed06 	br	100433c <__alt_mem_epcs+0xff00333c>
 1004388:	90a5883a 	add	r18,r18,r2
 100438c:	043feb0e 	bge	zero,r16,100433c <__alt_mem_epcs+0xff00333c>
 1004390:	88800917 	ldw	r2,36(r17)
 1004394:	89400717 	ldw	r5,28(r17)
 1004398:	800f883a 	mov	r7,r16
 100439c:	900d883a 	mov	r6,r18
 10043a0:	9809883a 	mov	r4,r19
 10043a4:	103ee83a 	callr	r2
 10043a8:	80a1c83a 	sub	r16,r16,r2
 10043ac:	00bff616 	blt	zero,r2,1004388 <__alt_mem_epcs+0xff003388>
 10043b0:	88c0030b 	ldhu	r3,12(r17)
 10043b4:	00bfffc4 	movi	r2,-1
 10043b8:	18c01014 	ori	r3,r3,64
 10043bc:	88c0030d 	sth	r3,12(r17)
 10043c0:	003fdf06 	br	1004340 <__alt_mem_epcs+0xff003340>
 10043c4:	0005883a 	mov	r2,zero
 10043c8:	003fec06 	br	100437c <__alt_mem_epcs+0xff00337c>
 10043cc:	88801415 	stw	r2,80(r17)
 10043d0:	003fd206 	br	100431c <__alt_mem_epcs+0xff00331c>
 10043d4:	28c00f17 	ldw	r3,60(r5)
 10043d8:	00ffb316 	blt	zero,r3,10042a8 <__alt_mem_epcs+0xff0032a8>
 10043dc:	003fd706 	br	100433c <__alt_mem_epcs+0xff00333c>
 10043e0:	89400717 	ldw	r5,28(r17)
 10043e4:	000d883a 	mov	r6,zero
 10043e8:	01c00044 	movi	r7,1
 10043ec:	9809883a 	mov	r4,r19
 10043f0:	403ee83a 	callr	r8
 10043f4:	100d883a 	mov	r6,r2
 10043f8:	00bfffc4 	movi	r2,-1
 10043fc:	30801426 	beq	r6,r2,1004450 <__sflush_r+0x1e4>
 1004400:	8880030b 	ldhu	r2,12(r17)
 1004404:	8a000a17 	ldw	r8,40(r17)
 1004408:	003fae06 	br	10042c4 <__alt_mem_epcs+0xff0032c4>
 100440c:	98c00017 	ldw	r3,0(r19)
 1004410:	183fba26 	beq	r3,zero,10042fc <__alt_mem_epcs+0xff0032fc>
 1004414:	01000744 	movi	r4,29
 1004418:	19000626 	beq	r3,r4,1004434 <__sflush_r+0x1c8>
 100441c:	01000584 	movi	r4,22
 1004420:	19000426 	beq	r3,r4,1004434 <__sflush_r+0x1c8>
 1004424:	88c0030b 	ldhu	r3,12(r17)
 1004428:	18c01014 	ori	r3,r3,64
 100442c:	88c0030d 	sth	r3,12(r17)
 1004430:	003fc306 	br	1004340 <__alt_mem_epcs+0xff003340>
 1004434:	8880030b 	ldhu	r2,12(r17)
 1004438:	88c00417 	ldw	r3,16(r17)
 100443c:	88000115 	stw	zero,4(r17)
 1004440:	10bdffcc 	andi	r2,r2,63487
 1004444:	8880030d 	sth	r2,12(r17)
 1004448:	88c00015 	stw	r3,0(r17)
 100444c:	003fb306 	br	100431c <__alt_mem_epcs+0xff00331c>
 1004450:	98800017 	ldw	r2,0(r19)
 1004454:	103fea26 	beq	r2,zero,1004400 <__alt_mem_epcs+0xff003400>
 1004458:	00c00744 	movi	r3,29
 100445c:	10c00226 	beq	r2,r3,1004468 <__sflush_r+0x1fc>
 1004460:	00c00584 	movi	r3,22
 1004464:	10c0031e 	bne	r2,r3,1004474 <__sflush_r+0x208>
 1004468:	9c000015 	stw	r16,0(r19)
 100446c:	0005883a 	mov	r2,zero
 1004470:	003fb306 	br	1004340 <__alt_mem_epcs+0xff003340>
 1004474:	88c0030b 	ldhu	r3,12(r17)
 1004478:	3005883a 	mov	r2,r6
 100447c:	18c01014 	ori	r3,r3,64
 1004480:	88c0030d 	sth	r3,12(r17)
 1004484:	003fae06 	br	1004340 <__alt_mem_epcs+0xff003340>

01004488 <_fflush_r>:
 1004488:	defffd04 	addi	sp,sp,-12
 100448c:	dc000115 	stw	r16,4(sp)
 1004490:	dfc00215 	stw	ra,8(sp)
 1004494:	2021883a 	mov	r16,r4
 1004498:	20000226 	beq	r4,zero,10044a4 <_fflush_r+0x1c>
 100449c:	20800e17 	ldw	r2,56(r4)
 10044a0:	10000c26 	beq	r2,zero,10044d4 <_fflush_r+0x4c>
 10044a4:	2880030f 	ldh	r2,12(r5)
 10044a8:	1000051e 	bne	r2,zero,10044c0 <_fflush_r+0x38>
 10044ac:	0005883a 	mov	r2,zero
 10044b0:	dfc00217 	ldw	ra,8(sp)
 10044b4:	dc000117 	ldw	r16,4(sp)
 10044b8:	dec00304 	addi	sp,sp,12
 10044bc:	f800283a 	ret
 10044c0:	8009883a 	mov	r4,r16
 10044c4:	dfc00217 	ldw	ra,8(sp)
 10044c8:	dc000117 	ldw	r16,4(sp)
 10044cc:	dec00304 	addi	sp,sp,12
 10044d0:	100426c1 	jmpi	100426c <__sflush_r>
 10044d4:	d9400015 	stw	r5,0(sp)
 10044d8:	10048740 	call	1004874 <__sinit>
 10044dc:	d9400017 	ldw	r5,0(sp)
 10044e0:	003ff006 	br	10044a4 <__alt_mem_epcs+0xff0034a4>

010044e4 <fflush>:
 10044e4:	20000526 	beq	r4,zero,10044fc <fflush+0x18>
 10044e8:	00804074 	movhi	r2,257
 10044ec:	108d9e04 	addi	r2,r2,13944
 10044f0:	200b883a 	mov	r5,r4
 10044f4:	11000017 	ldw	r4,0(r2)
 10044f8:	10044881 	jmpi	1004488 <_fflush_r>
 10044fc:	00804074 	movhi	r2,257
 1004500:	108d9d04 	addi	r2,r2,13940
 1004504:	11000017 	ldw	r4,0(r2)
 1004508:	01404034 	movhi	r5,256
 100450c:	29512204 	addi	r5,r5,17544
 1004510:	10052841 	jmpi	1005284 <_fwalk_reent>

01004514 <__fp_unlock>:
 1004514:	0005883a 	mov	r2,zero
 1004518:	f800283a 	ret

0100451c <_cleanup_r>:
 100451c:	01404074 	movhi	r5,257
 1004520:	29650804 	addi	r5,r5,-27616
 1004524:	10052841 	jmpi	1005284 <_fwalk_reent>

01004528 <__sinit.part.1>:
 1004528:	defff704 	addi	sp,sp,-36
 100452c:	00c04034 	movhi	r3,256
 1004530:	dfc00815 	stw	ra,32(sp)
 1004534:	ddc00715 	stw	r23,28(sp)
 1004538:	dd800615 	stw	r22,24(sp)
 100453c:	dd400515 	stw	r21,20(sp)
 1004540:	dd000415 	stw	r20,16(sp)
 1004544:	dcc00315 	stw	r19,12(sp)
 1004548:	dc800215 	stw	r18,8(sp)
 100454c:	dc400115 	stw	r17,4(sp)
 1004550:	dc000015 	stw	r16,0(sp)
 1004554:	18d14704 	addi	r3,r3,17692
 1004558:	24000117 	ldw	r16,4(r4)
 100455c:	20c00f15 	stw	r3,60(r4)
 1004560:	2080bb04 	addi	r2,r4,748
 1004564:	00c000c4 	movi	r3,3
 1004568:	20c0b915 	stw	r3,740(r4)
 100456c:	2080ba15 	stw	r2,744(r4)
 1004570:	2000b815 	stw	zero,736(r4)
 1004574:	05c00204 	movi	r23,8
 1004578:	00800104 	movi	r2,4
 100457c:	2025883a 	mov	r18,r4
 1004580:	b80d883a 	mov	r6,r23
 1004584:	81001704 	addi	r4,r16,92
 1004588:	000b883a 	mov	r5,zero
 100458c:	80000015 	stw	zero,0(r16)
 1004590:	80000115 	stw	zero,4(r16)
 1004594:	80000215 	stw	zero,8(r16)
 1004598:	8080030d 	sth	r2,12(r16)
 100459c:	80001915 	stw	zero,100(r16)
 10045a0:	8000038d 	sth	zero,14(r16)
 10045a4:	80000415 	stw	zero,16(r16)
 10045a8:	80000515 	stw	zero,20(r16)
 10045ac:	80000615 	stw	zero,24(r16)
 10045b0:	10061740 	call	1006174 <memset>
 10045b4:	05804034 	movhi	r22,256
 10045b8:	94400217 	ldw	r17,8(r18)
 10045bc:	05404034 	movhi	r21,256
 10045c0:	05004034 	movhi	r20,256
 10045c4:	04c04034 	movhi	r19,256
 10045c8:	b59e6004 	addi	r22,r22,31104
 10045cc:	ad5e7704 	addi	r21,r21,31196
 10045d0:	a51e9604 	addi	r20,r20,31320
 10045d4:	9cdead04 	addi	r19,r19,31412
 10045d8:	85800815 	stw	r22,32(r16)
 10045dc:	85400915 	stw	r21,36(r16)
 10045e0:	85000a15 	stw	r20,40(r16)
 10045e4:	84c00b15 	stw	r19,44(r16)
 10045e8:	84000715 	stw	r16,28(r16)
 10045ec:	00800284 	movi	r2,10
 10045f0:	8880030d 	sth	r2,12(r17)
 10045f4:	00800044 	movi	r2,1
 10045f8:	b80d883a 	mov	r6,r23
 10045fc:	89001704 	addi	r4,r17,92
 1004600:	000b883a 	mov	r5,zero
 1004604:	88000015 	stw	zero,0(r17)
 1004608:	88000115 	stw	zero,4(r17)
 100460c:	88000215 	stw	zero,8(r17)
 1004610:	88001915 	stw	zero,100(r17)
 1004614:	8880038d 	sth	r2,14(r17)
 1004618:	88000415 	stw	zero,16(r17)
 100461c:	88000515 	stw	zero,20(r17)
 1004620:	88000615 	stw	zero,24(r17)
 1004624:	10061740 	call	1006174 <memset>
 1004628:	94000317 	ldw	r16,12(r18)
 100462c:	00800484 	movi	r2,18
 1004630:	8c400715 	stw	r17,28(r17)
 1004634:	8d800815 	stw	r22,32(r17)
 1004638:	8d400915 	stw	r21,36(r17)
 100463c:	8d000a15 	stw	r20,40(r17)
 1004640:	8cc00b15 	stw	r19,44(r17)
 1004644:	8080030d 	sth	r2,12(r16)
 1004648:	00800084 	movi	r2,2
 100464c:	80000015 	stw	zero,0(r16)
 1004650:	80000115 	stw	zero,4(r16)
 1004654:	80000215 	stw	zero,8(r16)
 1004658:	80001915 	stw	zero,100(r16)
 100465c:	8080038d 	sth	r2,14(r16)
 1004660:	80000415 	stw	zero,16(r16)
 1004664:	80000515 	stw	zero,20(r16)
 1004668:	80000615 	stw	zero,24(r16)
 100466c:	b80d883a 	mov	r6,r23
 1004670:	000b883a 	mov	r5,zero
 1004674:	81001704 	addi	r4,r16,92
 1004678:	10061740 	call	1006174 <memset>
 100467c:	00800044 	movi	r2,1
 1004680:	84000715 	stw	r16,28(r16)
 1004684:	85800815 	stw	r22,32(r16)
 1004688:	85400915 	stw	r21,36(r16)
 100468c:	85000a15 	stw	r20,40(r16)
 1004690:	84c00b15 	stw	r19,44(r16)
 1004694:	90800e15 	stw	r2,56(r18)
 1004698:	dfc00817 	ldw	ra,32(sp)
 100469c:	ddc00717 	ldw	r23,28(sp)
 10046a0:	dd800617 	ldw	r22,24(sp)
 10046a4:	dd400517 	ldw	r21,20(sp)
 10046a8:	dd000417 	ldw	r20,16(sp)
 10046ac:	dcc00317 	ldw	r19,12(sp)
 10046b0:	dc800217 	ldw	r18,8(sp)
 10046b4:	dc400117 	ldw	r17,4(sp)
 10046b8:	dc000017 	ldw	r16,0(sp)
 10046bc:	dec00904 	addi	sp,sp,36
 10046c0:	f800283a 	ret

010046c4 <__fp_lock>:
 10046c4:	0005883a 	mov	r2,zero
 10046c8:	f800283a 	ret

010046cc <__sfmoreglue>:
 10046cc:	defffc04 	addi	sp,sp,-16
 10046d0:	dc800215 	stw	r18,8(sp)
 10046d4:	2825883a 	mov	r18,r5
 10046d8:	dc000015 	stw	r16,0(sp)
 10046dc:	01401a04 	movi	r5,104
 10046e0:	2021883a 	mov	r16,r4
 10046e4:	913fffc4 	addi	r4,r18,-1
 10046e8:	dfc00315 	stw	ra,12(sp)
 10046ec:	dc400115 	stw	r17,4(sp)
 10046f0:	100a9500 	call	100a950 <__mulsi3>
 10046f4:	8009883a 	mov	r4,r16
 10046f8:	11401d04 	addi	r5,r2,116
 10046fc:	1023883a 	mov	r17,r2
 1004700:	10055e00 	call	10055e0 <_malloc_r>
 1004704:	1021883a 	mov	r16,r2
 1004708:	10000726 	beq	r2,zero,1004728 <__sfmoreglue+0x5c>
 100470c:	11000304 	addi	r4,r2,12
 1004710:	10000015 	stw	zero,0(r2)
 1004714:	14800115 	stw	r18,4(r2)
 1004718:	11000215 	stw	r4,8(r2)
 100471c:	89801a04 	addi	r6,r17,104
 1004720:	000b883a 	mov	r5,zero
 1004724:	10061740 	call	1006174 <memset>
 1004728:	8005883a 	mov	r2,r16
 100472c:	dfc00317 	ldw	ra,12(sp)
 1004730:	dc800217 	ldw	r18,8(sp)
 1004734:	dc400117 	ldw	r17,4(sp)
 1004738:	dc000017 	ldw	r16,0(sp)
 100473c:	dec00404 	addi	sp,sp,16
 1004740:	f800283a 	ret

01004744 <__sfp>:
 1004744:	defffb04 	addi	sp,sp,-20
 1004748:	dc000015 	stw	r16,0(sp)
 100474c:	04004074 	movhi	r16,257
 1004750:	840d9d04 	addi	r16,r16,13940
 1004754:	dcc00315 	stw	r19,12(sp)
 1004758:	2027883a 	mov	r19,r4
 100475c:	81000017 	ldw	r4,0(r16)
 1004760:	dfc00415 	stw	ra,16(sp)
 1004764:	dc800215 	stw	r18,8(sp)
 1004768:	20800e17 	ldw	r2,56(r4)
 100476c:	dc400115 	stw	r17,4(sp)
 1004770:	1000021e 	bne	r2,zero,100477c <__sfp+0x38>
 1004774:	10045280 	call	1004528 <__sinit.part.1>
 1004778:	81000017 	ldw	r4,0(r16)
 100477c:	2480b804 	addi	r18,r4,736
 1004780:	047fffc4 	movi	r17,-1
 1004784:	91000117 	ldw	r4,4(r18)
 1004788:	94000217 	ldw	r16,8(r18)
 100478c:	213fffc4 	addi	r4,r4,-1
 1004790:	20000a16 	blt	r4,zero,10047bc <__sfp+0x78>
 1004794:	8080030f 	ldh	r2,12(r16)
 1004798:	10000c26 	beq	r2,zero,10047cc <__sfp+0x88>
 100479c:	80c01d04 	addi	r3,r16,116
 10047a0:	00000206 	br	10047ac <__sfp+0x68>
 10047a4:	18bfe60f 	ldh	r2,-104(r3)
 10047a8:	10000826 	beq	r2,zero,10047cc <__sfp+0x88>
 10047ac:	213fffc4 	addi	r4,r4,-1
 10047b0:	1c3ffd04 	addi	r16,r3,-12
 10047b4:	18c01a04 	addi	r3,r3,104
 10047b8:	247ffa1e 	bne	r4,r17,10047a4 <__alt_mem_epcs+0xff0037a4>
 10047bc:	90800017 	ldw	r2,0(r18)
 10047c0:	10001d26 	beq	r2,zero,1004838 <__sfp+0xf4>
 10047c4:	1025883a 	mov	r18,r2
 10047c8:	003fee06 	br	1004784 <__alt_mem_epcs+0xff003784>
 10047cc:	00bfffc4 	movi	r2,-1
 10047d0:	8080038d 	sth	r2,14(r16)
 10047d4:	00800044 	movi	r2,1
 10047d8:	8080030d 	sth	r2,12(r16)
 10047dc:	80001915 	stw	zero,100(r16)
 10047e0:	80000015 	stw	zero,0(r16)
 10047e4:	80000215 	stw	zero,8(r16)
 10047e8:	80000115 	stw	zero,4(r16)
 10047ec:	80000415 	stw	zero,16(r16)
 10047f0:	80000515 	stw	zero,20(r16)
 10047f4:	80000615 	stw	zero,24(r16)
 10047f8:	01800204 	movi	r6,8
 10047fc:	000b883a 	mov	r5,zero
 1004800:	81001704 	addi	r4,r16,92
 1004804:	10061740 	call	1006174 <memset>
 1004808:	8005883a 	mov	r2,r16
 100480c:	80000c15 	stw	zero,48(r16)
 1004810:	80000d15 	stw	zero,52(r16)
 1004814:	80001115 	stw	zero,68(r16)
 1004818:	80001215 	stw	zero,72(r16)
 100481c:	dfc00417 	ldw	ra,16(sp)
 1004820:	dcc00317 	ldw	r19,12(sp)
 1004824:	dc800217 	ldw	r18,8(sp)
 1004828:	dc400117 	ldw	r17,4(sp)
 100482c:	dc000017 	ldw	r16,0(sp)
 1004830:	dec00504 	addi	sp,sp,20
 1004834:	f800283a 	ret
 1004838:	01400104 	movi	r5,4
 100483c:	9809883a 	mov	r4,r19
 1004840:	10046cc0 	call	10046cc <__sfmoreglue>
 1004844:	90800015 	stw	r2,0(r18)
 1004848:	103fde1e 	bne	r2,zero,10047c4 <__alt_mem_epcs+0xff0037c4>
 100484c:	00800304 	movi	r2,12
 1004850:	98800015 	stw	r2,0(r19)
 1004854:	0005883a 	mov	r2,zero
 1004858:	003ff006 	br	100481c <__alt_mem_epcs+0xff00381c>

0100485c <_cleanup>:
 100485c:	00804074 	movhi	r2,257
 1004860:	108d9d04 	addi	r2,r2,13940
 1004864:	11000017 	ldw	r4,0(r2)
 1004868:	01404074 	movhi	r5,257
 100486c:	29650804 	addi	r5,r5,-27616
 1004870:	10052841 	jmpi	1005284 <_fwalk_reent>

01004874 <__sinit>:
 1004874:	20800e17 	ldw	r2,56(r4)
 1004878:	10000126 	beq	r2,zero,1004880 <__sinit+0xc>
 100487c:	f800283a 	ret
 1004880:	10045281 	jmpi	1004528 <__sinit.part.1>

01004884 <__sfp_lock_acquire>:
 1004884:	f800283a 	ret

01004888 <__sfp_lock_release>:
 1004888:	f800283a 	ret

0100488c <__sinit_lock_acquire>:
 100488c:	f800283a 	ret

01004890 <__sinit_lock_release>:
 1004890:	f800283a 	ret

01004894 <__fp_lock_all>:
 1004894:	00804074 	movhi	r2,257
 1004898:	108d9e04 	addi	r2,r2,13944
 100489c:	11000017 	ldw	r4,0(r2)
 10048a0:	01404034 	movhi	r5,256
 10048a4:	2951b104 	addi	r5,r5,18116
 10048a8:	10051c01 	jmpi	10051c0 <_fwalk>

010048ac <__fp_unlock_all>:
 10048ac:	00804074 	movhi	r2,257
 10048b0:	108d9e04 	addi	r2,r2,13944
 10048b4:	11000017 	ldw	r4,0(r2)
 10048b8:	01404034 	movhi	r5,256
 10048bc:	29514504 	addi	r5,r5,17684
 10048c0:	10051c01 	jmpi	10051c0 <_fwalk>

010048c4 <_malloc_trim_r>:
 10048c4:	defffb04 	addi	sp,sp,-20
 10048c8:	dcc00315 	stw	r19,12(sp)
 10048cc:	04c04074 	movhi	r19,257
 10048d0:	dc800215 	stw	r18,8(sp)
 10048d4:	dc400115 	stw	r17,4(sp)
 10048d8:	dc000015 	stw	r16,0(sp)
 10048dc:	dfc00415 	stw	ra,16(sp)
 10048e0:	2821883a 	mov	r16,r5
 10048e4:	9cc78404 	addi	r19,r19,7696
 10048e8:	2025883a 	mov	r18,r4
 10048ec:	100d6cc0 	call	100d6cc <__malloc_lock>
 10048f0:	98800217 	ldw	r2,8(r19)
 10048f4:	14400117 	ldw	r17,4(r2)
 10048f8:	00bfff04 	movi	r2,-4
 10048fc:	88a2703a 	and	r17,r17,r2
 1004900:	8c21c83a 	sub	r16,r17,r16
 1004904:	8403fbc4 	addi	r16,r16,4079
 1004908:	8020d33a 	srli	r16,r16,12
 100490c:	0083ffc4 	movi	r2,4095
 1004910:	843fffc4 	addi	r16,r16,-1
 1004914:	8020933a 	slli	r16,r16,12
 1004918:	1400060e 	bge	r2,r16,1004934 <_malloc_trim_r+0x70>
 100491c:	000b883a 	mov	r5,zero
 1004920:	9009883a 	mov	r4,r18
 1004924:	100792c0 	call	100792c <_sbrk_r>
 1004928:	98c00217 	ldw	r3,8(r19)
 100492c:	1c47883a 	add	r3,r3,r17
 1004930:	10c00a26 	beq	r2,r3,100495c <_malloc_trim_r+0x98>
 1004934:	9009883a 	mov	r4,r18
 1004938:	100d6f00 	call	100d6f0 <__malloc_unlock>
 100493c:	0005883a 	mov	r2,zero
 1004940:	dfc00417 	ldw	ra,16(sp)
 1004944:	dcc00317 	ldw	r19,12(sp)
 1004948:	dc800217 	ldw	r18,8(sp)
 100494c:	dc400117 	ldw	r17,4(sp)
 1004950:	dc000017 	ldw	r16,0(sp)
 1004954:	dec00504 	addi	sp,sp,20
 1004958:	f800283a 	ret
 100495c:	040bc83a 	sub	r5,zero,r16
 1004960:	9009883a 	mov	r4,r18
 1004964:	100792c0 	call	100792c <_sbrk_r>
 1004968:	00ffffc4 	movi	r3,-1
 100496c:	10c00d26 	beq	r2,r3,10049a4 <_malloc_trim_r+0xe0>
 1004970:	00c04074 	movhi	r3,257
 1004974:	18cdbd04 	addi	r3,r3,14068
 1004978:	18800017 	ldw	r2,0(r3)
 100497c:	99000217 	ldw	r4,8(r19)
 1004980:	8c23c83a 	sub	r17,r17,r16
 1004984:	8c400054 	ori	r17,r17,1
 1004988:	1421c83a 	sub	r16,r2,r16
 100498c:	24400115 	stw	r17,4(r4)
 1004990:	9009883a 	mov	r4,r18
 1004994:	1c000015 	stw	r16,0(r3)
 1004998:	100d6f00 	call	100d6f0 <__malloc_unlock>
 100499c:	00800044 	movi	r2,1
 10049a0:	003fe706 	br	1004940 <__alt_mem_epcs+0xff003940>
 10049a4:	000b883a 	mov	r5,zero
 10049a8:	9009883a 	mov	r4,r18
 10049ac:	100792c0 	call	100792c <_sbrk_r>
 10049b0:	99000217 	ldw	r4,8(r19)
 10049b4:	014003c4 	movi	r5,15
 10049b8:	1107c83a 	sub	r3,r2,r4
 10049bc:	28ffdd0e 	bge	r5,r3,1004934 <__alt_mem_epcs+0xff003934>
 10049c0:	01404074 	movhi	r5,257
 10049c4:	294da004 	addi	r5,r5,13952
 10049c8:	29400017 	ldw	r5,0(r5)
 10049cc:	18c00054 	ori	r3,r3,1
 10049d0:	20c00115 	stw	r3,4(r4)
 10049d4:	00c04074 	movhi	r3,257
 10049d8:	1145c83a 	sub	r2,r2,r5
 10049dc:	18cdbd04 	addi	r3,r3,14068
 10049e0:	18800015 	stw	r2,0(r3)
 10049e4:	003fd306 	br	1004934 <__alt_mem_epcs+0xff003934>

010049e8 <_free_r>:
 10049e8:	28004126 	beq	r5,zero,1004af0 <_free_r+0x108>
 10049ec:	defffd04 	addi	sp,sp,-12
 10049f0:	dc400115 	stw	r17,4(sp)
 10049f4:	dc000015 	stw	r16,0(sp)
 10049f8:	2023883a 	mov	r17,r4
 10049fc:	2821883a 	mov	r16,r5
 1004a00:	dfc00215 	stw	ra,8(sp)
 1004a04:	100d6cc0 	call	100d6cc <__malloc_lock>
 1004a08:	81ffff17 	ldw	r7,-4(r16)
 1004a0c:	00bfff84 	movi	r2,-2
 1004a10:	01004074 	movhi	r4,257
 1004a14:	81bffe04 	addi	r6,r16,-8
 1004a18:	3884703a 	and	r2,r7,r2
 1004a1c:	21078404 	addi	r4,r4,7696
 1004a20:	308b883a 	add	r5,r6,r2
 1004a24:	2a400117 	ldw	r9,4(r5)
 1004a28:	22000217 	ldw	r8,8(r4)
 1004a2c:	00ffff04 	movi	r3,-4
 1004a30:	48c6703a 	and	r3,r9,r3
 1004a34:	2a005726 	beq	r5,r8,1004b94 <_free_r+0x1ac>
 1004a38:	28c00115 	stw	r3,4(r5)
 1004a3c:	39c0004c 	andi	r7,r7,1
 1004a40:	3800091e 	bne	r7,zero,1004a68 <_free_r+0x80>
 1004a44:	823ffe17 	ldw	r8,-8(r16)
 1004a48:	22400204 	addi	r9,r4,8
 1004a4c:	320dc83a 	sub	r6,r6,r8
 1004a50:	31c00217 	ldw	r7,8(r6)
 1004a54:	1205883a 	add	r2,r2,r8
 1004a58:	3a406526 	beq	r7,r9,1004bf0 <_free_r+0x208>
 1004a5c:	32000317 	ldw	r8,12(r6)
 1004a60:	3a000315 	stw	r8,12(r7)
 1004a64:	41c00215 	stw	r7,8(r8)
 1004a68:	28cf883a 	add	r7,r5,r3
 1004a6c:	39c00117 	ldw	r7,4(r7)
 1004a70:	39c0004c 	andi	r7,r7,1
 1004a74:	38003a26 	beq	r7,zero,1004b60 <_free_r+0x178>
 1004a78:	10c00054 	ori	r3,r2,1
 1004a7c:	30c00115 	stw	r3,4(r6)
 1004a80:	3087883a 	add	r3,r6,r2
 1004a84:	18800015 	stw	r2,0(r3)
 1004a88:	00c07fc4 	movi	r3,511
 1004a8c:	18801936 	bltu	r3,r2,1004af4 <_free_r+0x10c>
 1004a90:	1004d0fa 	srli	r2,r2,3
 1004a94:	01c00044 	movi	r7,1
 1004a98:	21400117 	ldw	r5,4(r4)
 1004a9c:	10c00044 	addi	r3,r2,1
 1004aa0:	18c7883a 	add	r3,r3,r3
 1004aa4:	1005d0ba 	srai	r2,r2,2
 1004aa8:	18c7883a 	add	r3,r3,r3
 1004aac:	18c7883a 	add	r3,r3,r3
 1004ab0:	1907883a 	add	r3,r3,r4
 1004ab4:	3884983a 	sll	r2,r7,r2
 1004ab8:	19c00017 	ldw	r7,0(r3)
 1004abc:	1a3ffe04 	addi	r8,r3,-8
 1004ac0:	1144b03a 	or	r2,r2,r5
 1004ac4:	32000315 	stw	r8,12(r6)
 1004ac8:	31c00215 	stw	r7,8(r6)
 1004acc:	20800115 	stw	r2,4(r4)
 1004ad0:	19800015 	stw	r6,0(r3)
 1004ad4:	39800315 	stw	r6,12(r7)
 1004ad8:	8809883a 	mov	r4,r17
 1004adc:	dfc00217 	ldw	ra,8(sp)
 1004ae0:	dc400117 	ldw	r17,4(sp)
 1004ae4:	dc000017 	ldw	r16,0(sp)
 1004ae8:	dec00304 	addi	sp,sp,12
 1004aec:	100d6f01 	jmpi	100d6f0 <__malloc_unlock>
 1004af0:	f800283a 	ret
 1004af4:	100ad27a 	srli	r5,r2,9
 1004af8:	00c00104 	movi	r3,4
 1004afc:	19404a36 	bltu	r3,r5,1004c28 <_free_r+0x240>
 1004b00:	100ad1ba 	srli	r5,r2,6
 1004b04:	28c00e44 	addi	r3,r5,57
 1004b08:	18c7883a 	add	r3,r3,r3
 1004b0c:	29400e04 	addi	r5,r5,56
 1004b10:	18c7883a 	add	r3,r3,r3
 1004b14:	18c7883a 	add	r3,r3,r3
 1004b18:	1909883a 	add	r4,r3,r4
 1004b1c:	20c00017 	ldw	r3,0(r4)
 1004b20:	01c04074 	movhi	r7,257
 1004b24:	213ffe04 	addi	r4,r4,-8
 1004b28:	39c78404 	addi	r7,r7,7696
 1004b2c:	20c04426 	beq	r4,r3,1004c40 <_free_r+0x258>
 1004b30:	01ffff04 	movi	r7,-4
 1004b34:	19400117 	ldw	r5,4(r3)
 1004b38:	29ca703a 	and	r5,r5,r7
 1004b3c:	1140022e 	bgeu	r2,r5,1004b48 <_free_r+0x160>
 1004b40:	18c00217 	ldw	r3,8(r3)
 1004b44:	20fffb1e 	bne	r4,r3,1004b34 <__alt_mem_epcs+0xff003b34>
 1004b48:	19000317 	ldw	r4,12(r3)
 1004b4c:	31000315 	stw	r4,12(r6)
 1004b50:	30c00215 	stw	r3,8(r6)
 1004b54:	21800215 	stw	r6,8(r4)
 1004b58:	19800315 	stw	r6,12(r3)
 1004b5c:	003fde06 	br	1004ad8 <__alt_mem_epcs+0xff003ad8>
 1004b60:	29c00217 	ldw	r7,8(r5)
 1004b64:	10c5883a 	add	r2,r2,r3
 1004b68:	00c04074 	movhi	r3,257
 1004b6c:	18c78604 	addi	r3,r3,7704
 1004b70:	38c03b26 	beq	r7,r3,1004c60 <_free_r+0x278>
 1004b74:	2a000317 	ldw	r8,12(r5)
 1004b78:	11400054 	ori	r5,r2,1
 1004b7c:	3087883a 	add	r3,r6,r2
 1004b80:	3a000315 	stw	r8,12(r7)
 1004b84:	41c00215 	stw	r7,8(r8)
 1004b88:	31400115 	stw	r5,4(r6)
 1004b8c:	18800015 	stw	r2,0(r3)
 1004b90:	003fbd06 	br	1004a88 <__alt_mem_epcs+0xff003a88>
 1004b94:	39c0004c 	andi	r7,r7,1
 1004b98:	10c5883a 	add	r2,r2,r3
 1004b9c:	3800071e 	bne	r7,zero,1004bbc <_free_r+0x1d4>
 1004ba0:	81fffe17 	ldw	r7,-8(r16)
 1004ba4:	31cdc83a 	sub	r6,r6,r7
 1004ba8:	30c00317 	ldw	r3,12(r6)
 1004bac:	31400217 	ldw	r5,8(r6)
 1004bb0:	11c5883a 	add	r2,r2,r7
 1004bb4:	28c00315 	stw	r3,12(r5)
 1004bb8:	19400215 	stw	r5,8(r3)
 1004bbc:	10c00054 	ori	r3,r2,1
 1004bc0:	30c00115 	stw	r3,4(r6)
 1004bc4:	00c04074 	movhi	r3,257
 1004bc8:	18cda104 	addi	r3,r3,13956
 1004bcc:	18c00017 	ldw	r3,0(r3)
 1004bd0:	21800215 	stw	r6,8(r4)
 1004bd4:	10ffc036 	bltu	r2,r3,1004ad8 <__alt_mem_epcs+0xff003ad8>
 1004bd8:	00804074 	movhi	r2,257
 1004bdc:	108db404 	addi	r2,r2,14032
 1004be0:	11400017 	ldw	r5,0(r2)
 1004be4:	8809883a 	mov	r4,r17
 1004be8:	10048c40 	call	10048c4 <_malloc_trim_r>
 1004bec:	003fba06 	br	1004ad8 <__alt_mem_epcs+0xff003ad8>
 1004bf0:	28c9883a 	add	r4,r5,r3
 1004bf4:	21000117 	ldw	r4,4(r4)
 1004bf8:	2100004c 	andi	r4,r4,1
 1004bfc:	2000391e 	bne	r4,zero,1004ce4 <_free_r+0x2fc>
 1004c00:	29c00217 	ldw	r7,8(r5)
 1004c04:	29000317 	ldw	r4,12(r5)
 1004c08:	1885883a 	add	r2,r3,r2
 1004c0c:	10c00054 	ori	r3,r2,1
 1004c10:	39000315 	stw	r4,12(r7)
 1004c14:	21c00215 	stw	r7,8(r4)
 1004c18:	30c00115 	stw	r3,4(r6)
 1004c1c:	308d883a 	add	r6,r6,r2
 1004c20:	30800015 	stw	r2,0(r6)
 1004c24:	003fac06 	br	1004ad8 <__alt_mem_epcs+0xff003ad8>
 1004c28:	00c00504 	movi	r3,20
 1004c2c:	19401536 	bltu	r3,r5,1004c84 <_free_r+0x29c>
 1004c30:	28c01704 	addi	r3,r5,92
 1004c34:	18c7883a 	add	r3,r3,r3
 1004c38:	294016c4 	addi	r5,r5,91
 1004c3c:	003fb406 	br	1004b10 <__alt_mem_epcs+0xff003b10>
 1004c40:	280bd0ba 	srai	r5,r5,2
 1004c44:	00c00044 	movi	r3,1
 1004c48:	38800117 	ldw	r2,4(r7)
 1004c4c:	194a983a 	sll	r5,r3,r5
 1004c50:	2007883a 	mov	r3,r4
 1004c54:	2884b03a 	or	r2,r5,r2
 1004c58:	38800115 	stw	r2,4(r7)
 1004c5c:	003fbb06 	br	1004b4c <__alt_mem_epcs+0xff003b4c>
 1004c60:	21800515 	stw	r6,20(r4)
 1004c64:	21800415 	stw	r6,16(r4)
 1004c68:	10c00054 	ori	r3,r2,1
 1004c6c:	31c00315 	stw	r7,12(r6)
 1004c70:	31c00215 	stw	r7,8(r6)
 1004c74:	30c00115 	stw	r3,4(r6)
 1004c78:	308d883a 	add	r6,r6,r2
 1004c7c:	30800015 	stw	r2,0(r6)
 1004c80:	003f9506 	br	1004ad8 <__alt_mem_epcs+0xff003ad8>
 1004c84:	00c01504 	movi	r3,84
 1004c88:	19400536 	bltu	r3,r5,1004ca0 <_free_r+0x2b8>
 1004c8c:	100ad33a 	srli	r5,r2,12
 1004c90:	28c01bc4 	addi	r3,r5,111
 1004c94:	18c7883a 	add	r3,r3,r3
 1004c98:	29401b84 	addi	r5,r5,110
 1004c9c:	003f9c06 	br	1004b10 <__alt_mem_epcs+0xff003b10>
 1004ca0:	00c05504 	movi	r3,340
 1004ca4:	19400536 	bltu	r3,r5,1004cbc <_free_r+0x2d4>
 1004ca8:	100ad3fa 	srli	r5,r2,15
 1004cac:	28c01e04 	addi	r3,r5,120
 1004cb0:	18c7883a 	add	r3,r3,r3
 1004cb4:	29401dc4 	addi	r5,r5,119
 1004cb8:	003f9506 	br	1004b10 <__alt_mem_epcs+0xff003b10>
 1004cbc:	00c15504 	movi	r3,1364
 1004cc0:	19400536 	bltu	r3,r5,1004cd8 <_free_r+0x2f0>
 1004cc4:	100ad4ba 	srli	r5,r2,18
 1004cc8:	28c01f44 	addi	r3,r5,125
 1004ccc:	18c7883a 	add	r3,r3,r3
 1004cd0:	29401f04 	addi	r5,r5,124
 1004cd4:	003f8e06 	br	1004b10 <__alt_mem_epcs+0xff003b10>
 1004cd8:	00c03f84 	movi	r3,254
 1004cdc:	01401f84 	movi	r5,126
 1004ce0:	003f8b06 	br	1004b10 <__alt_mem_epcs+0xff003b10>
 1004ce4:	10c00054 	ori	r3,r2,1
 1004ce8:	30c00115 	stw	r3,4(r6)
 1004cec:	308d883a 	add	r6,r6,r2
 1004cf0:	30800015 	stw	r2,0(r6)
 1004cf4:	003f7806 	br	1004ad8 <__alt_mem_epcs+0xff003ad8>

01004cf8 <__sfvwrite_r>:
 1004cf8:	30800217 	ldw	r2,8(r6)
 1004cfc:	10006726 	beq	r2,zero,1004e9c <__sfvwrite_r+0x1a4>
 1004d00:	28c0030b 	ldhu	r3,12(r5)
 1004d04:	defff404 	addi	sp,sp,-48
 1004d08:	dd400715 	stw	r21,28(sp)
 1004d0c:	dd000615 	stw	r20,24(sp)
 1004d10:	dc000215 	stw	r16,8(sp)
 1004d14:	dfc00b15 	stw	ra,44(sp)
 1004d18:	df000a15 	stw	fp,40(sp)
 1004d1c:	ddc00915 	stw	r23,36(sp)
 1004d20:	dd800815 	stw	r22,32(sp)
 1004d24:	dcc00515 	stw	r19,20(sp)
 1004d28:	dc800415 	stw	r18,16(sp)
 1004d2c:	dc400315 	stw	r17,12(sp)
 1004d30:	1880020c 	andi	r2,r3,8
 1004d34:	2821883a 	mov	r16,r5
 1004d38:	202b883a 	mov	r21,r4
 1004d3c:	3029883a 	mov	r20,r6
 1004d40:	10002726 	beq	r2,zero,1004de0 <__sfvwrite_r+0xe8>
 1004d44:	28800417 	ldw	r2,16(r5)
 1004d48:	10002526 	beq	r2,zero,1004de0 <__sfvwrite_r+0xe8>
 1004d4c:	1880008c 	andi	r2,r3,2
 1004d50:	a4400017 	ldw	r17,0(r20)
 1004d54:	10002a26 	beq	r2,zero,1004e00 <__sfvwrite_r+0x108>
 1004d58:	05a00034 	movhi	r22,32768
 1004d5c:	0027883a 	mov	r19,zero
 1004d60:	0025883a 	mov	r18,zero
 1004d64:	b5bf0004 	addi	r22,r22,-1024
 1004d68:	980d883a 	mov	r6,r19
 1004d6c:	a809883a 	mov	r4,r21
 1004d70:	90004626 	beq	r18,zero,1004e8c <__sfvwrite_r+0x194>
 1004d74:	900f883a 	mov	r7,r18
 1004d78:	b480022e 	bgeu	r22,r18,1004d84 <__sfvwrite_r+0x8c>
 1004d7c:	01e00034 	movhi	r7,32768
 1004d80:	39ff0004 	addi	r7,r7,-1024
 1004d84:	80800917 	ldw	r2,36(r16)
 1004d88:	81400717 	ldw	r5,28(r16)
 1004d8c:	103ee83a 	callr	r2
 1004d90:	00805a0e 	bge	zero,r2,1004efc <__sfvwrite_r+0x204>
 1004d94:	a0c00217 	ldw	r3,8(r20)
 1004d98:	98a7883a 	add	r19,r19,r2
 1004d9c:	90a5c83a 	sub	r18,r18,r2
 1004da0:	1885c83a 	sub	r2,r3,r2
 1004da4:	a0800215 	stw	r2,8(r20)
 1004da8:	103fef1e 	bne	r2,zero,1004d68 <__alt_mem_epcs+0xff003d68>
 1004dac:	0005883a 	mov	r2,zero
 1004db0:	dfc00b17 	ldw	ra,44(sp)
 1004db4:	df000a17 	ldw	fp,40(sp)
 1004db8:	ddc00917 	ldw	r23,36(sp)
 1004dbc:	dd800817 	ldw	r22,32(sp)
 1004dc0:	dd400717 	ldw	r21,28(sp)
 1004dc4:	dd000617 	ldw	r20,24(sp)
 1004dc8:	dcc00517 	ldw	r19,20(sp)
 1004dcc:	dc800417 	ldw	r18,16(sp)
 1004dd0:	dc400317 	ldw	r17,12(sp)
 1004dd4:	dc000217 	ldw	r16,8(sp)
 1004dd8:	dec00c04 	addi	sp,sp,48
 1004ddc:	f800283a 	ret
 1004de0:	800b883a 	mov	r5,r16
 1004de4:	a809883a 	mov	r4,r21
 1004de8:	10028680 	call	1002868 <__swsetup_r>
 1004dec:	1000ee1e 	bne	r2,zero,10051a8 <__sfvwrite_r+0x4b0>
 1004df0:	80c0030b 	ldhu	r3,12(r16)
 1004df4:	a4400017 	ldw	r17,0(r20)
 1004df8:	1880008c 	andi	r2,r3,2
 1004dfc:	103fd61e 	bne	r2,zero,1004d58 <__alt_mem_epcs+0xff003d58>
 1004e00:	1880004c 	andi	r2,r3,1
 1004e04:	1000421e 	bne	r2,zero,1004f10 <__sfvwrite_r+0x218>
 1004e08:	0039883a 	mov	fp,zero
 1004e0c:	0025883a 	mov	r18,zero
 1004e10:	90001a26 	beq	r18,zero,1004e7c <__sfvwrite_r+0x184>
 1004e14:	1880800c 	andi	r2,r3,512
 1004e18:	84c00217 	ldw	r19,8(r16)
 1004e1c:	10002126 	beq	r2,zero,1004ea4 <__sfvwrite_r+0x1ac>
 1004e20:	982f883a 	mov	r23,r19
 1004e24:	94c09636 	bltu	r18,r19,1005080 <__sfvwrite_r+0x388>
 1004e28:	1881200c 	andi	r2,r3,1152
 1004e2c:	1000a11e 	bne	r2,zero,10050b4 <__sfvwrite_r+0x3bc>
 1004e30:	81000017 	ldw	r4,0(r16)
 1004e34:	b80d883a 	mov	r6,r23
 1004e38:	e00b883a 	mov	r5,fp
 1004e3c:	10060180 	call	1006018 <memmove>
 1004e40:	80c00217 	ldw	r3,8(r16)
 1004e44:	81000017 	ldw	r4,0(r16)
 1004e48:	9005883a 	mov	r2,r18
 1004e4c:	1ce7c83a 	sub	r19,r3,r19
 1004e50:	25cf883a 	add	r7,r4,r23
 1004e54:	84c00215 	stw	r19,8(r16)
 1004e58:	81c00015 	stw	r7,0(r16)
 1004e5c:	a0c00217 	ldw	r3,8(r20)
 1004e60:	e0b9883a 	add	fp,fp,r2
 1004e64:	90a5c83a 	sub	r18,r18,r2
 1004e68:	18a7c83a 	sub	r19,r3,r2
 1004e6c:	a4c00215 	stw	r19,8(r20)
 1004e70:	983fce26 	beq	r19,zero,1004dac <__alt_mem_epcs+0xff003dac>
 1004e74:	80c0030b 	ldhu	r3,12(r16)
 1004e78:	903fe61e 	bne	r18,zero,1004e14 <__alt_mem_epcs+0xff003e14>
 1004e7c:	8f000017 	ldw	fp,0(r17)
 1004e80:	8c800117 	ldw	r18,4(r17)
 1004e84:	8c400204 	addi	r17,r17,8
 1004e88:	003fe106 	br	1004e10 <__alt_mem_epcs+0xff003e10>
 1004e8c:	8cc00017 	ldw	r19,0(r17)
 1004e90:	8c800117 	ldw	r18,4(r17)
 1004e94:	8c400204 	addi	r17,r17,8
 1004e98:	003fb306 	br	1004d68 <__alt_mem_epcs+0xff003d68>
 1004e9c:	0005883a 	mov	r2,zero
 1004ea0:	f800283a 	ret
 1004ea4:	81000017 	ldw	r4,0(r16)
 1004ea8:	80800417 	ldw	r2,16(r16)
 1004eac:	11005a36 	bltu	r2,r4,1005018 <__sfvwrite_r+0x320>
 1004eb0:	85c00517 	ldw	r23,20(r16)
 1004eb4:	95c05836 	bltu	r18,r23,1005018 <__sfvwrite_r+0x320>
 1004eb8:	00a00034 	movhi	r2,32768
 1004ebc:	10bfffc4 	addi	r2,r2,-1
 1004ec0:	9009883a 	mov	r4,r18
 1004ec4:	1480012e 	bgeu	r2,r18,1004ecc <__sfvwrite_r+0x1d4>
 1004ec8:	1009883a 	mov	r4,r2
 1004ecc:	b80b883a 	mov	r5,r23
 1004ed0:	100a79c0 	call	100a79c <__divsi3>
 1004ed4:	b80b883a 	mov	r5,r23
 1004ed8:	1009883a 	mov	r4,r2
 1004edc:	100a9500 	call	100a950 <__mulsi3>
 1004ee0:	81400717 	ldw	r5,28(r16)
 1004ee4:	80c00917 	ldw	r3,36(r16)
 1004ee8:	100f883a 	mov	r7,r2
 1004eec:	e00d883a 	mov	r6,fp
 1004ef0:	a809883a 	mov	r4,r21
 1004ef4:	183ee83a 	callr	r3
 1004ef8:	00bfd816 	blt	zero,r2,1004e5c <__alt_mem_epcs+0xff003e5c>
 1004efc:	8080030b 	ldhu	r2,12(r16)
 1004f00:	10801014 	ori	r2,r2,64
 1004f04:	8080030d 	sth	r2,12(r16)
 1004f08:	00bfffc4 	movi	r2,-1
 1004f0c:	003fa806 	br	1004db0 <__alt_mem_epcs+0xff003db0>
 1004f10:	0027883a 	mov	r19,zero
 1004f14:	0011883a 	mov	r8,zero
 1004f18:	0039883a 	mov	fp,zero
 1004f1c:	0025883a 	mov	r18,zero
 1004f20:	90001f26 	beq	r18,zero,1004fa0 <__sfvwrite_r+0x2a8>
 1004f24:	40005a26 	beq	r8,zero,1005090 <__sfvwrite_r+0x398>
 1004f28:	982d883a 	mov	r22,r19
 1004f2c:	94c0012e 	bgeu	r18,r19,1004f34 <__sfvwrite_r+0x23c>
 1004f30:	902d883a 	mov	r22,r18
 1004f34:	81000017 	ldw	r4,0(r16)
 1004f38:	80800417 	ldw	r2,16(r16)
 1004f3c:	b02f883a 	mov	r23,r22
 1004f40:	81c00517 	ldw	r7,20(r16)
 1004f44:	1100032e 	bgeu	r2,r4,1004f54 <__sfvwrite_r+0x25c>
 1004f48:	80c00217 	ldw	r3,8(r16)
 1004f4c:	38c7883a 	add	r3,r7,r3
 1004f50:	1d801816 	blt	r3,r22,1004fb4 <__sfvwrite_r+0x2bc>
 1004f54:	b1c03e16 	blt	r22,r7,1005050 <__sfvwrite_r+0x358>
 1004f58:	80800917 	ldw	r2,36(r16)
 1004f5c:	81400717 	ldw	r5,28(r16)
 1004f60:	e00d883a 	mov	r6,fp
 1004f64:	da000115 	stw	r8,4(sp)
 1004f68:	a809883a 	mov	r4,r21
 1004f6c:	103ee83a 	callr	r2
 1004f70:	102f883a 	mov	r23,r2
 1004f74:	da000117 	ldw	r8,4(sp)
 1004f78:	00bfe00e 	bge	zero,r2,1004efc <__alt_mem_epcs+0xff003efc>
 1004f7c:	9de7c83a 	sub	r19,r19,r23
 1004f80:	98001f26 	beq	r19,zero,1005000 <__sfvwrite_r+0x308>
 1004f84:	a0800217 	ldw	r2,8(r20)
 1004f88:	e5f9883a 	add	fp,fp,r23
 1004f8c:	95e5c83a 	sub	r18,r18,r23
 1004f90:	15efc83a 	sub	r23,r2,r23
 1004f94:	a5c00215 	stw	r23,8(r20)
 1004f98:	b83f8426 	beq	r23,zero,1004dac <__alt_mem_epcs+0xff003dac>
 1004f9c:	903fe11e 	bne	r18,zero,1004f24 <__alt_mem_epcs+0xff003f24>
 1004fa0:	8f000017 	ldw	fp,0(r17)
 1004fa4:	8c800117 	ldw	r18,4(r17)
 1004fa8:	0011883a 	mov	r8,zero
 1004fac:	8c400204 	addi	r17,r17,8
 1004fb0:	003fdb06 	br	1004f20 <__alt_mem_epcs+0xff003f20>
 1004fb4:	180d883a 	mov	r6,r3
 1004fb8:	e00b883a 	mov	r5,fp
 1004fbc:	da000115 	stw	r8,4(sp)
 1004fc0:	d8c00015 	stw	r3,0(sp)
 1004fc4:	10060180 	call	1006018 <memmove>
 1004fc8:	d8c00017 	ldw	r3,0(sp)
 1004fcc:	80800017 	ldw	r2,0(r16)
 1004fd0:	800b883a 	mov	r5,r16
 1004fd4:	a809883a 	mov	r4,r21
 1004fd8:	10c5883a 	add	r2,r2,r3
 1004fdc:	80800015 	stw	r2,0(r16)
 1004fe0:	d8c00015 	stw	r3,0(sp)
 1004fe4:	10044880 	call	1004488 <_fflush_r>
 1004fe8:	d8c00017 	ldw	r3,0(sp)
 1004fec:	da000117 	ldw	r8,4(sp)
 1004ff0:	103fc21e 	bne	r2,zero,1004efc <__alt_mem_epcs+0xff003efc>
 1004ff4:	182f883a 	mov	r23,r3
 1004ff8:	9de7c83a 	sub	r19,r19,r23
 1004ffc:	983fe11e 	bne	r19,zero,1004f84 <__alt_mem_epcs+0xff003f84>
 1005000:	800b883a 	mov	r5,r16
 1005004:	a809883a 	mov	r4,r21
 1005008:	10044880 	call	1004488 <_fflush_r>
 100500c:	103fbb1e 	bne	r2,zero,1004efc <__alt_mem_epcs+0xff003efc>
 1005010:	0011883a 	mov	r8,zero
 1005014:	003fdb06 	br	1004f84 <__alt_mem_epcs+0xff003f84>
 1005018:	94c0012e 	bgeu	r18,r19,1005020 <__sfvwrite_r+0x328>
 100501c:	9027883a 	mov	r19,r18
 1005020:	980d883a 	mov	r6,r19
 1005024:	e00b883a 	mov	r5,fp
 1005028:	10060180 	call	1006018 <memmove>
 100502c:	80800217 	ldw	r2,8(r16)
 1005030:	80c00017 	ldw	r3,0(r16)
 1005034:	14c5c83a 	sub	r2,r2,r19
 1005038:	1cc7883a 	add	r3,r3,r19
 100503c:	80800215 	stw	r2,8(r16)
 1005040:	80c00015 	stw	r3,0(r16)
 1005044:	10004326 	beq	r2,zero,1005154 <__sfvwrite_r+0x45c>
 1005048:	9805883a 	mov	r2,r19
 100504c:	003f8306 	br	1004e5c <__alt_mem_epcs+0xff003e5c>
 1005050:	b00d883a 	mov	r6,r22
 1005054:	e00b883a 	mov	r5,fp
 1005058:	da000115 	stw	r8,4(sp)
 100505c:	10060180 	call	1006018 <memmove>
 1005060:	80800217 	ldw	r2,8(r16)
 1005064:	80c00017 	ldw	r3,0(r16)
 1005068:	da000117 	ldw	r8,4(sp)
 100506c:	1585c83a 	sub	r2,r2,r22
 1005070:	1dad883a 	add	r22,r3,r22
 1005074:	80800215 	stw	r2,8(r16)
 1005078:	85800015 	stw	r22,0(r16)
 100507c:	003fbf06 	br	1004f7c <__alt_mem_epcs+0xff003f7c>
 1005080:	81000017 	ldw	r4,0(r16)
 1005084:	9027883a 	mov	r19,r18
 1005088:	902f883a 	mov	r23,r18
 100508c:	003f6906 	br	1004e34 <__alt_mem_epcs+0xff003e34>
 1005090:	900d883a 	mov	r6,r18
 1005094:	01400284 	movi	r5,10
 1005098:	e009883a 	mov	r4,fp
 100509c:	1005dec0 	call	1005dec <memchr>
 10050a0:	10003e26 	beq	r2,zero,100519c <__sfvwrite_r+0x4a4>
 10050a4:	10800044 	addi	r2,r2,1
 10050a8:	1727c83a 	sub	r19,r2,fp
 10050ac:	02000044 	movi	r8,1
 10050b0:	003f9d06 	br	1004f28 <__alt_mem_epcs+0xff003f28>
 10050b4:	80800517 	ldw	r2,20(r16)
 10050b8:	81400417 	ldw	r5,16(r16)
 10050bc:	81c00017 	ldw	r7,0(r16)
 10050c0:	10a7883a 	add	r19,r2,r2
 10050c4:	9885883a 	add	r2,r19,r2
 10050c8:	1026d7fa 	srli	r19,r2,31
 10050cc:	396dc83a 	sub	r22,r7,r5
 10050d0:	b1000044 	addi	r4,r22,1
 10050d4:	9885883a 	add	r2,r19,r2
 10050d8:	1027d07a 	srai	r19,r2,1
 10050dc:	2485883a 	add	r2,r4,r18
 10050e0:	980d883a 	mov	r6,r19
 10050e4:	9880022e 	bgeu	r19,r2,10050f0 <__sfvwrite_r+0x3f8>
 10050e8:	1027883a 	mov	r19,r2
 10050ec:	100d883a 	mov	r6,r2
 10050f0:	18c1000c 	andi	r3,r3,1024
 10050f4:	18001c26 	beq	r3,zero,1005168 <__sfvwrite_r+0x470>
 10050f8:	300b883a 	mov	r5,r6
 10050fc:	a809883a 	mov	r4,r21
 1005100:	10055e00 	call	10055e0 <_malloc_r>
 1005104:	102f883a 	mov	r23,r2
 1005108:	10002926 	beq	r2,zero,10051b0 <__sfvwrite_r+0x4b8>
 100510c:	81400417 	ldw	r5,16(r16)
 1005110:	b00d883a 	mov	r6,r22
 1005114:	1009883a 	mov	r4,r2
 1005118:	1005ed00 	call	1005ed0 <memcpy>
 100511c:	8080030b 	ldhu	r2,12(r16)
 1005120:	00fedfc4 	movi	r3,-1153
 1005124:	10c4703a 	and	r2,r2,r3
 1005128:	10802014 	ori	r2,r2,128
 100512c:	8080030d 	sth	r2,12(r16)
 1005130:	bd89883a 	add	r4,r23,r22
 1005134:	9d8fc83a 	sub	r7,r19,r22
 1005138:	85c00415 	stw	r23,16(r16)
 100513c:	84c00515 	stw	r19,20(r16)
 1005140:	81000015 	stw	r4,0(r16)
 1005144:	9027883a 	mov	r19,r18
 1005148:	81c00215 	stw	r7,8(r16)
 100514c:	902f883a 	mov	r23,r18
 1005150:	003f3806 	br	1004e34 <__alt_mem_epcs+0xff003e34>
 1005154:	800b883a 	mov	r5,r16
 1005158:	a809883a 	mov	r4,r21
 100515c:	10044880 	call	1004488 <_fflush_r>
 1005160:	103fb926 	beq	r2,zero,1005048 <__alt_mem_epcs+0xff004048>
 1005164:	003f6506 	br	1004efc <__alt_mem_epcs+0xff003efc>
 1005168:	a809883a 	mov	r4,r21
 100516c:	10073540 	call	1007354 <_realloc_r>
 1005170:	102f883a 	mov	r23,r2
 1005174:	103fee1e 	bne	r2,zero,1005130 <__alt_mem_epcs+0xff004130>
 1005178:	81400417 	ldw	r5,16(r16)
 100517c:	a809883a 	mov	r4,r21
 1005180:	10049e80 	call	10049e8 <_free_r>
 1005184:	8080030b 	ldhu	r2,12(r16)
 1005188:	00ffdfc4 	movi	r3,-129
 100518c:	1884703a 	and	r2,r3,r2
 1005190:	00c00304 	movi	r3,12
 1005194:	a8c00015 	stw	r3,0(r21)
 1005198:	003f5906 	br	1004f00 <__alt_mem_epcs+0xff003f00>
 100519c:	94c00044 	addi	r19,r18,1
 10051a0:	02000044 	movi	r8,1
 10051a4:	003f6006 	br	1004f28 <__alt_mem_epcs+0xff003f28>
 10051a8:	00bfffc4 	movi	r2,-1
 10051ac:	003f0006 	br	1004db0 <__alt_mem_epcs+0xff003db0>
 10051b0:	00800304 	movi	r2,12
 10051b4:	a8800015 	stw	r2,0(r21)
 10051b8:	8080030b 	ldhu	r2,12(r16)
 10051bc:	003f5006 	br	1004f00 <__alt_mem_epcs+0xff003f00>

010051c0 <_fwalk>:
 10051c0:	defff704 	addi	sp,sp,-36
 10051c4:	dd000415 	stw	r20,16(sp)
 10051c8:	dfc00815 	stw	ra,32(sp)
 10051cc:	ddc00715 	stw	r23,28(sp)
 10051d0:	dd800615 	stw	r22,24(sp)
 10051d4:	dd400515 	stw	r21,20(sp)
 10051d8:	dcc00315 	stw	r19,12(sp)
 10051dc:	dc800215 	stw	r18,8(sp)
 10051e0:	dc400115 	stw	r17,4(sp)
 10051e4:	dc000015 	stw	r16,0(sp)
 10051e8:	2500b804 	addi	r20,r4,736
 10051ec:	a0002326 	beq	r20,zero,100527c <_fwalk+0xbc>
 10051f0:	282b883a 	mov	r21,r5
 10051f4:	002f883a 	mov	r23,zero
 10051f8:	05800044 	movi	r22,1
 10051fc:	04ffffc4 	movi	r19,-1
 1005200:	a4400117 	ldw	r17,4(r20)
 1005204:	a4800217 	ldw	r18,8(r20)
 1005208:	8c7fffc4 	addi	r17,r17,-1
 100520c:	88000d16 	blt	r17,zero,1005244 <_fwalk+0x84>
 1005210:	94000304 	addi	r16,r18,12
 1005214:	94800384 	addi	r18,r18,14
 1005218:	8080000b 	ldhu	r2,0(r16)
 100521c:	8c7fffc4 	addi	r17,r17,-1
 1005220:	813ffd04 	addi	r4,r16,-12
 1005224:	b080042e 	bgeu	r22,r2,1005238 <_fwalk+0x78>
 1005228:	9080000f 	ldh	r2,0(r18)
 100522c:	14c00226 	beq	r2,r19,1005238 <_fwalk+0x78>
 1005230:	a83ee83a 	callr	r21
 1005234:	b8aeb03a 	or	r23,r23,r2
 1005238:	84001a04 	addi	r16,r16,104
 100523c:	94801a04 	addi	r18,r18,104
 1005240:	8cfff51e 	bne	r17,r19,1005218 <__alt_mem_epcs+0xff004218>
 1005244:	a5000017 	ldw	r20,0(r20)
 1005248:	a03fed1e 	bne	r20,zero,1005200 <__alt_mem_epcs+0xff004200>
 100524c:	b805883a 	mov	r2,r23
 1005250:	dfc00817 	ldw	ra,32(sp)
 1005254:	ddc00717 	ldw	r23,28(sp)
 1005258:	dd800617 	ldw	r22,24(sp)
 100525c:	dd400517 	ldw	r21,20(sp)
 1005260:	dd000417 	ldw	r20,16(sp)
 1005264:	dcc00317 	ldw	r19,12(sp)
 1005268:	dc800217 	ldw	r18,8(sp)
 100526c:	dc400117 	ldw	r17,4(sp)
 1005270:	dc000017 	ldw	r16,0(sp)
 1005274:	dec00904 	addi	sp,sp,36
 1005278:	f800283a 	ret
 100527c:	002f883a 	mov	r23,zero
 1005280:	003ff206 	br	100524c <__alt_mem_epcs+0xff00424c>

01005284 <_fwalk_reent>:
 1005284:	defff704 	addi	sp,sp,-36
 1005288:	dd000415 	stw	r20,16(sp)
 100528c:	dfc00815 	stw	ra,32(sp)
 1005290:	ddc00715 	stw	r23,28(sp)
 1005294:	dd800615 	stw	r22,24(sp)
 1005298:	dd400515 	stw	r21,20(sp)
 100529c:	dcc00315 	stw	r19,12(sp)
 10052a0:	dc800215 	stw	r18,8(sp)
 10052a4:	dc400115 	stw	r17,4(sp)
 10052a8:	dc000015 	stw	r16,0(sp)
 10052ac:	2500b804 	addi	r20,r4,736
 10052b0:	a0002326 	beq	r20,zero,1005340 <_fwalk_reent+0xbc>
 10052b4:	282b883a 	mov	r21,r5
 10052b8:	2027883a 	mov	r19,r4
 10052bc:	002f883a 	mov	r23,zero
 10052c0:	05800044 	movi	r22,1
 10052c4:	04bfffc4 	movi	r18,-1
 10052c8:	a4400117 	ldw	r17,4(r20)
 10052cc:	a4000217 	ldw	r16,8(r20)
 10052d0:	8c7fffc4 	addi	r17,r17,-1
 10052d4:	88000c16 	blt	r17,zero,1005308 <_fwalk_reent+0x84>
 10052d8:	84000304 	addi	r16,r16,12
 10052dc:	8080000b 	ldhu	r2,0(r16)
 10052e0:	8c7fffc4 	addi	r17,r17,-1
 10052e4:	817ffd04 	addi	r5,r16,-12
 10052e8:	b080052e 	bgeu	r22,r2,1005300 <_fwalk_reent+0x7c>
 10052ec:	8080008f 	ldh	r2,2(r16)
 10052f0:	9809883a 	mov	r4,r19
 10052f4:	14800226 	beq	r2,r18,1005300 <_fwalk_reent+0x7c>
 10052f8:	a83ee83a 	callr	r21
 10052fc:	b8aeb03a 	or	r23,r23,r2
 1005300:	84001a04 	addi	r16,r16,104
 1005304:	8cbff51e 	bne	r17,r18,10052dc <__alt_mem_epcs+0xff0042dc>
 1005308:	a5000017 	ldw	r20,0(r20)
 100530c:	a03fee1e 	bne	r20,zero,10052c8 <__alt_mem_epcs+0xff0042c8>
 1005310:	b805883a 	mov	r2,r23
 1005314:	dfc00817 	ldw	ra,32(sp)
 1005318:	ddc00717 	ldw	r23,28(sp)
 100531c:	dd800617 	ldw	r22,24(sp)
 1005320:	dd400517 	ldw	r21,20(sp)
 1005324:	dd000417 	ldw	r20,16(sp)
 1005328:	dcc00317 	ldw	r19,12(sp)
 100532c:	dc800217 	ldw	r18,8(sp)
 1005330:	dc400117 	ldw	r17,4(sp)
 1005334:	dc000017 	ldw	r16,0(sp)
 1005338:	dec00904 	addi	sp,sp,36
 100533c:	f800283a 	ret
 1005340:	002f883a 	mov	r23,zero
 1005344:	003ff206 	br	1005310 <__alt_mem_epcs+0xff004310>

01005348 <_setlocale_r>:
 1005348:	30001b26 	beq	r6,zero,10053b8 <_setlocale_r+0x70>
 100534c:	01404074 	movhi	r5,257
 1005350:	defffe04 	addi	sp,sp,-8
 1005354:	2945b004 	addi	r5,r5,5824
 1005358:	3009883a 	mov	r4,r6
 100535c:	dc000015 	stw	r16,0(sp)
 1005360:	dfc00115 	stw	ra,4(sp)
 1005364:	3021883a 	mov	r16,r6
 1005368:	1007abc0 	call	1007abc <strcmp>
 100536c:	1000061e 	bne	r2,zero,1005388 <_setlocale_r+0x40>
 1005370:	00804074 	movhi	r2,257
 1005374:	1085af04 	addi	r2,r2,5820
 1005378:	dfc00117 	ldw	ra,4(sp)
 100537c:	dc000017 	ldw	r16,0(sp)
 1005380:	dec00204 	addi	sp,sp,8
 1005384:	f800283a 	ret
 1005388:	01404074 	movhi	r5,257
 100538c:	2945af04 	addi	r5,r5,5820
 1005390:	8009883a 	mov	r4,r16
 1005394:	1007abc0 	call	1007abc <strcmp>
 1005398:	103ff526 	beq	r2,zero,1005370 <__alt_mem_epcs+0xff004370>
 100539c:	01404074 	movhi	r5,257
 10053a0:	29459a04 	addi	r5,r5,5736
 10053a4:	8009883a 	mov	r4,r16
 10053a8:	1007abc0 	call	1007abc <strcmp>
 10053ac:	103ff026 	beq	r2,zero,1005370 <__alt_mem_epcs+0xff004370>
 10053b0:	0005883a 	mov	r2,zero
 10053b4:	003ff006 	br	1005378 <__alt_mem_epcs+0xff004378>
 10053b8:	00804074 	movhi	r2,257
 10053bc:	1085af04 	addi	r2,r2,5820
 10053c0:	f800283a 	ret

010053c4 <__locale_charset>:
 10053c4:	00804074 	movhi	r2,257
 10053c8:	10876e04 	addi	r2,r2,7608
 10053cc:	f800283a 	ret

010053d0 <__locale_mb_cur_max>:
 10053d0:	00804074 	movhi	r2,257
 10053d4:	108d9f04 	addi	r2,r2,13948
 10053d8:	10800017 	ldw	r2,0(r2)
 10053dc:	f800283a 	ret

010053e0 <__locale_msgcharset>:
 10053e0:	00804074 	movhi	r2,257
 10053e4:	10876604 	addi	r2,r2,7576
 10053e8:	f800283a 	ret

010053ec <__locale_cjk_lang>:
 10053ec:	0005883a 	mov	r2,zero
 10053f0:	f800283a 	ret

010053f4 <_localeconv_r>:
 10053f4:	00804074 	movhi	r2,257
 10053f8:	10877604 	addi	r2,r2,7640
 10053fc:	f800283a 	ret

01005400 <setlocale>:
 1005400:	00804074 	movhi	r2,257
 1005404:	108d9e04 	addi	r2,r2,13944
 1005408:	280d883a 	mov	r6,r5
 100540c:	200b883a 	mov	r5,r4
 1005410:	11000017 	ldw	r4,0(r2)
 1005414:	10053481 	jmpi	1005348 <_setlocale_r>

01005418 <localeconv>:
 1005418:	00804074 	movhi	r2,257
 100541c:	10877604 	addi	r2,r2,7640
 1005420:	f800283a 	ret

01005424 <__smakebuf_r>:
 1005424:	2880030b 	ldhu	r2,12(r5)
 1005428:	10c0008c 	andi	r3,r2,2
 100542c:	1800411e 	bne	r3,zero,1005534 <__smakebuf_r+0x110>
 1005430:	deffec04 	addi	sp,sp,-80
 1005434:	dc000f15 	stw	r16,60(sp)
 1005438:	2821883a 	mov	r16,r5
 100543c:	2940038f 	ldh	r5,14(r5)
 1005440:	dc401015 	stw	r17,64(sp)
 1005444:	dfc01315 	stw	ra,76(sp)
 1005448:	dcc01215 	stw	r19,72(sp)
 100544c:	dc801115 	stw	r18,68(sp)
 1005450:	2023883a 	mov	r17,r4
 1005454:	28001c16 	blt	r5,zero,10054c8 <__smakebuf_r+0xa4>
 1005458:	d80d883a 	mov	r6,sp
 100545c:	100972c0 	call	100972c <_fstat_r>
 1005460:	10001816 	blt	r2,zero,10054c4 <__smakebuf_r+0xa0>
 1005464:	d8800117 	ldw	r2,4(sp)
 1005468:	00e00014 	movui	r3,32768
 100546c:	10bc000c 	andi	r2,r2,61440
 1005470:	14c80020 	cmpeqi	r19,r2,8192
 1005474:	10c03726 	beq	r2,r3,1005554 <__smakebuf_r+0x130>
 1005478:	80c0030b 	ldhu	r3,12(r16)
 100547c:	18c20014 	ori	r3,r3,2048
 1005480:	80c0030d 	sth	r3,12(r16)
 1005484:	00c80004 	movi	r3,8192
 1005488:	10c0521e 	bne	r2,r3,10055d4 <__smakebuf_r+0x1b0>
 100548c:	8140038f 	ldh	r5,14(r16)
 1005490:	8809883a 	mov	r4,r17
 1005494:	10097880 	call	1009788 <_isatty_r>
 1005498:	10004c26 	beq	r2,zero,10055cc <__smakebuf_r+0x1a8>
 100549c:	8080030b 	ldhu	r2,12(r16)
 10054a0:	80c010c4 	addi	r3,r16,67
 10054a4:	80c00015 	stw	r3,0(r16)
 10054a8:	10800054 	ori	r2,r2,1
 10054ac:	8080030d 	sth	r2,12(r16)
 10054b0:	00800044 	movi	r2,1
 10054b4:	80c00415 	stw	r3,16(r16)
 10054b8:	80800515 	stw	r2,20(r16)
 10054bc:	04810004 	movi	r18,1024
 10054c0:	00000706 	br	10054e0 <__smakebuf_r+0xbc>
 10054c4:	8080030b 	ldhu	r2,12(r16)
 10054c8:	10c0200c 	andi	r3,r2,128
 10054cc:	18001f1e 	bne	r3,zero,100554c <__smakebuf_r+0x128>
 10054d0:	04810004 	movi	r18,1024
 10054d4:	10820014 	ori	r2,r2,2048
 10054d8:	8080030d 	sth	r2,12(r16)
 10054dc:	0027883a 	mov	r19,zero
 10054e0:	900b883a 	mov	r5,r18
 10054e4:	8809883a 	mov	r4,r17
 10054e8:	10055e00 	call	10055e0 <_malloc_r>
 10054ec:	10002c26 	beq	r2,zero,10055a0 <__smakebuf_r+0x17c>
 10054f0:	80c0030b 	ldhu	r3,12(r16)
 10054f4:	01004034 	movhi	r4,256
 10054f8:	21114704 	addi	r4,r4,17692
 10054fc:	89000f15 	stw	r4,60(r17)
 1005500:	18c02014 	ori	r3,r3,128
 1005504:	80c0030d 	sth	r3,12(r16)
 1005508:	80800015 	stw	r2,0(r16)
 100550c:	80800415 	stw	r2,16(r16)
 1005510:	84800515 	stw	r18,20(r16)
 1005514:	98001a1e 	bne	r19,zero,1005580 <__smakebuf_r+0x15c>
 1005518:	dfc01317 	ldw	ra,76(sp)
 100551c:	dcc01217 	ldw	r19,72(sp)
 1005520:	dc801117 	ldw	r18,68(sp)
 1005524:	dc401017 	ldw	r17,64(sp)
 1005528:	dc000f17 	ldw	r16,60(sp)
 100552c:	dec01404 	addi	sp,sp,80
 1005530:	f800283a 	ret
 1005534:	288010c4 	addi	r2,r5,67
 1005538:	28800015 	stw	r2,0(r5)
 100553c:	28800415 	stw	r2,16(r5)
 1005540:	00800044 	movi	r2,1
 1005544:	28800515 	stw	r2,20(r5)
 1005548:	f800283a 	ret
 100554c:	04801004 	movi	r18,64
 1005550:	003fe006 	br	10054d4 <__alt_mem_epcs+0xff0044d4>
 1005554:	81000a17 	ldw	r4,40(r16)
 1005558:	00c04034 	movhi	r3,256
 100555c:	18de9604 	addi	r3,r3,31320
 1005560:	20ffc51e 	bne	r4,r3,1005478 <__alt_mem_epcs+0xff004478>
 1005564:	8080030b 	ldhu	r2,12(r16)
 1005568:	04810004 	movi	r18,1024
 100556c:	84801315 	stw	r18,76(r16)
 1005570:	1484b03a 	or	r2,r2,r18
 1005574:	8080030d 	sth	r2,12(r16)
 1005578:	0027883a 	mov	r19,zero
 100557c:	003fd806 	br	10054e0 <__alt_mem_epcs+0xff0044e0>
 1005580:	8140038f 	ldh	r5,14(r16)
 1005584:	8809883a 	mov	r4,r17
 1005588:	10097880 	call	1009788 <_isatty_r>
 100558c:	103fe226 	beq	r2,zero,1005518 <__alt_mem_epcs+0xff004518>
 1005590:	8080030b 	ldhu	r2,12(r16)
 1005594:	10800054 	ori	r2,r2,1
 1005598:	8080030d 	sth	r2,12(r16)
 100559c:	003fde06 	br	1005518 <__alt_mem_epcs+0xff004518>
 10055a0:	8080030b 	ldhu	r2,12(r16)
 10055a4:	10c0800c 	andi	r3,r2,512
 10055a8:	183fdb1e 	bne	r3,zero,1005518 <__alt_mem_epcs+0xff004518>
 10055ac:	10800094 	ori	r2,r2,2
 10055b0:	80c010c4 	addi	r3,r16,67
 10055b4:	8080030d 	sth	r2,12(r16)
 10055b8:	00800044 	movi	r2,1
 10055bc:	80c00015 	stw	r3,0(r16)
 10055c0:	80c00415 	stw	r3,16(r16)
 10055c4:	80800515 	stw	r2,20(r16)
 10055c8:	003fd306 	br	1005518 <__alt_mem_epcs+0xff004518>
 10055cc:	04810004 	movi	r18,1024
 10055d0:	003fc306 	br	10054e0 <__alt_mem_epcs+0xff0044e0>
 10055d4:	0027883a 	mov	r19,zero
 10055d8:	04810004 	movi	r18,1024
 10055dc:	003fc006 	br	10054e0 <__alt_mem_epcs+0xff0044e0>

010055e0 <_malloc_r>:
 10055e0:	defff504 	addi	sp,sp,-44
 10055e4:	dc800315 	stw	r18,12(sp)
 10055e8:	dfc00a15 	stw	ra,40(sp)
 10055ec:	df000915 	stw	fp,36(sp)
 10055f0:	ddc00815 	stw	r23,32(sp)
 10055f4:	dd800715 	stw	r22,28(sp)
 10055f8:	dd400615 	stw	r21,24(sp)
 10055fc:	dd000515 	stw	r20,20(sp)
 1005600:	dcc00415 	stw	r19,16(sp)
 1005604:	dc400215 	stw	r17,8(sp)
 1005608:	dc000115 	stw	r16,4(sp)
 100560c:	288002c4 	addi	r2,r5,11
 1005610:	00c00584 	movi	r3,22
 1005614:	2025883a 	mov	r18,r4
 1005618:	18807f2e 	bgeu	r3,r2,1005818 <_malloc_r+0x238>
 100561c:	047ffe04 	movi	r17,-8
 1005620:	1462703a 	and	r17,r2,r17
 1005624:	8800a316 	blt	r17,zero,10058b4 <_malloc_r+0x2d4>
 1005628:	8940a236 	bltu	r17,r5,10058b4 <_malloc_r+0x2d4>
 100562c:	100d6cc0 	call	100d6cc <__malloc_lock>
 1005630:	00807dc4 	movi	r2,503
 1005634:	1441e92e 	bgeu	r2,r17,1005ddc <_malloc_r+0x7fc>
 1005638:	8804d27a 	srli	r2,r17,9
 100563c:	1000a126 	beq	r2,zero,10058c4 <_malloc_r+0x2e4>
 1005640:	00c00104 	movi	r3,4
 1005644:	18811e36 	bltu	r3,r2,1005ac0 <_malloc_r+0x4e0>
 1005648:	8804d1ba 	srli	r2,r17,6
 100564c:	12000e44 	addi	r8,r2,57
 1005650:	11c00e04 	addi	r7,r2,56
 1005654:	4209883a 	add	r4,r8,r8
 1005658:	04c04074 	movhi	r19,257
 100565c:	2109883a 	add	r4,r4,r4
 1005660:	9cc78404 	addi	r19,r19,7696
 1005664:	2109883a 	add	r4,r4,r4
 1005668:	9909883a 	add	r4,r19,r4
 100566c:	24000117 	ldw	r16,4(r4)
 1005670:	213ffe04 	addi	r4,r4,-8
 1005674:	24009726 	beq	r4,r16,10058d4 <_malloc_r+0x2f4>
 1005678:	80800117 	ldw	r2,4(r16)
 100567c:	01bfff04 	movi	r6,-4
 1005680:	014003c4 	movi	r5,15
 1005684:	1184703a 	and	r2,r2,r6
 1005688:	1447c83a 	sub	r3,r2,r17
 100568c:	28c00716 	blt	r5,r3,10056ac <_malloc_r+0xcc>
 1005690:	1800920e 	bge	r3,zero,10058dc <_malloc_r+0x2fc>
 1005694:	84000317 	ldw	r16,12(r16)
 1005698:	24008e26 	beq	r4,r16,10058d4 <_malloc_r+0x2f4>
 100569c:	80800117 	ldw	r2,4(r16)
 10056a0:	1184703a 	and	r2,r2,r6
 10056a4:	1447c83a 	sub	r3,r2,r17
 10056a8:	28fff90e 	bge	r5,r3,1005690 <__alt_mem_epcs+0xff004690>
 10056ac:	3809883a 	mov	r4,r7
 10056b0:	01804074 	movhi	r6,257
 10056b4:	9c000417 	ldw	r16,16(r19)
 10056b8:	31878404 	addi	r6,r6,7696
 10056bc:	32000204 	addi	r8,r6,8
 10056c0:	82013426 	beq	r16,r8,1005b94 <_malloc_r+0x5b4>
 10056c4:	80c00117 	ldw	r3,4(r16)
 10056c8:	00bfff04 	movi	r2,-4
 10056cc:	188e703a 	and	r7,r3,r2
 10056d0:	3c45c83a 	sub	r2,r7,r17
 10056d4:	00c003c4 	movi	r3,15
 10056d8:	18811f16 	blt	r3,r2,1005b58 <_malloc_r+0x578>
 10056dc:	32000515 	stw	r8,20(r6)
 10056e0:	32000415 	stw	r8,16(r6)
 10056e4:	10007f0e 	bge	r2,zero,10058e4 <_malloc_r+0x304>
 10056e8:	00807fc4 	movi	r2,511
 10056ec:	11c0fd36 	bltu	r2,r7,1005ae4 <_malloc_r+0x504>
 10056f0:	3806d0fa 	srli	r3,r7,3
 10056f4:	01c00044 	movi	r7,1
 10056f8:	30800117 	ldw	r2,4(r6)
 10056fc:	19400044 	addi	r5,r3,1
 1005700:	294b883a 	add	r5,r5,r5
 1005704:	1807d0ba 	srai	r3,r3,2
 1005708:	294b883a 	add	r5,r5,r5
 100570c:	294b883a 	add	r5,r5,r5
 1005710:	298b883a 	add	r5,r5,r6
 1005714:	38c6983a 	sll	r3,r7,r3
 1005718:	29c00017 	ldw	r7,0(r5)
 100571c:	2a7ffe04 	addi	r9,r5,-8
 1005720:	1886b03a 	or	r3,r3,r2
 1005724:	82400315 	stw	r9,12(r16)
 1005728:	81c00215 	stw	r7,8(r16)
 100572c:	30c00115 	stw	r3,4(r6)
 1005730:	2c000015 	stw	r16,0(r5)
 1005734:	3c000315 	stw	r16,12(r7)
 1005738:	2005d0ba 	srai	r2,r4,2
 100573c:	01400044 	movi	r5,1
 1005740:	288a983a 	sll	r5,r5,r2
