
HINS_CPU_V1_0.elf:     file format elf32-littlenios2
HINS_CPU_V1_0.elf
architecture: nios2:r1, flags 0x00000112:
EXEC_P, HAS_SYMS, D_PAGED
start address 0x01000230

Program Header:
    LOAD off    0x00001020 vaddr 0x01000020 paddr 0x01000020 align 2**12
         filesz 0x00024bec memsz 0x00025640 flags rwx
    LOAD off    0x00026000 vaddr 0x02001000 paddr 0x02001000 align 2**12
         filesz 0x00000000 memsz 0x00000000 flags r-x

Sections:
Idx Name          Size      VMA       LMA       File off  Algn
  0 .entry        00000000  02001000  02001000  00026000  2**5
                  CONTENTS, ALLOC, LOAD, READONLY, CODE
  1 .exceptions   00000210  01000020  01000020  00001020  2**2
                  CONTENTS, ALLOC, LOAD, READONLY, CODE
  2 .text         00021230  01000230  01000230  00001230  2**2
                  CONTENTS, ALLOC, LOAD, READONLY, CODE
  3 .rodata       000019dc  01021460  01021460  00022460  2**2
                  CONTENTS, ALLOC, LOAD, READONLY, DATA
  4 .rwdata       00001dd0  01022e3c  01022e3c  00023e3c  2**2
                  CONTENTS, ALLOC, LOAD, DATA, SMALL_DATA
  5 .bss          00000a54  01024c0c  01024c0c  00025c0c  2**2
                  ALLOC, SMALL_DATA
  6 .sdram        00000000  01025660  01025660  00026000  2**0
                  CONTENTS
  7 .epcs         00000000  02001020  02001020  00026000  2**0
                  CONTENTS
  8 .comment      00000023  00000000  00000000  00026000  2**0
                  CONTENTS, READONLY
  9 .debug_aranges 000012f0  00000000  00000000  00026028  2**3
                  CONTENTS, READONLY, DEBUGGING
 10 .debug_info   00030784  00000000  00000000  00027318  2**0
                  CONTENTS, READONLY, DEBUGGING
 11 .debug_abbrev 0000c330  00000000  00000000  00057a9c  2**0
                  CONTENTS, READONLY, DEBUGGING
 12 .debug_line   00010886  00000000  00000000  00063dcc  2**0
                  CONTENTS, READONLY, DEBUGGING
 13 .debug_frame  00003f6c  00000000  00000000  00074654  2**2
                  CONTENTS, READONLY, DEBUGGING
 14 .debug_str    00005c37  00000000  00000000  000785c0  2**0
                  CONTENTS, READONLY, DEBUGGING
 15 .debug_loc    0002001d  00000000  00000000  0007e1f7  2**0
                  CONTENTS, READONLY, DEBUGGING
 16 .debug_alt_sim_info 00000040  00000000  00000000  0009e214  2**2
                  CONTENTS, READONLY, DEBUGGING
 17 .debug_ranges 00002090  00000000  00000000  0009e258  2**3
                  CONTENTS, READONLY, DEBUGGING
 18 .thread_model 00000003  00000000  00000000  000a577a  2**0
                  CONTENTS, READONLY
 19 .cpu          00000005  00000000  00000000  000a577d  2**0
                  CONTENTS, READONLY
 20 .qsys         00000001  00000000  00000000  000a5782  2**0
                  CONTENTS, READONLY
 21 .simulation_enabled 00000001  00000000  00000000  000a5783  2**0
                  CONTENTS, READONLY
 22 .sysid_hash   00000004  00000000  00000000  000a5784  2**0
                  CONTENTS, READONLY
 23 .sysid_base   00000004  00000000  00000000  000a5788  2**0
                  CONTENTS, READONLY
 24 .sysid_time   00000004  00000000  00000000  000a578c  2**0
                  CONTENTS, READONLY
 25 .stderr_dev   00000009  00000000  00000000  000a5790  2**0
                  CONTENTS, READONLY
 26 .stdin_dev    00000009  00000000  00000000  000a5799  2**0
                  CONTENTS, READONLY
 27 .stdout_dev   00000009  00000000  00000000  000a57a2  2**0
                  CONTENTS, READONLY
 28 .sopc_system_name 00000003  00000000  00000000  000a57ab  2**0
                  CONTENTS, READONLY
 29 .quartus_project_dir 00000036  00000000  00000000  000a57ae  2**0
                  CONTENTS, READONLY
 30 .jdi          00004312  00000000  00000000  000a57e4  2**0
                  CONTENTS, READONLY
 31 .sopcinfo     00067747  00000000  00000000  000a9af6  2**0
                  CONTENTS, READONLY
SYMBOL TABLE:
02001000 l    d  .entry	00000000 .entry
01000020 l    d  .exceptions	00000000 .exceptions
01000230 l    d  .text	00000000 .text
01021460 l    d  .rodata	00000000 .rodata
01022e3c l    d  .rwdata	00000000 .rwdata
01024c0c l    d  .bss	00000000 .bss
01025660 l    d  .sdram	00000000 .sdram
02001020 l    d  .epcs	00000000 .epcs
00000000 l    d  .comment	00000000 .comment
00000000 l    d  .debug_aranges	00000000 .debug_aranges
00000000 l    d  .debug_info	00000000 .debug_info
00000000 l    d  .debug_abbrev	00000000 .debug_abbrev
00000000 l    d  .debug_line	00000000 .debug_line
00000000 l    d  .debug_frame	00000000 .debug_frame
00000000 l    d  .debug_str	00000000 .debug_str
00000000 l    d  .debug_loc	00000000 .debug_loc
00000000 l    d  .debug_alt_sim_info	00000000 .debug_alt_sim_info
00000000 l    d  .debug_ranges	00000000 .debug_ranges
00000000 l    df *ABS*	00000000 ../HINS_CPU_V1_0_bsp//obj/HAL/src/crt0.o
01000264 l       .text	00000000 alt_after_alt_main
00000000 l    df *ABS*	00000000 alt_irq_handler.c
00000000 l    df *ABS*	00000000 alt_instruction_exception_entry.c
00000000 l    df *ABS*	00000000 HINS_CPU_V1_0.c
01024c0c l     O .bss	00000002 try_cnt
01024b60 l     O .rwdata	00000004 SF_ACCL_2G
01024b64 l     O .rwdata	00000004 SF_ACCL_4G
01024b68 l     O .rwdata	00000004 SF_ACCL_8G
01024b6c l     O .rwdata	00000004 SF_ACCL_16G
01024b70 l     O .rwdata	00000004 SF_GYRO_125DPS
01024b74 l     O .rwdata	00000004 SF_GYRO_250DPS
01024b78 l     O .rwdata	00000004 SF_GYRO_500DPS
01024b7c l     O .rwdata	00000004 SF_GYRO_1000DPS
01024b80 l     O .rwdata	00000004 SF_GYRO_2000DPS
01024b84 l     O .rwdata	00000004 SF_GYRO_4000DPS
01024b88 l     O .rwdata	00000004 SF_TEMP
01024b8c l     O .rwdata	00000004 COE_TEMP_AD590
01024c14 l     O .bss	00000004 dly_cnt.3938
01024b94 l     O .rwdata	00000004 DELAY_NUM.3939
01024c18 l     O .bss	00000004 dly_cnt.3943
01024b98 l     O .rwdata	00000004 DELAY_NUM.3944
00000000 l    df *ABS*	00000000 acq_fog.c
01024b9c l     O .rwdata	00000004 KVH_HEADER
01024c20 l     O .bss	00000001 ch.3482
00000000 l    df *ABS*	00000000 acq_imu.c
01024ba0 l     O .rwdata	00000004 KVH_HEADER
01024ba4 l     O .rwdata	00000002 HD_ABBA
01024ba6 l     O .rwdata	00000002 TR_5556
00000000 l    df *ABS*	00000000 acq_rst.c
01024c24 l     O .bss	00000004 dly_cnt
00000000 l    df *ABS*	00000000 adda_config.c
00000000 l    df *ABS*	00000000 ads122c04_se.c
01024c28 l     O .bss	00000004 dly_cnt
01024ba8 l     O .rwdata	00000004 number
01024bac l     O .rwdata	00000004 DELAY_NUM
00000000 l    df *ABS*	00000000 asm330lhhx.c
01024c2c l     O .bss	00000004 dly_cnt
01024bb0 l     O .rwdata	00000004 number
01024bb4 l     O .rwdata	00000004 DELAY_NUM
010216a8 l     O .rodata	00000028 i2c_clk_table
01001d0c l     F .text	00000090 get_i2c_freq_name
00000000 l    df *ABS*	00000000 common.c
00000000 l    df *ABS*	00000000 eeprom_v2.c
00000000 l    df *ABS*	00000000 memory_manage.c
00000000 l    df *ABS*	00000000 output_mode.c
00000000 l    df *ABS*	00000000 uart_dual.c
01024cec l     O .bss	00000218 gUartBuffer
01024f04 l     O .bss	00000218 gUartBuffer_dbg
0100a0b4 l     F .text	0000016c uartISR
0100a220 l     F .text	0000016c uartISR_dbg
01024bb8 l     O .rwdata	00000002 HEADER1
01024bba l     O .rwdata	00000002 TRAILER1
01024bbc l     O .rwdata	00000002 HEADER2
01024bbe l     O .rwdata	00000002 TRAILER2
01024bc0 l     O .rwdata	00000002 HEADER3
01024bc2 l     O .rwdata	00000002 TRAILER3
01024c30 l     O .bss	00000004 state.2664
01024c34 l     O .bss	00000001 bytes_received.2663
01024c35 l     O .bss	00000001 condition.2665
01024c36 l     O .bss	00000001 data_size_expected.2666
01024c38 l     O .bss	00000004 expected_trailer.2667
01024c3c l     O .bss	00000001 trailer_size.2668
0102511c l     O .bss	0000000e buffer.2662
01024c40 l     O .bss	00000004 state.2679
01024c44 l     O .bss	00000001 bytes_received.2678
01024c45 l     O .bss	00000001 condition.2680
01024c46 l     O .bss	00000001 data_size_expected.2681
01024c48 l     O .bss	00000004 expected_trailer.2682
01024c4c l     O .bss	00000001 trailer_size.2683
0102512a l     O .bss	0000000e buffer.2677
00000000 l    df *ABS*	00000000 lib2-divmod.c
00000000 l    df *ABS*	00000000 addsf3.c
00000000 l    df *ABS*	00000000 divsf3.c
00000000 l    df *ABS*	00000000 gesf2.c
00000000 l    df *ABS*	00000000 lesf2.c
00000000 l    df *ABS*	00000000 mulsf3.c
00000000 l    df *ABS*	00000000 subsf3.c
00000000 l    df *ABS*	00000000 floatsisf.c
00000000 l    df *ABS*	00000000 floatunsisf.c
00000000 l    df *ABS*	00000000 adddf3.c
00000000 l    df *ABS*	00000000 divdf3.c
00000000 l    df *ABS*	00000000 muldf3.c
00000000 l    df *ABS*	00000000 subdf3.c
00000000 l    df *ABS*	00000000 extendsfdf2.c
00000000 l    df *ABS*	00000000 truncdfsf2.c
00000000 l    df *ABS*	00000000 libgcc2.c
00000000 l    df *ABS*	00000000 lib2-mul.c
00000000 l    df *ABS*	00000000 libgcc2.c
00000000 l    df *ABS*	00000000 exit.c
00000000 l    df *ABS*	00000000 impure.c
01022e5c l     O .rwdata	00000424 impure_data
00000000 l    df *ABS*	00000000 malloc.c
00000000 l    df *ABS*	00000000 mallocr.c
00000000 l    df *ABS*	00000000 memcpy.c
00000000 l    df *ABS*	00000000 memset.c
00000000 l    df *ABS*	00000000 printf.c
00000000 l    df *ABS*	00000000 puts.c
00000000 l    df *ABS*	00000000 sbrkr.c
00000000 l    df *ABS*	00000000 snprintf.c
00000000 l    df *ABS*	00000000 strlen.c
00000000 l    df *ABS*	00000000 strnlen.c
00000000 l    df *ABS*	00000000 vfprintf.c
01022c26 l     O .rodata	00000010 zeroes.4389
01022c36 l     O .rodata	00000010 blanks.4388
00000000 l    df *ABS*	00000000 vfprintf.c
01022c46 l     O .rodata	00000010 zeroes.4404
01014078 l     F .text	000000bc __sbprintf
01022c56 l     O .rodata	00000010 blanks.4403
00000000 l    df *ABS*	00000000 vsnprintf.c
00000000 l    df *ABS*	00000000 wsetup.c
00000000 l    df *ABS*	00000000 __call_atexit.c
00000000 l    df *ABS*	00000000 dtoa.c
0101452c l     F .text	00000228 quorem
00000000 l    df *ABS*	00000000 fflush.c
00000000 l    df *ABS*	00000000 findfp.c
01016084 l     F .text	00000008 __fp_unlock
01016098 l     F .text	0000019c __sinit.part.1
01016234 l     F .text	00000008 __fp_lock
00000000 l    df *ABS*	00000000 mallocr.c
00000000 l    df *ABS*	00000000 fvwrite.c
00000000 l    df *ABS*	00000000 fwalk.c
00000000 l    df *ABS*	00000000 int_errno.c
00000000 l    df *ABS*	00000000 locale.c
010236a8 l     O .rwdata	00000020 lc_ctype_charset
01023688 l     O .rwdata	00000020 lc_message_charset
010236c8 l     O .rwdata	00000038 lconv
00000000 l    df *ABS*	00000000 makebuf.c
00000000 l    df *ABS*	00000000 memchr.c
00000000 l    df *ABS*	00000000 memmove.c
00000000 l    df *ABS*	00000000 mprec.c
01022c84 l     O .rodata	0000000c p05.2768
00000000 l    df *ABS*	00000000 mallocr.c
00000000 l    df *ABS*	00000000 s_fpclassify.c
00000000 l    df *ABS*	00000000 stdio.c
00000000 l    df *ABS*	00000000 strcmp.c
00000000 l    df *ABS*	00000000 vfprintf.c
01022da8 l     O .rodata	00000010 zeroes.4333
01022db8 l     O .rodata	00000010 blanks.4332
00000000 l    df *ABS*	00000000 vfprintf.c
0101a1a8 l     F .text	000000fc __sprint_r.part.0
01022dc8 l     O .rodata	00000010 zeroes.4349
0101b7e4 l     F .text	000000bc __sbprintf
01022dd8 l     O .rodata	00000010 blanks.4348
00000000 l    df *ABS*	00000000 writer.c
00000000 l    df *ABS*	00000000 closer.c
00000000 l    df *ABS*	00000000 mallocr.c
00000000 l    df *ABS*	00000000 fclose.c
00000000 l    df *ABS*	00000000 fputwc.c
00000000 l    df *ABS*	00000000 fstatr.c
00000000 l    df *ABS*	00000000 isattyr.c
00000000 l    df *ABS*	00000000 lseekr.c
00000000 l    df *ABS*	00000000 readr.c
00000000 l    df *ABS*	00000000 wbuf.c
00000000 l    df *ABS*	00000000 wcrtomb.c
00000000 l    df *ABS*	00000000 wctomb_r.c
00000000 l    df *ABS*	00000000 libgcc2.c
00000000 l    df *ABS*	00000000 libgcc2.c
00000000 l    df *ABS*	00000000 eqdf2.c
00000000 l    df *ABS*	00000000 gedf2.c
00000000 l    df *ABS*	00000000 ledf2.c
00000000 l    df *ABS*	00000000 fixdfsi.c
00000000 l    df *ABS*	00000000 floatsidf.c
00000000 l    df *ABS*	00000000 floatunsidf.c
00000000 l    df *ABS*	00000000 alt_close.c
0101d208 l     F .text	0000003c alt_get_errno
00000000 l    df *ABS*	00000000 alt_dev.c
0101d31c l     F .text	0000002c alt_dev_null_write
00000000 l    df *ABS*	00000000 alt_errno.c
00000000 l    df *ABS*	00000000 alt_exit.c
00000000 l    df *ABS*	00000000 alt_fstat.c
0101d37c l     F .text	0000003c alt_get_errno
00000000 l    df *ABS*	00000000 alt_iic.c
00000000 l    df *ABS*	00000000 alt_iic_isr_register.c
00000000 l    df *ABS*	00000000 alt_irq_vars.c
00000000 l    df *ABS*	00000000 alt_isatty.c
0101d710 l     F .text	0000003c alt_get_errno
00000000 l    df *ABS*	00000000 alt_lseek.c
0101d7f8 l     F .text	0000003c alt_get_errno
00000000 l    df *ABS*	00000000 alt_main.c
00000000 l    df *ABS*	00000000 alt_malloc_lock.c
00000000 l    df *ABS*	00000000 alt_read.c
0101d9d4 l     F .text	0000003c alt_get_errno
00000000 l    df *ABS*	00000000 alt_release_fd.c
00000000 l    df *ABS*	00000000 alt_sbrk.c
01024bf8 l     O .rwdata	00000004 heap_end
00000000 l    df *ABS*	00000000 alt_usleep.c
00000000 l    df *ABS*	00000000 alt_write.c
0101dc78 l     F .text	0000003c alt_get_errno
00000000 l    df *ABS*	00000000 alt_sys_init.c
0101ddb4 l     F .text	00000034 alt_dev_reg
010238a8 l     O .rwdata	000000cc epcs
01023974 l     O .rwdata	00001060 jtag_uart
010249d4 l     O .rwdata	000000c4 uart
01024a98 l     O .rwdata	000000c4 uart_dbg
00000000 l    df *ABS*	00000000 altera_avalon_epcs_flash_controller.c
0101dec0 l     F .text	00000034 alt_flash_device_register
0101df48 l     F .text	000003f8 alt_epcs_flash_query
0101e340 l     F .text	000000ec alt_epcs_flash_memcmp
0101e718 l     F .text	00000094 alt_epcs_test_address
00000000 l    df *ABS*	00000000 altera_avalon_jtag_uart_fd.c
00000000 l    df *ABS*	00000000 altera_avalon_jtag_uart_init.c
0101ebe0 l     F .text	0000020c altera_avalon_jtag_uart_irq
0101edec l     F .text	000000a0 altera_avalon_jtag_uart_timeout
00000000 l    df *ABS*	00000000 altera_avalon_jtag_uart_ioctl.c
00000000 l    df *ABS*	00000000 altera_avalon_jtag_uart_read.c
00000000 l    df *ABS*	00000000 altera_avalon_jtag_uart_write.c
00000000 l    df *ABS*	00000000 altera_avalon_uart_fd.c
00000000 l    df *ABS*	00000000 altera_avalon_uart_init.c
0101f5e0 l     F .text	0000009c altera_avalon_uart_irq
0101f67c l     F .text	000000e4 altera_avalon_uart_rxirq
0101f760 l     F .text	00000148 altera_avalon_uart_txirq
00000000 l    df *ABS*	00000000 altera_avalon_uart_read.c
0101f8fc l     F .text	0000003c alt_get_errno
00000000 l    df *ABS*	00000000 altera_avalon_uart_write.c
0101fb14 l     F .text	0000003c alt_get_errno
00000000 l    df *ABS*	00000000 epcs_commands.c
0101fd58 l     F .text	00000038 epcs_test_wip
0101fd90 l     F .text	0000003c epcs_await_wip_released
00000000 l    df *ABS*	00000000 alt_alarm_start.c
00000000 l    df *ABS*	00000000 alt_busy_sleep.c
00000000 l    df *ABS*	00000000 alt_dev_llist_insert.c
010205bc l     F .text	0000003c alt_get_errno
00000000 l    df *ABS*	00000000 alt_do_ctors.c
00000000 l    df *ABS*	00000000 alt_do_dtors.c
00000000 l    df *ABS*	00000000 alt_flash_dev.c
00000000 l    df *ABS*	00000000 alt_io_redirect.c
010208b4 l     F .text	000000e4 alt_open_fd
00000000 l    df *ABS*	00000000 alt_open.c
01020a14 l     F .text	0000003c alt_get_errno
01020a50 l     F .text	000000ec alt_file_locked
00000000 l    df *ABS*	00000000 alt_tick.c
00000000 l    df *ABS*	00000000 altera_nios2_gen2_irq.c
00000000 l    df *ABS*	00000000 altera_avalon_spi.c
00000000 l    df *ABS*	00000000 alt_find_dev.c
00000000 l    df *ABS*	00000000 alt_find_file.c
00000000 l    df *ABS*	00000000 alt_get_fd.c
00000000 l    df *ABS*	00000000 atexit.c
00000000 l    df *ABS*	00000000 memcmp.c
00000000 l    df *ABS*	00000000 __atexit.c
01009570 g     F .text	00000090 PRINT_FOG_MISALIGNMENT
01024c7c g     O .bss	00000004 alt_instruction_exception_handler
010182d0 g     F .text	00000074 _mprec_log10
01024c88 g     O .bss	00000064 sensor_data
0101e68c g     F .text	0000008c alt_epcs_flash_get_info
010183bc g     F .text	0000008c __any_on
0101bd98 g     F .text	00000054 _isatty_r
01022c90 g     O .rodata	00000028 __mprec_tinytens
0101d910 g     F .text	0000007c alt_main
0100f704 g     F .text	000000c0 _puts_r
01025560 g     O .bss	00000100 alt_irq
0101bdec g     F .text	00000060 _lseek_r
010025f0 g     F .text	00000060 I2C_op_mode_sel_ASM330LHHX
01009778 g     F .text	000001a0 PRINT_FOG_PARAMETER
0101cdac g     F .text	00000088 .hidden __eqdf2
01025660 g       *ABS*	00000000 __alt_heap_start
0100f6c8 g     F .text	0000003c printf
01001c24 g     F .text	00000044 I2C_sm_set_disable_ADS122C04_TEMP
0101c004 g     F .text	0000009c _wcrtomb_r
01018af8 g     F .text	0000005c __sseek
010163e4 g     F .text	00000010 __sinit
0101beac g     F .text	00000140 __swbuf_r
01009ef4 g     F .text	000001c0 output_mode_setting
01016eb8 g     F .text	0000007c _setlocale_r
0101623c g     F .text	00000078 __sfmoreglue
0101d9b0 g     F .text	00000024 __malloc_unlock
01022900 g     O .rodata	00000140 fog_parameter_init
01008d08 g     F .text	00000058 PARAMETER_Read
0100b3a8 g     F .text	00000440 .hidden __divsf3
01017234 g     F .text	0000015c memmove
010163cc g     F .text	00000018 _cleanup
0100f904 g     F .text	000000e4 snprintf
01017390 g     F .text	000000a8 _Balloc
01002650 g     F .text	00000060 I2C_clock_rate_sel_ASM330LHHX
01009c00 g     F .text	0000003c I2C_sm_read_finish
010012d4 g     F .text	00000040 set_ADC_all_zero
0101ce34 g     F .text	000000dc .hidden __gtdf2
01000a00 g     F .text	00000594 acq_fog
01020e3c g     F .text	00000024 altera_nios2_gen2_irq_init
0101fdcc g     F .text	000000fc epcs_sector_erase
01007158 g     F .text	00000214 dump_fog_param_framed
02001000 g     F .entry	00000000 __reset
01001b18 g     F .text	00000064 set_bit_safe_ADS122C04_TEMP
01008800 g     F .text	000001d8 EEPROM_RW_TEST
01003010 g     F .text	00000084 SerialWrite_dbg
0101bd3c g     F .text	0000005c _fstat_r
01024c5c g     O .bss	00000004 errno
01018a74 g     F .text	00000008 __seofread
01018e08 g     F .text	000013a0 ___svfiprintf_internal_r
01009948 g     F .text	00000040 I2C_sm_start
01024c74 g     O .bss	00000004 alt_argv
0102cb5c g       *ABS*	00000000 _gp
0101dc48 g     F .text	00000030 usleep
0100bd9c g     F .text	000004e4 .hidden __subsf3
01023728 g     O .rwdata	00000180 alt_fd_list
010031d0 g     F .text	000000c0 crc32_init_table
01002de0 g     F .text	00000050 checkByte_dbg
01007ac0 g     F .text	00000170 SF_temp_compensation_1st_order_fog
01020010 g     F .text	0000006c epcs_write_status_register
0102105c g     F .text	00000090 alt_find_dev
0100f428 g     F .text	00000148 memcpy
01001810 g     F .text	00000060 I2C_op_mode_sel_ADS122C04_TEMP
01001c68 g     F .text	00000068 I2C_sm_set_finish_clear_pulse_ADS122C04_TEMP
0101608c g     F .text	0000000c _cleanup_r
01003410 g     F .text	000002c8 get_uart_cmd
0101d084 g     F .text	000000dc .hidden __floatsidf
01008bf0 g     F .text	00000118 EEPROM_Read_4B_R
01020998 g     F .text	0000007c alt_io_redirect
0101cf10 g     F .text	000000f4 .hidden __ltdf2
010086fc g     F .text	0000007c crc16_ccitt_buf
01021460 g       *ABS*	00000000 __DTOR_END__
0100f7c4 g     F .text	00000014 puts
01020818 g     F .text	0000009c alt_exception_cause_generated_bad_addr
01001ae0 g     F .text	00000038 I2C_set_device_addr_ADS122C04_TEMP
01006be8 g     F .text	0000037c update_fog_parameters_to_HW_REG
0101e824 g     F .text	00000100 alt_epcs_flash_write_block
010189ac g     F .text	00000074 __fpclassifyd
0101822c g     F .text	000000a4 __ratio
0101b7c8 g     F .text	0000001c __vfiprintf_internal
0101efe4 g     F .text	0000021c altera_avalon_jtag_uart_read
0100ebf4 g     F .text	00000014 malloc
0100f698 g     F .text	00000030 _printf_r
01001b7c g     F .text	00000064 clear_bit_safe_ADS122C04_TEMP
0100ae24 g     F .text	00000064 .hidden __udivsi3
0101d74c g     F .text	000000ac isatty
01022ce0 g     O .rodata	000000c8 __mprec_tens
01009e18 g     F .text	000000dc initialize_fog_params_type
010031a4 g     F .text	0000002c IEEE_754_F2INT
01016f34 g     F .text	0000000c __locale_charset
01014224 g     F .text	00000034 vsnprintf
0100b8a4 g     F .text	000000c8 .hidden __lesf2
0100a474 g     F .text	00000028 uartAvailable
01024c58 g     O .bss	00000004 __malloc_top_pad
01024bd4 g     O .rwdata	00000004 __mb_cur_max
01016f64 g     F .text	0000000c _localeconv_r
010177c4 g     F .text	0000003c __i2b
01016868 g     F .text	000004c8 __sfvwrite_r
01001384 g     F .text	00000030 clear_DAC_reset
0100f7d8 g     F .text	00000054 _sbrk_r
010007b0 g     F .text	0000013c update_sensor_data
010008ec g     F .text	00000074 update_HINS_config_to_HW_REG
0101be4c g     F .text	00000060 _read_r
0100203c g     F .text	000000d4 I2C_write_verify_ASM330LHHX
01001190 g     F .text	0000005c acq_rst
01024bec g     O .rwdata	00000004 alt_max_fd
010017c0 g     F .text	00000050 I2C_sm_start_ADS122C04_TEMP
0101ba30 g     F .text	000000f0 _fclose_r
01002880 g     F .text	00000038 I2C_set_device_addr_ASM330LHHX
01016054 g     F .text	00000030 fflush
01024c54 g     O .bss	00000004 __malloc_max_sbrked_mem
01007d94 g     F .text	00000360 BIAS_temp_compensation_1st_order_fog_3T
01009b10 g     F .text	00000044 I2C_sm_set_enable
0100768c g     F .text	000001a4 dump_config_param_framed
0100e878 g     F .text	00000110 .hidden __extendsfdf2
0100c494 g     F .text	000008ac .hidden __adddf3
0101e7ac g     F .text	00000078 alt_epcs_flash_erase_block
01017fd4 g     F .text	0000010c __b2d
010079a4 g     F .text	0000011c send_framed_payload
0101c7e8 g     F .text	000005c4 .hidden __umoddi3
0101d834 g     F .text	000000dc lseek
01002f8c g     F .text	00000084 SerialWrite
01024bc4 g     O .rwdata	00000004 _global_impure_ptr
010202dc g     F .text	0000005c epcs_exit_4_bytes_mode
01018448 g     F .text	00000564 _realloc_r
01025660 g       *ABS*	00000000 __bss_end
0101d620 g     F .text	000000f0 alt_iic_isr_register
01020d34 g     F .text	00000108 alt_tick
0101c1ec g     F .text	000005fc .hidden __udivdi3
0101bc98 g     F .text	00000024 _fputwc_r
01022cb8 g     O .rodata	00000028 __mprec_bigtens
010175a8 g     F .text	00000104 __s2b
0101d160 g     F .text	000000a8 .hidden __floatunsidf
01017d14 g     F .text	00000060 __mcmp
0101f534 g     F .text	000000ac altera_avalon_uart_init
01016404 g     F .text	00000018 __fp_lock_all
0101d5d4 g     F .text	0000004c alt_ic_irq_enabled
01020c98 g     F .text	0000009c alt_alarm_stop
01024c0f g     O .bss	00000002 auto_rst
01024c6c g     O .bss	00000004 alt_irq_active
01001870 g     F .text	00000060 I2C_clock_rate_sel_ADS122C04_TEMP
0100fa80 g     F .text	00000044 strnlen
01008664 g     F .text	00000098 crc16_ccitt_update
010000fc g     F .exceptions	000000d4 alt_irq_handler
01023700 g     O .rwdata	00000028 alt_dev_null
01001a18 g     F .text	000000c8 I2C_read_ADS122C04_TEMP_register
01008b08 g     F .text	000000e8 EEPROM_Read_4B
010176ac g     F .text	00000068 __hi0bits
010028b8 g     F .text	00000064 set_bit_safe_ASM330LHHX
0101d004 g     F .text	00000080 .hidden __fixdfsi
01009918 g     F .text	00000030 init_EEPROM
0100a734 g     F .text	00000050 uartAck_dbg
010074e8 g     F .text	000001a4 dump_misalignment_param_framed
01024be4 g     O .rwdata	00000008 alt_dev_list
0100933c g     F .text	0000009c LOAD_FOG_SN
0101dcb4 g     F .text	00000100 write
01025160 g     O .bss	00000400 crc_table
010029c4 g     F .text	00000044 I2C_sm_set_disable_ASM330LHHX
0100b7e8 g     F .text	000000bc .hidden __gtsf2
01000960 g     F .text	00000064 TRIGGER_IRQ_init
0100a5fc g     F .text	00000028 uartAvailable_dbg
0101d3b8 g     F .text	000000b8 fstat
010018d0 g     F .text	00000098 I2C_write_ADS122C04_TEMP_cmd
0101cf10 g     F .text	000000f4 .hidden __ledf2
01003290 g     F .text	000000f4 crc_32
010093d8 g     F .text	000000a8 LOAD_CONFIG
01017a8c g     F .text	00000140 __pow5mult
0101a2bc g     F .text	0000150c ___vfiprintf_internal_r
01024c68 g     O .bss	00000004 __nlocale_changed
0100ae88 g     F .text	00000058 .hidden __umodsi3
01020198 g     F .text	00000068 epcs_read_electronic_signature
01008db8 g     F .text	00000488 PARAMETER_Write_s
010036d8 g     F .text	0000006c cmd_mux
01025660 g       *ABS*	00000000 end
0101fb50 g     F .text	000001ac altera_avalon_uart_write
0101eb20 g     F .text	000000c0 altera_avalon_jtag_uart_init
010001d0 g     F .exceptions	00000060 alt_instruction_exception_entry
01021460 g       *ABS*	00000000 __CTOR_LIST__
0100a784 g     F .text	000002d4 readDataDynamic
02000000 g       *ABS*	00000000 __alt_stack_pointer
0101f484 g     F .text	00000060 altera_avalon_uart_write_fd
0100eb30 g     F .text	00000064 .hidden __clzsi2
0100f82c g     F .text	000000d8 _snprintf_r
0101f4e4 g     F .text	00000050 altera_avalon_uart_close_fd
0101f200 g     F .text	00000224 altera_avalon_jtag_uart_write
010163f4 g     F .text	00000004 __sfp_lock_acquire
01017150 g     F .text	000000e4 memchr
01011d80 g     F .text	000022dc ___vfprintf_internal_r
01009b98 g     F .text	00000068 I2C_sm_set_finish_clear_pulse
01002110 g     F .text	0000006c test_ASM330LHHX
01008264 g     F .text	00000360 misalignment_calibration
01016558 g     F .text	00000310 _free_r
0100a6f8 g     F .text	0000003c uartGetc_dbg
01016f40 g     F .text	00000010 __locale_mb_cur_max
010143ac g     F .text	00000180 __call_exitprocs
01024c64 g     O .bss	00000004 __mlocale_changed
01024bcc g     O .rwdata	00000004 __malloc_sbrk_base
01000230 g     F .text	00000038 _start
01024c80 g     O .bss	00000004 _alt_tick_rate
01008624 g     F .text	00000040 uart_write_cstr
01017bcc g     F .text	00000148 __lshift
01020e60 g     F .text	000001fc alt_avalon_spi_command
01024c84 g     O .bss	00000004 _alt_nticks
0101da10 g     F .text	00000104 read
0101de20 g     F .text	000000a0 alt_sys_init
0100c280 g     F .text	00000124 .hidden __floatsisf
01018c38 g     F .text	000001d0 __ssprint_r
01021348 g     F .text	00000118 __register_exitproc
01009aac g     F .text	00000064 clear_bit_safe
01009480 g     F .text	00000044 PRINT_FOG_CONFIG
01007830 g     F .text	0000006c dump_SN_framed
01024b5c g     O .rwdata	00000002 cmd_header
0100a38c g     F .text	000000e8 uartInit
01017800 g     F .text	0000028c __multiply
0101ee8c g     F .text	00000068 altera_avalon_jtag_uart_close
01002aac g     F .text	000000bc moving_average_init
0100eb94 g     F .text	00000028 .hidden __mulsi3
01025138 g     O .bss	00000028 __malloc_current_mallinfo
010180e0 g     F .text	0000014c __d2b
0101fcfc g     F .text	0000005c epcs_read_status_register
01001460 g     F .text	0000006c test_ADS122C04
0100384c g     F .text	00000084 Set_Dac_Gain_z
0101e9bc g     F .text	00000060 altera_avalon_jtag_uart_read_fd
010211f4 g     F .text	000000c4 alt_get_fd
01003094 g     F .text	00000088 SerialWrite_r
01020464 g     F .text	00000158 alt_busy_sleep
0101b900 g     F .text	00000054 _close_r
01003384 g     F .text	0000008c print_crc
01020200 g     F .text	00000080 epcs_read_device_id
010212cc g     F .text	0000007c memcmp
0101ea7c g     F .text	00000050 altera_avalon_jtag_uart_close_fd
01025660 g       *ABS*	00000000 __alt_stack_base
0101eacc g     F .text	00000054 altera_avalon_jtag_uart_ioctl_fd
01014258 g     F .text	00000154 __swsetup_r
01024b90 g     O .rwdata	00000004 output_fn
0100cd40 g     F .text	000009d0 .hidden __divdf3
010162b4 g     F .text	00000118 __sfp
01018344 g     F .text	00000078 __copybits
01023280 g     O .rwdata	00000408 __malloc_av_
01016400 g     F .text	00000004 __sinit_lock_release
01014134 g     F .text	000000f0 _vsnprintf_r
01024c1c g     O .bss	00000004 my_f
0100aa58 g     F .text	000002d4 readDataDynamic_dbg
0100d710 g     F .text	0000086c .hidden __muldf3
01018a20 g     F .text	00000054 __sread
01022e3c g     O .rwdata	00000020 my_cmd
010210ec g     F .text	00000108 alt_find_file
010205f8 g     F .text	000000a4 alt_dev_llist_insert
0101d98c g     F .text	00000024 __malloc_lock
0101db98 g     F .text	000000b0 sbrk
0100fac4 g     F .text	000022bc ___svfprintf_internal_r
01000474 g     F .text	0000033c dbg_mems
01015ff8 g     F .text	0000005c _fflush_r
0101b954 g     F .text	000000dc _calloc_r
01000418 g     F .text	0000005c monitor_reg
01024bfc g     O .rwdata	00000008 alt_flash_dev_list
01024c0c g       *ABS*	00000000 __bss_start
01008d60 g     F .text	00000058 PARAMETER_Read_R
0100f570 g     F .text	00000128 memset
01000268 g     F .text	000001b0 main
010089d8 g     F .text	000000d8 EEPROM_Write_4B
01024c78 g     O .bss	00000004 alt_envp
01024c50 g     O .bss	00000004 __malloc_max_total_mem
01008778 g     F .text	00000088 update_datarate_to_HW_REG
0101ea1c g     F .text	00000060 altera_avalon_jtag_uart_write_fd
010080f4 g     F .text	00000170 BIAS_temp_compensation_1st_order_adxl357
0100291c g     F .text	00000064 clear_bit_safe_ASM330LHHX
0101bfec g     F .text	00000018 __swbuf
0100b8a4 g     F .text	000000c8 .hidden __ltsf2
01001354 g     F .text	00000030 set_DAC_reset
01018b54 g     F .text	00000008 __sclose
01002c84 g     F .text	0000003c moving_average_free
02000000 g       *ABS*	00000000 __alt_heap_limit
0101bb20 g     F .text	00000014 fclose
01009b54 g     F .text	00000044 I2C_sm_set_disable
0100e988 g     F .text	000001a8 .hidden __truncdfsf2
01014754 g     F .text	00001688 _dtoa_r
0100ec1c g     F .text	0000080c _malloc_r
010025a0 g     F .text	00000050 I2C_sm_start_ASM330LHHX
0101c160 g     F .text	00000030 __ascii_wctomb
010038d0 g     F .text	00003318 fog_parameter
01024bf0 g     O .rwdata	00000004 alt_errno
01016d30 g     F .text	000000c4 _fwalk
01002b68 g     F .text	0000011c moving_average_update
0100736c g     F .text	0000017c dump_misalignment_param
0100ad2c g     F .text	00000084 .hidden __divsi3
01001cd0 g     F .text	0000003c I2C_sm_read_finish_ADS122C04_TEMP
01016434 g     F .text	00000124 _malloc_trim_r
01021460 g       *ABS*	00000000 __CTOR_END__
0100b96c g     F .text	00000430 .hidden __mulsf3
0100793c g     F .text	00000068 send_json_uart
0100217c g     F .text	00000424 read_ASM330LHHX
010026b0 g     F .text	000000d8 I2C_write_ASM330LHHX_register
0100a49c g     F .text	000000d4 uartGetByte
0101e42c g     F .text	00000260 alt_epcs_flash_write
01018b5c g     F .text	000000dc strcmp
01002980 g     F .text	00000044 I2C_sm_set_enable_ASM330LHHX
01002788 g     F .text	000000f8 I2C_read_ASM330LHHX_register
01021460 g       *ABS*	00000000 __DTOR_LIST__
01009240 g     F .text	000000fc EEPROM_Write_initial_parameter
01002ea0 g     F .text	000000ec uart_printf_dbg
0101cdac g     F .text	00000088 .hidden __nedf2
0101dde8 g     F .text	00000038 alt_irq_init
0101db14 g     F .text	00000084 alt_release_fd
01009600 g     F .text	00000178 LOAD_FOG_PARAMETER
01002e30 g     F .text	00000070 uart_printf
01022adb g     O .rodata	00000100 .hidden __clz_tab
01024c60 g     O .bss	00000004 _PathLocale
01003744 g     F .text	00000084 Set_Dac_Gain_x
010212b8 g     F .text	00000014 atexit
0100b7e8 g     F .text	000000bc .hidden __gesf2
010094c4 g     F .text	000000ac LOAD_FOG_MISALIGNMENT
0101b8a0 g     F .text	00000060 _write_r
01016f70 g     F .text	00000018 setlocale
01007c30 g     F .text	00000164 SF_temp_compensation_1st_order_adxl357
01024bc8 g     O .rwdata	00000004 _impure_ptr
01024c70 g     O .bss	00000004 alt_argc
01015ddc g     F .text	0000021c __sflush_r
010206fc g     F .text	00000060 _do_dtors
01009a48 g     F .text	00000064 set_bit_safe
01016f5c g     F .text	00000008 __locale_cjk_lang
01000020 g       .exceptions	00000000 alt_irq_entry
01017f70 g     F .text	00000064 __ulp
0101641c g     F .text	00000018 __fp_unlock_all
01024bdc g     O .rwdata	00000008 alt_fs_list
01024c0e g     O .bss	00000001 trigger_sig
01001d9c g     F .text	000002a0 init_ASM330LHHX
010014cc g     F .text	000002f4 read_ADS122C04_TEMP
010099e8 g     F .text	00000060 I2C_clock_rate_sel
01016f88 g     F .text	0000000c localeconv
0101fec8 g     F .text	000000f4 epcs_read_buffer
01008ab0 g     F .text	00000058 PARAMETER_Write_f
0101def4 g     F .text	00000054 alt_epcs_flash_init
010085c4 g     F .text	00000060 uart_write_bytes
01001314 g     F .text	00000040 set_ADC_all_one
0101d470 g     F .text	00000050 alt_ic_isr_register
01006f64 g     F .text	000001f4 dump_fog_param
01024c0c g       *ABS*	00000000 _edata
0101f424 g     F .text	00000060 altera_avalon_uart_read_fd
01025660 g       *ABS*	00000000 _end
0102075c g     F .text	00000068 alt_flash_open_dev
0101bb34 g     F .text	00000164 __fputwc
0101eef4 g     F .text	000000f0 altera_avalon_jtag_uart_ioctl
01001968 g     F .text	000000b0 I2C_write_ADS122C04_TEMP_register
0100789c g     F .text	000000a0 dump_version_framed
0101d548 g     F .text	0000008c alt_ic_irq_disable
01020280 g     F .text	0000005c epcs_enter_4_bytes_mode
01018a7c g     F .text	0000007c __swrite
01024bd0 g     O .rwdata	00000004 __malloc_trim_threshold
01016f50 g     F .text	0000000c __locale_msgcharset
0100ebbc g     F .text	00000038 exit
01016df4 g     F .text	000000c4 _fwalk_reent
0100c3a4 g     F .text	000000f0 .hidden __floatunsisf
01017d74 g     F .text	000001fc __mdiff
010207c4 g     F .text	00000054 alt_flash_close_dev
0100adb0 g     F .text	00000074 .hidden __modsi3
01002a08 g     F .text	00000068 I2C_sm_set_finish_clear_pulse_ASM330LHHX
02000000 g       *ABS*	00000000 __alt_data_end
01000020 g     F .exceptions	00000000 alt_exception
010163f8 g     F .text	00000004 __sfp_lock_release
01002cc0 g     F .text	000000d0 sendTx
01000000 g       *ABS*	00000000 __alt_mem_sdram
0101f8a8 g     F .text	00000054 altera_avalon_uart_close
010009c4 g     F .text	0000003c IRQ_TRIGGER_ISR
0101d348 g     F .text	00000034 _exit
0100a570 g     F .text	0000003c uartGetc
01020338 g     F .text	0000012c alt_alarm_start
01016f94 g     F .text	000001bc __smakebuf_r
0100f9e8 g     F .text	00000098 strlen
0101ffbc g     F .text	00000054 epcs_write_enable
01020b3c g     F .text	0000015c open
01002d90 g     F .text	00000050 checkByte
0101ce34 g     F .text	000000dc .hidden __gedf2
0100311c g     F .text	00000088 SerialWrite_dbg_r
0100a624 g     F .text	000000d4 uartGetByte_dbg
010013b4 g     F .text	000000ac init_ADS122C04_TEMP
01024bd8 g     O .rwdata	00000004 __wctomb
01001be0 g     F .text	00000044 I2C_sm_set_enable_ADS122C04_TEMP
0101a2a4 g     F .text	00000018 __sprint_r
010037c8 g     F .text	00000084 Set_Dac_Gain_y
01024bf4 g     O .rwdata	00000004 alt_priority_mask
01009c3c g     F .text	000001dc initialize_fog_params_all
0101d4c0 g     F .text	00000088 alt_ic_irq_enable
0101405c g     F .text	0000001c __vfprintf_internal
02001000 g       *ABS*	00000000 __alt_mem_epcs
0101f938 g     F .text	000001dc altera_avalon_uart_read
0101c190 g     F .text	0000005c _wctomb_r
0100df7c g     F .text	000008fc .hidden __subdf3
0101e924 g     F .text	00000098 alt_epcs_flash_read
01002a70 g     F .text	0000003c I2C_sm_read_finish_ASM330LHHX
01017714 g     F .text	000000b0 __lo0bits
01024c04 g     O .rwdata	00000008 alt_alarm_list
0102069c g     F .text	00000060 _do_ctors
0101c0a0 g     F .text	000000c0 wcrtomb
0101d244 g     F .text	000000d8 close
0100aee0 g     F .text	000004c8 .hidden __addsf3
010011ec g     F .text	000000e8 init_ADDA
01009988 g     F .text	00000060 I2C_op_mode_sel_EEPROM
0101bcbc g     F .text	00000080 fputwc
0100a5ac g     F .text	00000050 uartAck
0100ec08 g     F .text	00000014 free
010163fc g     F .text	00000004 __sinit_lock_acquire
0102007c g     F .text	0000011c epcs_write_buffer
01000f94 g     F .text	000001fc acq_imu
01017460 g     F .text	00000148 __multadd
01017438 g     F .text	00000028 _Bfree
01024b5e g     O .rwdata	00000002 cmd_trailer



Disassembly of section .exceptions:

01000020 <alt_exception>:

#else /* ALT_EXCEPTION_STACK disabled */
        /* 
         * Reserve space on normal stack for registers about to be pushed.
         */
        addi  sp, sp, -76
 1000020:	deffed04 	addi	sp,sp,-76
         * documentation for details).
         *
         * Leave a gap in the stack frame at 4(sp) for the muldiv handler to
         * store zero into.
         */
        stw   ra,  0(sp)
 1000024:	dfc00015 	stw	ra,0(sp)
        stw   r1,   8(sp)
 1000028:	d8400215 	stw	at,8(sp)
        stw   r2,  12(sp)
 100002c:	d8800315 	stw	r2,12(sp)
        stw   r3,  16(sp)
 1000030:	d8c00415 	stw	r3,16(sp)
        stw   r4,  20(sp)
 1000034:	d9000515 	stw	r4,20(sp)
        stw   r5,  24(sp)
 1000038:	d9400615 	stw	r5,24(sp)
        stw   r6,  28(sp)
 100003c:	d9800715 	stw	r6,28(sp)
        stw   r7,  32(sp)
 1000040:	d9c00815 	stw	r7,32(sp)
        rdctl r5, estatus   /* Read early to avoid usage stall */
 1000044:	000b307a 	rdctl	r5,estatus
        stw   r8,  36(sp)
 1000048:	da000915 	stw	r8,36(sp)
        stw   r9,  40(sp)
 100004c:	da400a15 	stw	r9,40(sp)
        stw   r10, 44(sp)
 1000050:	da800b15 	stw	r10,44(sp)
        stw   r11, 48(sp)
 1000054:	dac00c15 	stw	r11,48(sp)
        stw   r12, 52(sp)
 1000058:	db000d15 	stw	r12,52(sp)
        stw   r13, 56(sp)
 100005c:	db400e15 	stw	r13,56(sp)
        stw   r14, 60(sp)
 1000060:	db800f15 	stw	r14,60(sp)
        stw   r15, 64(sp)
 1000064:	dbc01015 	stw	r15,64(sp)
        /*
         * ea-4 contains the address of the instruction being executed
         * when the exception occured. For interrupt exceptions, we will
         * will be re-issue the isntruction. Store it in 72(sp)
         */
        stw   r5,  68(sp)  /* estatus */
 1000068:	d9401115 	stw	r5,68(sp)
        addi  r15, ea, -4  /* instruction that caused exception */
 100006c:	ebffff04 	addi	r15,ea,-4
        stw   r15,  72(sp)
 1000070:	dbc01215 	stw	r15,72(sp)
#else
        /*
         * Test to see if the exception was a software exception or caused 
         * by an external interrupt, and vector accordingly.
         */
        rdctl r4, ipending
 1000074:	0009313a 	rdctl	r4,ipending
        andi  r2, r5, 1
 1000078:	2880004c 	andi	r2,r5,1
        beq   r2, zero, .Lnot_irq
 100007c:	10000326 	beq	r2,zero,100008c <alt_exception+0x6c>
        beq   r4, zero, .Lnot_irq
 1000080:	20000226 	beq	r4,zero,100008c <alt_exception+0x6c>
        /*
         * Now that all necessary registers have been preserved, call 
         * alt_irq_handler() to process the interrupts.
         */

        call alt_irq_handler
 1000084:	10000fc0 	call	10000fc <alt_irq_handler>

        .section .exceptions.irqreturn, "xa"

        br    .Lexception_exit
 1000088:	00000706 	br	10000a8 <alt_exception+0x88>
         * upon completion, so we write ea (address of instruction *after*
         * the one where the exception occured) into 72(sp). The actual
         * instruction that caused the exception is written in r2, which these
         * handlers will utilize.
         */
        stw ea, 72(sp) /* EA is PC+4 so will skip over instruction causing exception */
 100008c:	df401215 	stw	ea,72(sp)
.Lunknown_16bit:
        addi.n r4, r4, 2 /* Need PC+2 to skip over instruction causing exception */
        stw r4, 72(sp)

#else /* CDX is not Enabled and all instructions are 32bits */
        ldw r2, -4(ea) /* Instruction value that caused exception */
 1000090:	e8bfff17 	ldw	r2,-4(ea)
         * debugger is present) or go into an infinite loop since the
         * handling behavior is undefined; in that case we will not return here.
         */

        /* Load exception-causing address as first argument (r4) */
        addi   r4, ea, -4
 1000094:	e93fff04 	addi	r4,ea,-4

        /* Call the instruction-exception entry */
        call   alt_instruction_exception_entry
 1000098:	10001d00 	call	10001d0 <alt_instruction_exception_entry>
         * instruction
         *
         * Return code was 0: Skip. The instruction after the exception is
         * already stored in 72(sp).
         */
        bne   r2, r0, .Lexception_exit
 100009c:	1000021e 	bne	r2,zero,10000a8 <alt_exception+0x88>

        /*
         * Otherwise, modify 72(sp) to re-issue the instruction that caused the
         * exception.
         */
        addi  r15, ea, -4  /* instruction that caused exception */
 10000a0:	ebffff04 	addi	r15,ea,-4
        stw   r15,  72(sp)
 10000a4:	dbc01215 	stw	r15,72(sp)
        /* 
         * Restore the saved registers, so that all general purpose registers 
         * have been restored to their state at the time the interrupt occured.
         */

        ldw   r5,  68(sp)
 10000a8:	d9401117 	ldw	r5,68(sp)
        ldw   ea,  72(sp)  /* This becomes the PC once eret is executed */
 10000ac:	df401217 	ldw	ea,72(sp)
        ldw   ra,   0(sp)
 10000b0:	dfc00017 	ldw	ra,0(sp)

        wrctl estatus, r5
 10000b4:	2801707a 	wrctl	estatus,r5

        ldw   r1,   8(sp)
 10000b8:	d8400217 	ldw	at,8(sp)
        ldw   r2,  12(sp)
 10000bc:	d8800317 	ldw	r2,12(sp)
        ldw   r3,  16(sp)
 10000c0:	d8c00417 	ldw	r3,16(sp)
        ldw   r4,  20(sp)
 10000c4:	d9000517 	ldw	r4,20(sp)
        ldw   r5,  24(sp)
 10000c8:	d9400617 	ldw	r5,24(sp)
        ldw   r6,  28(sp)
 10000cc:	d9800717 	ldw	r6,28(sp)
        ldw   r7,  32(sp)
 10000d0:	d9c00817 	ldw	r7,32(sp)

#if defined(ALT_EXCEPTION_STACK) && defined(ALT_STACK_CHECK)
        ldw   et, %gprel(alt_exception_old_stack_limit)(gp)
#endif

        ldw   r8,  36(sp)
 10000d4:	da000917 	ldw	r8,36(sp)
        ldw   r9,  40(sp)
 10000d8:	da400a17 	ldw	r9,40(sp)
        ldw   r10, 44(sp)
 10000dc:	da800b17 	ldw	r10,44(sp)
        ldw   r11, 48(sp)
 10000e0:	dac00c17 	ldw	r11,48(sp)
        ldw   r12, 52(sp)
 10000e4:	db000d17 	ldw	r12,52(sp)
        ldw   r13, 56(sp)
 10000e8:	db400e17 	ldw	r13,56(sp)
        ldw   r14, 60(sp)
 10000ec:	db800f17 	ldw	r14,60(sp)
        ldw   r15, 64(sp)
 10000f0:	dbc01017 	ldw	r15,64(sp)
        stw   et, %gprel(alt_stack_limit_value)(gp)
        stw   zero, %gprel(alt_exception_old_stack_limit)(gp)
#endif /* ALT_STACK_CHECK */
        ldw   sp,  76(sp)
#else /* ALT_EXCEPTION_STACK disabled */
        addi  sp, sp, 76
 10000f4:	dec01304 	addi	sp,sp,76

        /*
         * Return to the interrupted instruction.
         */

        eret
 10000f8:	ef80083a 	eret

010000fc <alt_irq_handler>:
 * instruction is present if the macro ALT_CI_INTERRUPT_VECTOR defined.
 */

void alt_irq_handler (void) __attribute__ ((section (".exceptions")));
void alt_irq_handler (void)
{
 10000fc:	defff904 	addi	sp,sp,-28
 1000100:	dfc00615 	stw	ra,24(sp)
 1000104:	df000515 	stw	fp,20(sp)
 1000108:	df000504 	addi	fp,sp,20
  
  /*
   * Notify the operating system that we are at interrupt level.
   */ 
  
  ALT_OS_INT_ENTER();
 100010c:	0001883a 	nop
#ifndef NIOS2_EIC_PRESENT
static ALT_INLINE alt_u32 ALT_ALWAYS_INLINE alt_irq_pending (void)
{
  alt_u32 active;

  NIOS2_READ_IPENDING (active);
 1000110:	0005313a 	rdctl	r2,ipending
 1000114:	e0bffe15 	stw	r2,-8(fp)

  return active;
 1000118:	e0bffe17 	ldw	r2,-8(fp)
   * Consider the case where the high priority interupt is asserted during
   * the interrupt entry sequence for a lower priority interrupt to see why
   * this is the case.
   */

  active = alt_irq_pending ();
 100011c:	e0bffb15 	stw	r2,-20(fp)

  do
  {
    i = 0;
 1000120:	e03ffd15 	stw	zero,-12(fp)
    mask = 1;
 1000124:	00800044 	movi	r2,1
 1000128:	e0bffc15 	stw	r2,-16(fp)
     * called to clear the interrupt condition.
     */

    do
    {
      if (active & mask)
 100012c:	e0fffb17 	ldw	r3,-20(fp)
 1000130:	e0bffc17 	ldw	r2,-16(fp)
 1000134:	1884703a 	and	r2,r3,r2
 1000138:	10001426 	beq	r2,zero,100018c <alt_irq_handler+0x90>
      { 
#ifdef ALT_ENHANCED_INTERRUPT_API_PRESENT
        alt_irq[i].handler(alt_irq[i].context); 
 100013c:	008040b4 	movhi	r2,258
 1000140:	10955804 	addi	r2,r2,21856
 1000144:	e0fffd17 	ldw	r3,-12(fp)
 1000148:	180690fa 	slli	r3,r3,3
 100014c:	10c5883a 	add	r2,r2,r3
 1000150:	10c00017 	ldw	r3,0(r2)
 1000154:	008040b4 	movhi	r2,258
 1000158:	10955804 	addi	r2,r2,21856
 100015c:	e13ffd17 	ldw	r4,-12(fp)
 1000160:	200890fa 	slli	r4,r4,3
 1000164:	1105883a 	add	r2,r2,r4
 1000168:	10800104 	addi	r2,r2,4
 100016c:	10800017 	ldw	r2,0(r2)
 1000170:	1009883a 	mov	r4,r2
 1000174:	183ee83a 	callr	r3
#else
        alt_irq[i].handler(alt_irq[i].context, i); 
#endif
        break;
 1000178:	0001883a 	nop
#ifndef NIOS2_EIC_PRESENT
static ALT_INLINE alt_u32 ALT_ALWAYS_INLINE alt_irq_pending (void)
{
  alt_u32 active;

  NIOS2_READ_IPENDING (active);
 100017c:	0005313a 	rdctl	r2,ipending
 1000180:	e0bfff15 	stw	r2,-4(fp)

  return active;
 1000184:	e0bfff17 	ldw	r2,-4(fp)
 1000188:	00000706 	br	10001a8 <alt_irq_handler+0xac>
      }
      mask <<= 1;
 100018c:	e0bffc17 	ldw	r2,-16(fp)
 1000190:	1085883a 	add	r2,r2,r2
 1000194:	e0bffc15 	stw	r2,-16(fp)
      i++;
 1000198:	e0bffd17 	ldw	r2,-12(fp)
 100019c:	10800044 	addi	r2,r2,1
 10001a0:	e0bffd15 	stw	r2,-12(fp)

    } while (1);
 10001a4:	003fe106 	br	100012c <__alt_mem_epcs+0xfefff12c>

    active = alt_irq_pending ();
 10001a8:	e0bffb15 	stw	r2,-20(fp)
    
  } while (active);
 10001ac:	e0bffb17 	ldw	r2,-20(fp)
 10001b0:	103fdb1e 	bne	r2,zero,1000120 <__alt_mem_epcs+0xfefff120>

  /*
   * Notify the operating system that interrupt processing is complete.
   */ 

  ALT_OS_INT_EXIT();
 10001b4:	0001883a 	nop
}
 10001b8:	0001883a 	nop
 10001bc:	e037883a 	mov	sp,fp
 10001c0:	dfc00117 	ldw	ra,4(sp)
 10001c4:	df000017 	ldw	fp,0(sp)
 10001c8:	dec00204 	addi	sp,sp,8
 10001cc:	f800283a 	ret

010001d0 <alt_instruction_exception_entry>:
 * that handler if it has been registered. Absent a handler, it will
 * break break or hang as discussed below.
 */
int 
alt_instruction_exception_entry (alt_u32 exception_pc)
{
 10001d0:	defffb04 	addi	sp,sp,-20
 10001d4:	dfc00415 	stw	ra,16(sp)
 10001d8:	df000315 	stw	fp,12(sp)
 10001dc:	df000304 	addi	fp,sp,12
 10001e0:	e13fff15 	stw	r4,-4(fp)
  cause = ( (cause & NIOS2_EXCEPTION_REG_CAUSE_MASK) >>
              NIOS2_EXCEPTION_REG_CAUSE_OFST );

  NIOS2_READ_BADADDR(badaddr);
#else
  cause = NIOS2_EXCEPTION_CAUSE_NOT_PRESENT;
 10001e4:	00bfffc4 	movi	r2,-1
 10001e8:	e0bffd15 	stw	r2,-12(fp)
  badaddr = 0;
 10001ec:	e03ffe15 	stw	zero,-8(fp)
#endif /* NIOS2_HAS_EXTRA_EXCEPTION_INFO */

  if(alt_instruction_exception_handler) {
 10001f0:	d0a04817 	ldw	r2,-32480(gp)
 10001f4:	10000726 	beq	r2,zero,1000214 <alt_instruction_exception_entry+0x44>
     * Call handler. Its return value indicates whether the exception-causing
     * instruction should be re-issued. The code that called us,
     * alt_eceptions_entry.S, will look at this value and adjust the ea
     * register as necessary
     */
    return alt_instruction_exception_handler(cause, exception_pc, badaddr);
 10001f8:	d0a04817 	ldw	r2,-32480(gp)
 10001fc:	e0fffd17 	ldw	r3,-12(fp)
 1000200:	e1bffe17 	ldw	r6,-8(fp)
 1000204:	e17fff17 	ldw	r5,-4(fp)
 1000208:	1809883a 	mov	r4,r3
 100020c:	103ee83a 	callr	r2
 1000210:	00000206 	br	100021c <alt_instruction_exception_entry+0x4c>
   *    (a peripheral which negates its interrupt output before its
   *    interrupt handler has been executed will cause spurious interrupts)
   */
  else {
#ifdef NIOS2_HAS_DEBUG_STUB
    NIOS2_BREAK();
 1000214:	003da03a 	break	0
      ;
#endif /* NIOS2_HAS_DEBUG_STUB */
  }

  /* We should not get here. Remove compiler warning. */
  return NIOS2_EXCEPTION_RETURN_REISSUE_INST;
 1000218:	0005883a 	mov	r2,zero
}
 100021c:	e037883a 	mov	sp,fp
 1000220:	dfc00117 	ldw	ra,4(sp)
 1000224:	df000017 	ldw	fp,0(sp)
 1000228:	dec00204 	addi	sp,sp,8
 100022c:	f800283a 	ret

Disassembly of section .text:

01000230 <_start>:

    /*
     * Now that the caches are initialized, set up the stack pointer and global pointer.
     * The values provided by the linker are assumed to be correctly aligned.
     */
    movhi sp, %hi(__alt_stack_pointer)
 1000230:	06c08034 	movhi	sp,512
    ori sp, sp, %lo(__alt_stack_pointer)
 1000234:	dec00014 	ori	sp,sp,0
    movhi gp, %hi(_gp)
 1000238:	068040b4 	movhi	gp,258
    ori gp, gp, %lo(_gp)
 100023c:	d6b2d714 	ori	gp,gp,52060
 */
#ifndef ALT_SIM_OPTIMIZE
    /* Log that the BSS is about to be cleared. */
    ALT_LOG_PUTS(alt_log_msg_bss)

    movhi r2, %hi(__bss_start)
 1000240:	008040b4 	movhi	r2,258
    ori r2, r2, %lo(__bss_start)
 1000244:	10930314 	ori	r2,r2,19468

    movhi r3, %hi(__bss_end)
 1000248:	00c040b4 	movhi	r3,258
    ori r3, r3, %lo(__bss_end)
 100024c:	18d59814 	ori	r3,r3,22112

    beq r2, r3, 1f
 1000250:	10c00326 	beq	r2,r3,1000260 <_start+0x30>

0:
    stw zero, (r2)
 1000254:	10000015 	stw	zero,0(r2)
    addi r2, r2, 4
 1000258:	10800104 	addi	r2,r2,4
    bltu r2, r3, 0b
 100025c:	10fffd36 	bltu	r2,r3,1000254 <__alt_mem_epcs+0xfefff254>

    /* Log that alt_main is about to be called. */
    ALT_LOG_PUTS(alt_log_msg_alt_main)

    /* Call the C entry point. It should never return. */
    call alt_main
 1000260:	101d9100 	call	101d910 <alt_main>

01000264 <alt_after_alt_main>:

    /* Wait in infinite loop in case alt_main does return. */
alt_after_alt_main:
    br alt_after_alt_main
 1000264:	003fff06 	br	1000264 <__alt_mem_epcs+0xfefff264>

01000268 <main>:
	}
};


int main(void)
{
 1000268:	defd6e04 	addi	sp,sp,-2632
 100026c:	dfc29115 	stw	ra,2628(sp)
 1000270:	df029015 	stw	fp,2624(sp)
 1000274:	dc428f15 	stw	r17,2620(sp)
 1000278:	dc028e15 	stw	r16,2616(sp)
 100027c:	df029004 	addi	fp,sp,2624

    fog_parameter_t fog_params;	 //parameter container

    DEBUG_PRINT("Running IRIS CPU!\n");
 1000280:	010040b4 	movhi	r4,258
 1000284:	21051804 	addi	r4,r4,5216
 1000288:	1002ea00 	call	1002ea0 <uart_printf_dbg>
	// printf("Running IRIS CPU!\n");
    

    DEBUG_PRINT("TRIGGER_IRQ_init\n");
 100028c:	010040b4 	movhi	r4,258
 1000290:	21051d04 	addi	r4,r4,5236
 1000294:	1002ea00 	call	1002ea0 <uart_printf_dbg>
	crc32_init_table();
 1000298:	10031d00 	call	10031d0 <crc32_init_table>
	TRIGGER_IRQ_init();
 100029c:	10009600 	call	1000960 <TRIGGER_IRQ_init>
	// printf("uartInit\n");
    DEBUG_PRINT("uartInit\n");
 10002a0:	010040b4 	movhi	r4,258
 10002a4:	21052204 	addi	r4,r4,5256
 10002a8:	1002ea00 	call	1002ea0 <uart_printf_dbg>
	uartInit(); //interrupt method of uart defined in uart.c not main()
 10002ac:	100a38c0 	call	100a38c <uartInit>
	// printf("init_ADDA\n");
	DEBUG_PRINT("init_ADDA\n");
 10002b0:	010040b4 	movhi	r4,258
 10002b4:	21052504 	addi	r4,r4,5268
 10002b8:	1002ea00 	call	1002ea0 <uart_printf_dbg>
    set_DAC_reset();
 10002bc:	10013540 	call	1001354 <set_DAC_reset>
	usleep(50);
 10002c0:	01000c84 	movi	r4,50
 10002c4:	101dc480 	call	101dc48 <usleep>
	clear_DAC_reset();
 10002c8:	10013840 	call	1001384 <clear_DAC_reset>
	init_ADDA();
 10002cc:	10011ec0 	call	10011ec <init_ADDA>
	// printf("init_EEPROM\n");
    DEBUG_PRINT("init_EEPROM\n");
 10002d0:	010040b4 	movhi	r4,258
 10002d4:	21052804 	addi	r4,r4,5280
 10002d8:	1002ea00 	call	1002ea0 <uart_printf_dbg>
	init_EEPROM();
 10002dc:	10099180 	call	1009918 <init_EEPROM>
	// printf("init_ADS122C04_TEMP\n");
    DEBUG_PRINT("init_ADS122C04_TEMP\n");
 10002e0:	010040b4 	movhi	r4,258
 10002e4:	21052c04 	addi	r4,r4,5296
 10002e8:	1002ea00 	call	1002ea0 <uart_printf_dbg>
	init_ADS122C04_TEMP();
 10002ec:	10013b40 	call	10013b4 <init_ADS122C04_TEMP>
    init_ASM330LHHX();
 10002f0:	1001d9c0 	call	1001d9c <init_ASM330LHHX>
    DEBUG_PRINT("initialize_fog_params_type\n");
 10002f4:	010040b4 	movhi	r4,258
 10002f8:	21053204 	addi	r4,r4,5320
 10002fc:	1002ea00 	call	1002ea0 <uart_printf_dbg>
	// initialize_fog_params_type(&fog_params);

    LOAD_FOG_PARAMETER(&fog_params);
 1000300:	e13ec204 	addi	r4,fp,-1272
 1000304:	10096000 	call	1009600 <LOAD_FOG_PARAMETER>
	LOAD_FOG_MISALIGNMENT(&fog_params);
 1000308:	e13ec204 	addi	r4,fp,-1272
 100030c:	10094c40 	call	10094c4 <LOAD_FOG_MISALIGNMENT>
    LOAD_CONFIG(&fog_params);
 1000310:	e13ec204 	addi	r4,fp,-1272
 1000314:	10093d80 	call	10093d8 <LOAD_CONFIG>
	LOAD_FOG_SN(&fog_params);
 1000318:	e13ec204 	addi	r4,fp,-1272
 100031c:	100933c0 	call	100933c <LOAD_FOG_SN>
	// PRINT_FOG_PARAMETER(&fog_params);
	// PRINT_FOG_MISALIGNMENT(&fog_params);
    // PRINT_FOG_CONFIG(&fog_params);
	// update_fog_parameters_to_HW_REG(MEM_BASE_Z, &fog_params); 
	update_fog_parameters_to_HW_REG(MEM_BASE_X, &fog_params); 
 1000320:	e17ec204 	addi	r5,fp,-1272
 1000324:	010000c4 	movi	r4,3
 1000328:	1006be80 	call	1006be8 <update_fog_parameters_to_HW_REG>
	// update_fog_parameters_to_HW_REG(MEM_BASE_Y, &fog_params); 

    update_HINS_config_to_HW_REG();
 100032c:	10008ec0 	call	10008ec <update_HINS_config_to_HW_REG>
    
	DEBUG_PRINT("init all done\n");
 1000330:	010040b4 	movhi	r4,258
 1000334:	21053904 	addi	r4,r4,5348
 1000338:	1002ea00 	call	1002ea0 <uart_printf_dbg>
    
    while(1)
    {
		
        // monitor_reg();
        get_uart_cmd(readDataDynamic(&try_cnt), &my_cmd);
 100033c:	d1202c04 	addi	r4,gp,-32592
 1000340:	100a7840 	call	100a784 <readDataDynamic>
 1000344:	014040b4 	movhi	r5,258
 1000348:	294b8f04 	addi	r5,r5,11836
 100034c:	1009883a 	mov	r4,r2
 1000350:	10034100 	call	1003410 <get_uart_cmd>
        get_uart_cmd(readDataDynamic_dbg(&try_cnt), &my_cmd);
 1000354:	d1202c04 	addi	r4,gp,-32592
 1000358:	100aa580 	call	100aa58 <readDataDynamic_dbg>
 100035c:	014040b4 	movhi	r5,258
 1000360:	294b8f04 	addi	r5,r5,11836
 1000364:	1009883a 	mov	r4,r2
 1000368:	10034100 	call	1003410 <get_uart_cmd>
        cmd_mux(&my_cmd);
 100036c:	010040b4 	movhi	r4,258
 1000370:	210b8f04 	addi	r4,r4,11836
 1000374:	10036d80 	call	10036d8 <cmd_mux>
        fog_parameter(&my_cmd, &fog_params);
 1000378:	e17ec204 	addi	r5,fp,-1272
 100037c:	010040b4 	movhi	r4,258
 1000380:	210b8f04 	addi	r4,r4,11836
 1000384:	10038d00 	call	10038d0 <fog_parameter>
        output_mode_setting(&my_cmd, &output_fn, &auto_rst);
 1000388:	d1a02cc4 	addi	r6,gp,-32589
 100038c:	d1600d04 	addi	r5,gp,-32716
 1000390:	010040b4 	movhi	r4,258
 1000394:	210b8f04 	addi	r4,r4,11836
 1000398:	1009ef40 	call	1009ef4 <output_mode_setting>
        if (trigger_sig == 1) 
 100039c:	d0a02c83 	ldbu	r2,-32590(gp)
 10003a0:	10803fcc 	andi	r2,r2,255
 10003a4:	10800058 	cmpnei	r2,r2,1
 10003a8:	103fe41e 	bne	r2,zero,100033c <__alt_mem_epcs+0xfefff33c>
        {
            update_sensor_data(&sensor_data);
 10003ac:	010040b4 	movhi	r4,258
 10003b0:	21132204 	addi	r4,r4,19592
 10003b4:	10007b00 	call	10007b0 <update_sensor_data>
            // dbg_mems(&sensor_data);
            output_fn(&my_cmd, sensor_data, fog_params);
 10003b8:	d4600d17 	ldw	r17,-32716(gp)
 10003bc:	040040b4 	movhi	r16,258
 10003c0:	84132204 	addi	r16,r16,19592
 10003c4:	d8801604 	addi	r2,sp,88
 10003c8:	e13ec204 	addi	r4,fp,-1272
 10003cc:	00c13c04 	movi	r3,1264
 10003d0:	180d883a 	mov	r6,r3
 10003d4:	200b883a 	mov	r5,r4
 10003d8:	1009883a 	mov	r4,r2
 10003dc:	100f4280 	call	100f428 <memcpy>
 10003e0:	d809883a 	mov	r4,sp
 10003e4:	80800304 	addi	r2,r16,12
 10003e8:	00c01604 	movi	r3,88
 10003ec:	180d883a 	mov	r6,r3
 10003f0:	100b883a 	mov	r5,r2
 10003f4:	100f4280 	call	100f428 <memcpy>
 10003f8:	81400017 	ldw	r5,0(r16)
 10003fc:	81800117 	ldw	r6,4(r16)
 1000400:	81c00217 	ldw	r7,8(r16)
 1000404:	010040b4 	movhi	r4,258
 1000408:	210b8f04 	addi	r4,r4,11836
 100040c:	883ee83a 	callr	r17
            trigger_sig = 0;
 1000410:	d0202c85 	stb	zero,-32590(gp)
        }

    }
 1000414:	003fc906 	br	100033c <__alt_mem_epcs+0xfefff33c>

01000418 <monitor_reg>:

    return 0;
}

void monitor_reg()
{
 1000418:	defffe04 	addi	sp,sp,-8
 100041c:	dfc00115 	stw	ra,4(sp)
 1000420:	df000015 	stw	fp,0(sp)
 1000424:	d839883a 	mov	fp,sp
    static alt_u32 dly_cnt = 0;
    static const DELAY_NUM = 5000;

    if(dly_cnt++ > DELAY_NUM) {
 1000428:	d0a02e17 	ldw	r2,-32584(gp)
 100042c:	10c00044 	addi	r3,r2,1
 1000430:	d0e02e15 	stw	r3,-32584(gp)
 1000434:	d0e00e17 	ldw	r3,-32712(gp)
 1000438:	1880082e 	bgeu	r3,r2,100045c <monitor_reg+0x44>
        dly_cnt = 0;
 100043c:	d0202e15 	stw	zero,-32584(gp)
        // DEBUG_PRINT("i_err_offset: %d\n", IORD(VARSET_BASE, i_var_reg_1_err_signal_gen));
        // DEBUG_PRINT("gain1: %d\n", IORD(VARSET_BASE, i_var_reg_1_Feedback_control));
        // DEBUG_PRINT("i_err: %d, ", IORD(VARSET_BASE, i_var_err));
        // DEBUG_PRINT("step: %d\n", IORD(VARSET_BASE, i_var_step));
        DEBUG_PRINT("time: %d\n", IORD(VARSET_BASE, i_var_timer));
 1000440:	00808034 	movhi	r2,512
 1000444:	10885004 	addi	r2,r2,8512
 1000448:	10800037 	ldwio	r2,0(r2)
 100044c:	100b883a 	mov	r5,r2
 1000450:	010040b4 	movhi	r4,258
 1000454:	21053d04 	addi	r4,r4,5364
 1000458:	1002ea00 	call	1002ea0 <uart_printf_dbg>
        // DEBUG_PRINT("AIN0: %d\n",(float)IORD(VARSET_BASE, i_var_i2c_ads122c04_rdata_1)*3.3/8388608.0);
        // DEBUG_PRINT("AIN1: %d\n",(float)IORD(VARSET_BASE, i_var_i2c_ads122c04_rdata_2)*3.3/8388608.0);
        // DEBUG_PRINT("AIN2: %d\n",(float)IORD(VARSET_BASE, i_var_i2c_ads122c04_rdata_3)*3.3/8388608.0);
        // DEBUG_PRINT("AIN3: %d\n",(float)IORD(VARSET_BASE, i_var_i2c_ads122c04_rdata_4)*3.3/8388608.0);
    }
}
 100045c:	0001883a 	nop
 1000460:	e037883a 	mov	sp,fp
 1000464:	dfc00117 	ldw	ra,4(sp)
 1000468:	df000017 	ldw	fp,0(sp)
 100046c:	dec00204 	addi	sp,sp,8
 1000470:	f800283a 	ret

01000474 <dbg_mems>:

void dbg_mems(my_sensor_t *data)
{
 1000474:	deffda04 	addi	sp,sp,-152
 1000478:	dfc02515 	stw	ra,148(sp)
 100047c:	df002415 	stw	fp,144(sp)
 1000480:	ddc02315 	stw	r23,140(sp)
 1000484:	dd802215 	stw	r22,136(sp)
 1000488:	dd402115 	stw	r21,132(sp)
 100048c:	dd002015 	stw	r20,128(sp)
 1000490:	dcc01f15 	stw	r19,124(sp)
 1000494:	dc801e15 	stw	r18,120(sp)
 1000498:	dc401d15 	stw	r17,116(sp)
 100049c:	dc001c15 	stw	r16,112(sp)
 10004a0:	df002404 	addi	fp,sp,144
 10004a4:	e13ff115 	stw	r4,-60(fp)
    static alt_u32 dly_cnt = 0;
    static const DELAY_NUM = 100;

    if(dly_cnt++ > DELAY_NUM) {
 10004a8:	d0a02f17 	ldw	r2,-32580(gp)
 10004ac:	10c00044 	addi	r3,r2,1
 10004b0:	d0e02f15 	stw	r3,-32580(gp)
 10004b4:	d0e00f17 	ldw	r3,-32708(gp)
 10004b8:	1880af2e 	bgeu	r3,r2,1000778 <dbg_mems+0x304>
        dly_cnt = 0;
 10004bc:	d0202f15 	stw	zero,-32580(gp)
        float mems_wx = (float)data->asm330lhhx.wx.int_val * SF_GYRO_1000DPS;
 10004c0:	e0bff117 	ldw	r2,-60(fp)
 10004c4:	10801217 	ldw	r2,72(r2)
 10004c8:	1009883a 	mov	r4,r2
 10004cc:	100c2800 	call	100c280 <__floatsisf>
 10004d0:	1007883a 	mov	r3,r2
 10004d4:	008f43f4 	movhi	r2,15631
 10004d8:	10970a44 	addi	r2,r2,23593
 10004dc:	100b883a 	mov	r5,r2
 10004e0:	1809883a 	mov	r4,r3
 10004e4:	100b96c0 	call	100b96c <__mulsf3>
 10004e8:	1007883a 	mov	r3,r2
 10004ec:	e0ffe915 	stw	r3,-92(fp)
        float mems_wy = (float)data->asm330lhhx.wy.int_val * SF_GYRO_1000DPS;
 10004f0:	e0bff117 	ldw	r2,-60(fp)
 10004f4:	10801317 	ldw	r2,76(r2)
 10004f8:	1009883a 	mov	r4,r2
 10004fc:	100c2800 	call	100c280 <__floatsisf>
 1000500:	1007883a 	mov	r3,r2
 1000504:	008f43f4 	movhi	r2,15631
 1000508:	10970a44 	addi	r2,r2,23593
 100050c:	100b883a 	mov	r5,r2
 1000510:	1809883a 	mov	r4,r3
 1000514:	100b96c0 	call	100b96c <__mulsf3>
 1000518:	1007883a 	mov	r3,r2
 100051c:	e0ffea15 	stw	r3,-88(fp)
        float mems_wz = (float)data->asm330lhhx.wz.int_val * SF_GYRO_1000DPS;
 1000520:	e0bff117 	ldw	r2,-60(fp)
 1000524:	10801417 	ldw	r2,80(r2)
 1000528:	1009883a 	mov	r4,r2
 100052c:	100c2800 	call	100c280 <__floatsisf>
 1000530:	1007883a 	mov	r3,r2
 1000534:	008f43f4 	movhi	r2,15631
 1000538:	10970a44 	addi	r2,r2,23593
 100053c:	100b883a 	mov	r5,r2
 1000540:	1809883a 	mov	r4,r3
 1000544:	100b96c0 	call	100b96c <__mulsf3>
 1000548:	1007883a 	mov	r3,r2
 100054c:	e0ffeb15 	stw	r3,-84(fp)
        float mems_ax = (float)data->asm330lhhx.ax.int_val * SF_ACCL_16G;
 1000550:	e0bff117 	ldw	r2,-60(fp)
 1000554:	10801517 	ldw	r2,84(r2)
 1000558:	1009883a 	mov	r4,r2
 100055c:	100c2800 	call	100c280 <__floatsisf>
 1000560:	1007883a 	mov	r3,r2
 1000564:	008e8034 	movhi	r2,14848
 1000568:	10b69004 	addi	r2,r2,-9664
 100056c:	100b883a 	mov	r5,r2
 1000570:	1809883a 	mov	r4,r3
 1000574:	100b96c0 	call	100b96c <__mulsf3>
 1000578:	1007883a 	mov	r3,r2
 100057c:	e0ffec15 	stw	r3,-80(fp)
        float mems_ay = (float)data->asm330lhhx.ay.int_val * SF_ACCL_16G;
 1000580:	e0bff117 	ldw	r2,-60(fp)
 1000584:	10801617 	ldw	r2,88(r2)
 1000588:	1009883a 	mov	r4,r2
 100058c:	100c2800 	call	100c280 <__floatsisf>
 1000590:	1007883a 	mov	r3,r2
 1000594:	008e8034 	movhi	r2,14848
 1000598:	10b69004 	addi	r2,r2,-9664
 100059c:	100b883a 	mov	r5,r2
 10005a0:	1809883a 	mov	r4,r3
 10005a4:	100b96c0 	call	100b96c <__mulsf3>
 10005a8:	1007883a 	mov	r3,r2
 10005ac:	e0ffed15 	stw	r3,-76(fp)
        float mems_az = (float)data->asm330lhhx.az.int_val * SF_ACCL_16G;
 10005b0:	e0bff117 	ldw	r2,-60(fp)
 10005b4:	10801717 	ldw	r2,92(r2)
 10005b8:	1009883a 	mov	r4,r2
 10005bc:	100c2800 	call	100c280 <__floatsisf>
 10005c0:	1007883a 	mov	r3,r2
 10005c4:	008e8034 	movhi	r2,14848
 10005c8:	10b69004 	addi	r2,r2,-9664
 10005cc:	100b883a 	mov	r5,r2
 10005d0:	1809883a 	mov	r4,r3
 10005d4:	100b96c0 	call	100b96c <__mulsf3>
 10005d8:	1007883a 	mov	r3,r2
 10005dc:	e0ffee15 	stw	r3,-72(fp)
        float mems_temp = (float)data->asm330lhhx.temp.int_val * SF_TEMP + 25.0;
 10005e0:	e0bff117 	ldw	r2,-60(fp)
 10005e4:	10801817 	ldw	r2,96(r2)
 10005e8:	1009883a 	mov	r4,r2
 10005ec:	100c2800 	call	100c280 <__floatsisf>
 10005f0:	1007883a 	mov	r3,r2
 10005f4:	008ee034 	movhi	r2,15232
 10005f8:	100b883a 	mov	r5,r2
 10005fc:	1809883a 	mov	r4,r3
 1000600:	100b96c0 	call	100b96c <__mulsf3>
 1000604:	1007883a 	mov	r3,r2
 1000608:	1805883a 	mov	r2,r3
 100060c:	01507234 	movhi	r5,16840
 1000610:	1009883a 	mov	r4,r2
 1000614:	100aee00 	call	100aee0 <__addsf3>
 1000618:	1007883a 	mov	r3,r2
 100061c:	e0ffef15 	stw	r3,-68(fp)
        float fog_temp = (float)data->ads122c04.ain0.int_val * COE_TEMP_AD590 - 273.15; 
 1000620:	e0bff117 	ldw	r2,-60(fp)
 1000624:	10800a17 	ldw	r2,40(r2)
 1000628:	1009883a 	mov	r4,r2
 100062c:	100c2800 	call	100c280 <__floatsisf>
 1000630:	1007883a 	mov	r3,r2
 1000634:	008e25b4 	movhi	r2,14486
 1000638:	10917c44 	addi	r2,r2,17905
 100063c:	100b883a 	mov	r5,r2
 1000640:	1809883a 	mov	r4,r3
 1000644:	100b96c0 	call	100b96c <__mulsf3>
 1000648:	1007883a 	mov	r3,r2
 100064c:	1805883a 	mov	r2,r3
 1000650:	1009883a 	mov	r4,r2
 1000654:	100e8780 	call	100e878 <__extendsfdf2>
 1000658:	1011883a 	mov	r8,r2
 100065c:	1813883a 	mov	r9,r3
 1000660:	019999b4 	movhi	r6,26214
 1000664:	31999984 	addi	r6,r6,26214
 1000668:	01d01c74 	movhi	r7,16497
 100066c:	39c49984 	addi	r7,r7,4710
 1000670:	4009883a 	mov	r4,r8
 1000674:	480b883a 	mov	r5,r9
 1000678:	100df7c0 	call	100df7c <__subdf3>
 100067c:	1009883a 	mov	r4,r2
 1000680:	180b883a 	mov	r5,r3
 1000684:	2005883a 	mov	r2,r4
 1000688:	2807883a 	mov	r3,r5
 100068c:	1009883a 	mov	r4,r2
 1000690:	180b883a 	mov	r5,r3
 1000694:	100e9880 	call	100e988 <__truncdfsf2>
 1000698:	1007883a 	mov	r3,r2
 100069c:	e0fff015 	stw	r3,-64(fp)

        DEBUG_PRINT("%f,%f,%f,%f,%f,%f,%f,%f\n", 
 10006a0:	e13fe917 	ldw	r4,-92(fp)
 10006a4:	100e8780 	call	100e878 <__extendsfdf2>
 10006a8:	e0bff215 	stw	r2,-56(fp)
 10006ac:	e0fff315 	stw	r3,-52(fp)
 10006b0:	e13fea17 	ldw	r4,-88(fp)
 10006b4:	100e8780 	call	100e878 <__extendsfdf2>
 10006b8:	e0bff415 	stw	r2,-48(fp)
 10006bc:	e0fff515 	stw	r3,-44(fp)
 10006c0:	e13feb17 	ldw	r4,-84(fp)
 10006c4:	100e8780 	call	100e878 <__extendsfdf2>
 10006c8:	1021883a 	mov	r16,r2
 10006cc:	1823883a 	mov	r17,r3
 10006d0:	e13fec17 	ldw	r4,-80(fp)
 10006d4:	100e8780 	call	100e878 <__extendsfdf2>
 10006d8:	1025883a 	mov	r18,r2
 10006dc:	1827883a 	mov	r19,r3
 10006e0:	e13fed17 	ldw	r4,-76(fp)
 10006e4:	100e8780 	call	100e878 <__extendsfdf2>
 10006e8:	1029883a 	mov	r20,r2
 10006ec:	182b883a 	mov	r21,r3
 10006f0:	e13fee17 	ldw	r4,-72(fp)
 10006f4:	100e8780 	call	100e878 <__extendsfdf2>
 10006f8:	102d883a 	mov	r22,r2
 10006fc:	182f883a 	mov	r23,r3
 1000700:	e13fef17 	ldw	r4,-68(fp)
 1000704:	100e8780 	call	100e878 <__extendsfdf2>
 1000708:	e0bff615 	stw	r2,-40(fp)
 100070c:	e0fff715 	stw	r3,-36(fp)
 1000710:	e13ff017 	ldw	r4,-64(fp)
 1000714:	100e8780 	call	100e878 <__extendsfdf2>
 1000718:	1009883a 	mov	r4,r2
 100071c:	180b883a 	mov	r5,r3
 1000720:	d9000b15 	stw	r4,44(sp)
 1000724:	d9400c15 	stw	r5,48(sp)
 1000728:	e0bff617 	ldw	r2,-40(fp)
 100072c:	d8800915 	stw	r2,36(sp)
 1000730:	e0bff717 	ldw	r2,-36(fp)
 1000734:	d8800a15 	stw	r2,40(sp)
 1000738:	dd800715 	stw	r22,28(sp)
 100073c:	ddc00815 	stw	r23,32(sp)
 1000740:	dd000515 	stw	r20,20(sp)
 1000744:	dd400615 	stw	r21,24(sp)
 1000748:	dc800315 	stw	r18,12(sp)
 100074c:	dcc00415 	stw	r19,16(sp)
 1000750:	dc000115 	stw	r16,4(sp)
 1000754:	dc400215 	stw	r17,8(sp)
 1000758:	e0bff517 	ldw	r2,-44(fp)
 100075c:	d8800015 	stw	r2,0(sp)
 1000760:	e1fff417 	ldw	r7,-48(fp)
 1000764:	e17ff217 	ldw	r5,-56(fp)
 1000768:	e1bff317 	ldw	r6,-52(fp)
 100076c:	010040b4 	movhi	r4,258
 1000770:	21054004 	addi	r4,r4,5376
 1000774:	1002ea00 	call	1002ea0 <uart_printf_dbg>
            mems_wx, mems_wy, mems_wz,
            mems_ax, mems_ay, mems_az,
            mems_temp, fog_temp
        );
    }
}
 1000778:	0001883a 	nop
 100077c:	e6fff804 	addi	sp,fp,-32
 1000780:	dfc00917 	ldw	ra,36(sp)
 1000784:	df000817 	ldw	fp,32(sp)
 1000788:	ddc00717 	ldw	r23,28(sp)
 100078c:	dd800617 	ldw	r22,24(sp)
 1000790:	dd400517 	ldw	r21,20(sp)
 1000794:	dd000417 	ldw	r20,16(sp)
 1000798:	dcc00317 	ldw	r19,12(sp)
 100079c:	dc800217 	ldw	r18,8(sp)
 10007a0:	dc400117 	ldw	r17,4(sp)
 10007a4:	dc000017 	ldw	r16,0(sp)
 10007a8:	dec00a04 	addi	sp,sp,40
 10007ac:	f800283a 	ret

010007b0 <update_sensor_data>:

void update_sensor_data(my_sensor_t *data) {
 10007b0:	defffe04 	addi	sp,sp,-8
 10007b4:	df000115 	stw	fp,4(sp)
 10007b8:	df000104 	addi	fp,sp,4
 10007bc:	e13fff15 	stw	r4,-4(fp)
    /***---timer--- */
    // data->time.time.float_val = (float)IORD(VARSET_BASE, i_var_timer) * COE_TIMER;
    data->time.time.int_val = IORD(VARSET_BASE, i_var_timer);
 10007c0:	00808034 	movhi	r2,512
 10007c4:	10885004 	addi	r2,r2,8512
 10007c8:	10c00037 	ldwio	r3,0(r2)
 10007cc:	e0bfff17 	ldw	r2,-4(fp)
 10007d0:	10c00015 	stw	r3,0(r2)
    /***---fog z axis--- */
     data->fog.fogz.err.int_val = IORD(VARSET_BASE, i_var_err);
 10007d4:	00808034 	movhi	r2,512
 10007d8:	10884e04 	addi	r2,r2,8504
 10007dc:	10c00037 	ldwio	r3,0(r2)
 10007e0:	e0bfff17 	ldw	r2,-4(fp)
 10007e4:	10c00515 	stw	r3,20(r2)
     data->fog.fogz.step.int_val = IORD(VARSET_BASE, i_var_step);
 10007e8:	00808034 	movhi	r2,512
 10007ec:	10884f04 	addi	r2,r2,8508
 10007f0:	10c00037 	ldwio	r3,0(r2)
 10007f4:	e0bfff17 	ldw	r2,-4(fp)
 10007f8:	10c00615 	stw	r3,24(r2)
    /***---adc ads122c04--- */
     data->ads122c04.ain0.int_val = IORD(VARSET_BASE, i_var_i2c_ads122c04_rdata_1);
 10007fc:	00808034 	movhi	r2,512
 1000800:	10883d04 	addi	r2,r2,8436
 1000804:	10c00037 	ldwio	r3,0(r2)
 1000808:	e0bfff17 	ldw	r2,-4(fp)
 100080c:	10c00a15 	stw	r3,40(r2)
     data->ads122c04.ain1.int_val = IORD(VARSET_BASE, i_var_i2c_ads122c04_rdata_2);
 1000810:	00808034 	movhi	r2,512
 1000814:	10883e04 	addi	r2,r2,8440
 1000818:	10c00037 	ldwio	r3,0(r2)
 100081c:	e0bfff17 	ldw	r2,-4(fp)
 1000820:	10c00b15 	stw	r3,44(r2)
     data->ads122c04.ain2.int_val = IORD(VARSET_BASE, i_var_i2c_ads122c04_rdata_3);
 1000824:	00808034 	movhi	r2,512
 1000828:	10883f04 	addi	r2,r2,8444
 100082c:	10c00037 	ldwio	r3,0(r2)
 1000830:	e0bfff17 	ldw	r2,-4(fp)
 1000834:	10c00c15 	stw	r3,48(r2)
     data->ads122c04.ain3.int_val = IORD(VARSET_BASE, i_var_i2c_ads122c04_rdata_4);
 1000838:	00808034 	movhi	r2,512
 100083c:	10884004 	addi	r2,r2,8448
 1000840:	10c00037 	ldwio	r3,0(r2)
 1000844:	e0bfff17 	ldw	r2,-4(fp)
 1000848:	10c00d15 	stw	r3,52(r2)
    //  data->ads122c04.ain0.float_val = (float)IORD(VARSET_BASE, i_var_i2c_ads122c04_rdata_1)*3.3/8388608.0; // FOG_TEMP
    //  data->ads122c04.ain1.float_val = (float)IORD(VARSET_BASE, i_var_i2c_ads122c04_rdata_2)*3.3/8388608.0;
    //  data->ads122c04.ain2.float_val = (float)IORD(VARSET_BASE, i_var_i2c_ads122c04_rdata_3)*3.3/8388608.0;
    //  data->ads122c04.ain3.float_val = (float)IORD(VARSET_BASE, i_var_i2c_ads122c04_rdata_4)*3.3/8388608.0;
    /***---imu asm330lhhx--- */
     data->asm330lhhx.wx.int_val = IORD(VARSET_BASE, i_var_i2c_IMU_rdata_1);
 100084c:	00808034 	movhi	r2,512
 1000850:	10884704 	addi	r2,r2,8476
 1000854:	10c00037 	ldwio	r3,0(r2)
 1000858:	e0bfff17 	ldw	r2,-4(fp)
 100085c:	10c01215 	stw	r3,72(r2)
     data->asm330lhhx.wy.int_val = IORD(VARSET_BASE, i_var_i2c_IMU_rdata_2);
 1000860:	00808034 	movhi	r2,512
 1000864:	10884804 	addi	r2,r2,8480
 1000868:	10c00037 	ldwio	r3,0(r2)
 100086c:	e0bfff17 	ldw	r2,-4(fp)
 1000870:	10c01315 	stw	r3,76(r2)
     data->asm330lhhx.wz.int_val = IORD(VARSET_BASE, i_var_i2c_IMU_rdata_3);
 1000874:	00808034 	movhi	r2,512
 1000878:	10884904 	addi	r2,r2,8484
 100087c:	10c00037 	ldwio	r3,0(r2)
 1000880:	e0bfff17 	ldw	r2,-4(fp)
 1000884:	10c01415 	stw	r3,80(r2)
     data->asm330lhhx.ax.int_val = IORD(VARSET_BASE, i_var_i2c_IMU_rdata_4);
 1000888:	00808034 	movhi	r2,512
 100088c:	10884a04 	addi	r2,r2,8488
 1000890:	10c00037 	ldwio	r3,0(r2)
 1000894:	e0bfff17 	ldw	r2,-4(fp)
 1000898:	10c01515 	stw	r3,84(r2)
     data->asm330lhhx.ay.int_val = IORD(VARSET_BASE, i_var_i2c_IMU_rdata_5);
 100089c:	00808034 	movhi	r2,512
 10008a0:	10884b04 	addi	r2,r2,8492
 10008a4:	10c00037 	ldwio	r3,0(r2)
 10008a8:	e0bfff17 	ldw	r2,-4(fp)
 10008ac:	10c01615 	stw	r3,88(r2)
     data->asm330lhhx.az.int_val = IORD(VARSET_BASE, i_var_i2c_IMU_rdata_6);
 10008b0:	00808034 	movhi	r2,512
 10008b4:	10884c04 	addi	r2,r2,8496
 10008b8:	10c00037 	ldwio	r3,0(r2)
 10008bc:	e0bfff17 	ldw	r2,-4(fp)
 10008c0:	10c01715 	stw	r3,92(r2)
     data->asm330lhhx.temp.int_val = IORD(VARSET_BASE, i_var_i2c_IMU_rdata_7);
 10008c4:	00808034 	movhi	r2,512
 10008c8:	10884d04 	addi	r2,r2,8500
 10008cc:	10c00037 	ldwio	r3,0(r2)
 10008d0:	e0bfff17 	ldw	r2,-4(fp)
 10008d4:	10c01815 	stw	r3,96(r2)
    //     data->asm330lhhx.wx.float_val, data->asm330lhhx.wy.float_val, data->asm330lhhx.wz.float_val,
    //     data->asm330lhhx.ax.float_val, data->asm330lhhx.ay.float_val, data->asm330lhhx.az.float_val,
    //     data->asm330lhhx.temp.float_val );

    
}
 10008d8:	0001883a 	nop
 10008dc:	e037883a 	mov	sp,fp
 10008e0:	df000017 	ldw	fp,0(sp)
 10008e4:	dec00104 	addi	sp,sp,4
 10008e8:	f800283a 	ret

010008ec <update_HINS_config_to_HW_REG>:



void update_HINS_config_to_HW_REG()
{
 10008ec:	defffe04 	addi	sp,sp,-8
 10008f0:	df000115 	stw	fp,4(sp)
 10008f4:	df000104 	addi	fp,sp,4
	IOWR(VARSET_BASE, var_sync_count, SYNC_100HZ); // set sync data rate
 10008f8:	00c00234 	movhi	r3,8
 10008fc:	18e84804 	addi	r3,r3,-24288
 1000900:	00808034 	movhi	r2,512
 1000904:	10880b04 	addi	r2,r2,8236
 1000908:	10c00035 	stwio	r3,0(r2)
    IOWR(VARSET_BASE, var_timer_rst, 1);
 100090c:	00c00044 	movi	r3,1
 1000910:	00808034 	movhi	r2,512
 1000914:	10880c04 	addi	r2,r2,8240
 1000918:	10c00035 	stwio	r3,0(r2)
    for(int i=0; i<100; i++) {} 
 100091c:	e03fff15 	stw	zero,-4(fp)
 1000920:	00000306 	br	1000930 <update_HINS_config_to_HW_REG+0x44>
 1000924:	e0bfff17 	ldw	r2,-4(fp)
 1000928:	10800044 	addi	r2,r2,1
 100092c:	e0bfff15 	stw	r2,-4(fp)
 1000930:	e0bfff17 	ldw	r2,-4(fp)
 1000934:	10801910 	cmplti	r2,r2,100
 1000938:	103ffa1e 	bne	r2,zero,1000924 <__alt_mem_epcs+0xfefff924>
    IOWR(VARSET_BASE, var_timer_rst, 0);
 100093c:	0007883a 	mov	r3,zero
 1000940:	00808034 	movhi	r2,512
 1000944:	10880c04 	addi	r2,r2,8240
 1000948:	10c00035 	stwio	r3,0(r2)
}
 100094c:	0001883a 	nop
 1000950:	e037883a 	mov	sp,fp
 1000954:	df000017 	ldw	fp,0(sp)
 1000958:	dec00104 	addi	sp,sp,4
 100095c:	f800283a 	ret

01000960 <TRIGGER_IRQ_init>:

void TRIGGER_IRQ_init()
{
 1000960:	defffd04 	addi	sp,sp,-12
 1000964:	dfc00215 	stw	ra,8(sp)
 1000968:	df000115 	stw	fp,4(sp)
 100096c:	df000104 	addi	fp,sp,4
	IOWR_ALTERA_AVALON_PIO_EDGE_CAP(SYNC_IN_BASE, 1); //clear edge capture register
 1000970:	00c00044 	movi	r3,1
 1000974:	00808034 	movhi	r2,512
 1000978:	1088a704 	addi	r2,r2,8860
 100097c:	10c00035 	stwio	r3,0(r2)
	IOWR_ALTERA_AVALON_PIO_IRQ_MASK(SYNC_IN_BASE, 1); //enable irq mask
 1000980:	00c00044 	movi	r3,1
 1000984:	00808034 	movhi	r2,512
 1000988:	1088a604 	addi	r2,r2,8856
 100098c:	10c00035 	stwio	r3,0(r2)
	alt_ic_isr_register(
 1000990:	d8000015 	stw	zero,0(sp)
 1000994:	000f883a 	mov	r7,zero
 1000998:	01804034 	movhi	r6,256
 100099c:	31827104 	addi	r6,r6,2500
 10009a0:	000b883a 	mov	r5,zero
 10009a4:	0009883a 	mov	r4,zero
 10009a8:	101d4700 	call	101d470 <alt_ic_isr_register>
	SYNC_IN_IRQ_INTERRUPT_CONTROLLER_ID,
	SYNC_IN_IRQ,
	IRQ_TRIGGER_ISR,
	0x0,
	0x0);
}
 10009ac:	0001883a 	nop
 10009b0:	e037883a 	mov	sp,fp
 10009b4:	dfc00117 	ldw	ra,4(sp)
 10009b8:	df000017 	ldw	fp,0(sp)
 10009bc:	dec00204 	addi	sp,sp,8
 10009c0:	f800283a 	ret

010009c4 <IRQ_TRIGGER_ISR>:

void IRQ_TRIGGER_ISR(void *context)
{
 10009c4:	defffe04 	addi	sp,sp,-8
 10009c8:	df000115 	stw	fp,4(sp)
 10009cc:	df000104 	addi	fp,sp,4
 10009d0:	e13fff15 	stw	r4,-4(fp)
	(void) context;
	IOWR_ALTERA_AVALON_PIO_EDGE_CAP(SYNC_IN_BASE, 1); //clear edge capture register
 10009d4:	00c00044 	movi	r3,1
 10009d8:	00808034 	movhi	r2,512
 10009dc:	1088a704 	addi	r2,r2,8860
 10009e0:	10c00035 	stwio	r3,0(r2)
	trigger_sig = 1;
 10009e4:	00800044 	movi	r2,1
 10009e8:	d0a02c85 	stb	r2,-32590(gp)
}
 10009ec:	0001883a 	nop
 10009f0:	e037883a 	mov	sp,fp
 10009f4:	df000017 	ldw	fp,0(sp)
 10009f8:	dec00104 	addi	sp,sp,4
 10009fc:	f800283a 	ret

01000a00 <acq_fog>:

static const unsigned char KVH_HEADER[4] = {0xFE, 0x81, 0xFF, 0x55};


void acq_fog (cmd_ctrl_t* rx, my_sensor_t data, fog_parameter_t fog_parameter)
{
 1000a00:	defe9604 	addi	sp,sp,-1448
 1000a04:	dfc16615 	stw	ra,1432(sp)
 1000a08:	df016515 	stw	fp,1428(sp)
 1000a0c:	dc016415 	stw	r16,1424(sp)
 1000a10:	df016504 	addi	fp,sp,1428
 1000a14:	e13ffe15 	stw	r4,-8(fp)
 1000a18:	e1400215 	stw	r5,8(fp)
 1000a1c:	e1800315 	stw	r6,12(fp)
 1000a20:	e1c00415 	stw	r7,16(fp)
    my_float_t err, step_cali, temp;
        
    float step_comp, sf_comp_gyro, bias_comp_gyro;
    static alt_u8 ch = 0;

    if(rx->select_fn == SEL_FOG) {
 1000a24:	e0bffe17 	ldw	r2,-8(fp)
 1000a28:	108004c3 	ldbu	r2,19(r2)
 1000a2c:	10803fcc 	andi	r2,r2,255
 1000a30:	10800098 	cmpnei	r2,r2,2
 1000a34:	10002a1e 	bne	r2,zero,1000ae0 <acq_fog+0xe0>
        UART_PRINT("acq_fog\n");
        rx->select_fn = SEL_IDLE; //clear select_fn
 1000a38:	e0bffe17 	ldw	r2,-8(fp)
 1000a3c:	100004c5 	stb	zero,19(r2)
        ch = rx->ch;
 1000a40:	e0bffe17 	ldw	r2,-8(fp)
 1000a44:	10800503 	ldbu	r2,20(r2)
 1000a48:	d0a03105 	stb	r2,-32572(gp)
        DEBUG_PRINT("select acq_fog mode with ch%u\n", ch);
 1000a4c:	d0a03103 	ldbu	r2,-32572(gp)
 1000a50:	10803fcc 	andi	r2,r2,255
 1000a54:	100b883a 	mov	r5,r2
 1000a58:	010040b4 	movhi	r4,258
 1000a5c:	21054704 	addi	r4,r4,5404
 1000a60:	1002ea00 	call	1002ea0 <uart_printf_dbg>
        if(rx->value == INT_SYNC) { //internal sync mode
 1000a64:	e0bffe17 	ldw	r2,-8(fp)
 1000a68:	10800617 	ldw	r2,24(r2)
 1000a6c:	10800058 	cmpnei	r2,r2,1
 1000a70:	1000071e 	bne	r2,zero,1000a90 <acq_fog+0x90>
            DEBUG_PRINT("acq_fog select internal mode\n");
 1000a74:	010040b4 	movhi	r4,258
 1000a78:	21054f04 	addi	r4,r4,5436
 1000a7c:	1002ea00 	call	1002ea0 <uart_printf_dbg>
            rx->run = 1;
 1000a80:	e0bffe17 	ldw	r2,-8(fp)
 1000a84:	00c00044 	movi	r3,1
 1000a88:	10c00585 	stb	r3,22(r2)
 1000a8c:	00001406 	br	1000ae0 <acq_fog+0xe0>
        }
        else if(rx->value == EXT_SYNC) { //external sync mode
 1000a90:	e0bffe17 	ldw	r2,-8(fp)
 1000a94:	10800617 	ldw	r2,24(r2)
 1000a98:	10800098 	cmpnei	r2,r2,2
 1000a9c:	1000071e 	bne	r2,zero,1000abc <acq_fog+0xbc>
            DEBUG_PRINT("acq_fog select external mode\n");
 1000aa0:	010040b4 	movhi	r4,258
 1000aa4:	21055704 	addi	r4,r4,5468
 1000aa8:	1002ea00 	call	1002ea0 <uart_printf_dbg>
            rx->run = 1;
 1000aac:	e0bffe17 	ldw	r2,-8(fp)
 1000ab0:	00c00044 	movi	r3,1
 1000ab4:	10c00585 	stb	r3,22(r2)
 1000ab8:	00000906 	br	1000ae0 <acq_fog+0xe0>
        }
        else if(rx->value == STOP_RUN) { //stop
 1000abc:	e0bffe17 	ldw	r2,-8(fp)
 1000ac0:	10800617 	ldw	r2,24(r2)
 1000ac4:	10800118 	cmpnei	r2,r2,4
 1000ac8:	1000051e 	bne	r2,zero,1000ae0 <acq_fog+0xe0>
            DEBUG_PRINT("acq_fog select stop\n");
 1000acc:	010040b4 	movhi	r4,258
 1000ad0:	21055f04 	addi	r4,r4,5500
 1000ad4:	1002ea00 	call	1002ea0 <uart_printf_dbg>
            rx->run = 0;
 1000ad8:	e0bffe17 	ldw	r2,-8(fp)
 1000adc:	10000585 	stb	zero,22(r2)
        }
    }
    if(rx->run == 1) {
 1000ae0:	e0bffe17 	ldw	r2,-8(fp)
 1000ae4:	10800583 	ldbu	r2,22(r2)
 1000ae8:	10803fcc 	andi	r2,r2,255
 1000aec:	10800058 	cmpnei	r2,r2,1
 1000af0:	1001211e 	bne	r2,zero,1000f78 <acq_fog+0x578>
        switch(ch) {
 1000af4:	d0a03103 	ldbu	r2,-32572(gp)
 1000af8:	10803fcc 	andi	r2,r2,255
 1000afc:	10c000a0 	cmpeqi	r3,r2,2
 1000b00:	18004e1e 	bne	r3,zero,1000c3c <acq_fog+0x23c>
 1000b04:	10c000e0 	cmpeqi	r3,r2,3
 1000b08:	1800961e 	bne	r3,zero,1000d64 <acq_fog+0x364>
 1000b0c:	10800060 	cmpeqi	r2,r2,1
 1000b10:	1000de26 	beq	r2,zero,1000e8c <acq_fog+0x48c>
            case X_AXIS:
                err.float_val = data.fog.fogx.err.float_val;
 1000b14:	e0800317 	ldw	r2,12(fp)
 1000b18:	e0bffa15 	stw	r2,-24(fp)
                temp.float_val = data.temp.tempx.float_val;
 1000b1c:	e0800917 	ldw	r2,36(fp)
 1000b20:	e0bffc15 	stw	r2,-16(fp)
                sf_comp_gyro = SF_temp_compensation_1st_order_fog(data, fog_parameter, X_AXIS);
 1000b24:	00800044 	movi	r2,1
 1000b28:	d8815115 	stw	r2,1348(sp)
 1000b2c:	d8801504 	addi	r2,sp,84
 1000b30:	e0c01b04 	addi	r3,fp,108
 1000b34:	01013c04 	movi	r4,1264
 1000b38:	200d883a 	mov	r6,r4
 1000b3c:	180b883a 	mov	r5,r3
 1000b40:	1009883a 	mov	r4,r2
 1000b44:	100f4280 	call	100f428 <memcpy>
 1000b48:	d809883a 	mov	r4,sp
 1000b4c:	e0800604 	addi	r2,fp,24
 1000b50:	00c01504 	movi	r3,84
 1000b54:	180d883a 	mov	r6,r3
 1000b58:	100b883a 	mov	r5,r2
 1000b5c:	100f4280 	call	100f428 <memcpy>
 1000b60:	e1000217 	ldw	r4,8(fp)
 1000b64:	e1400317 	ldw	r5,12(fp)
 1000b68:	e1800417 	ldw	r6,16(fp)
 1000b6c:	e1c00517 	ldw	r7,20(fp)
 1000b70:	1007ac00 	call	1007ac0 <SF_temp_compensation_1st_order_fog>
 1000b74:	e0bfed15 	stw	r2,-76(fp)
                bias_comp_gyro = BIAS_temp_compensation_1st_order_fog_3T(data, fog_parameter, X_AXIS);
 1000b78:	00800044 	movi	r2,1
 1000b7c:	d8815115 	stw	r2,1348(sp)
 1000b80:	d8801504 	addi	r2,sp,84
 1000b84:	e0c01b04 	addi	r3,fp,108
 1000b88:	01013c04 	movi	r4,1264
 1000b8c:	200d883a 	mov	r6,r4
 1000b90:	180b883a 	mov	r5,r3
 1000b94:	1009883a 	mov	r4,r2
 1000b98:	100f4280 	call	100f428 <memcpy>
 1000b9c:	d809883a 	mov	r4,sp
 1000ba0:	e0800604 	addi	r2,fp,24
 1000ba4:	00c01504 	movi	r3,84
 1000ba8:	180d883a 	mov	r6,r3
 1000bac:	100b883a 	mov	r5,r2
 1000bb0:	100f4280 	call	100f428 <memcpy>
 1000bb4:	e1000217 	ldw	r4,8(fp)
 1000bb8:	e1400317 	ldw	r5,12(fp)
 1000bbc:	e1800417 	ldw	r6,16(fp)
 1000bc0:	e1c00517 	ldw	r7,20(fp)
 1000bc4:	1007d940 	call	1007d94 <BIAS_temp_compensation_1st_order_fog_3T>
 1000bc8:	e0bfee15 	stw	r2,-72(fp)
                step_comp = data.fog.fogx.step.float_val * sf_comp_gyro - bias_comp_gyro;
 1000bcc:	e0800417 	ldw	r2,16(fp)
 1000bd0:	e17fed17 	ldw	r5,-76(fp)
 1000bd4:	1009883a 	mov	r4,r2
 1000bd8:	100b96c0 	call	100b96c <__mulsf3>
 1000bdc:	1007883a 	mov	r3,r2
 1000be0:	1805883a 	mov	r2,r3
 1000be4:	e17fee17 	ldw	r5,-72(fp)
 1000be8:	1009883a 	mov	r4,r2
 1000bec:	100bd9c0 	call	100bd9c <__subsf3>
 1000bf0:	1007883a 	mov	r3,r2
 1000bf4:	e0ffef15 	stw	r3,-68(fp)
                /*** calculate mis-alignment calibrated gyro data */
                step_cali.float_val = misalignment_calibration(step_comp, 0, 0, fog_parameter, MIS_CALI_GYRO).x.float_val;
 1000bf8:	e43ff704 	addi	r16,fp,-36
 1000bfc:	00800104 	movi	r2,4
 1000c00:	d8813c15 	stw	r2,1264(sp)
 1000c04:	d809883a 	mov	r4,sp
 1000c08:	e0801b04 	addi	r2,fp,108
 1000c0c:	00c13c04 	movi	r3,1264
 1000c10:	180d883a 	mov	r6,r3
 1000c14:	100b883a 	mov	r5,r2
 1000c18:	100f4280 	call	100f428 <memcpy>
 1000c1c:	000f883a 	mov	r7,zero
 1000c20:	000d883a 	mov	r6,zero
 1000c24:	e17fef17 	ldw	r5,-68(fp)
 1000c28:	8009883a 	mov	r4,r16
 1000c2c:	10082640 	call	1008264 <misalignment_calibration>
 1000c30:	e0bff717 	ldw	r2,-36(fp)
 1000c34:	e0bffb15 	stw	r2,-20(fp)
                // UART_PRINT("fog sf_x_comp: %f\n", sf_comp_gyro);
                // UART_PRINT("fog bias_x_comp: %f\n", bias_comp_gyro);
                // UART_PRINT("fog step_x_comp: %f\n", step_comp);
                // UART_PRINT("fog step_x_cali: %f\n", step_cali.float_val);
            break;
 1000c38:	00009406 	br	1000e8c <acq_fog+0x48c>
            case Y_AXIS:
            // UART_PRINT("%d,", get_timer_int());
            // g_time[2] = get_timer_int();
                err.float_val = data.fog.fogy.err.float_val;
 1000c3c:	e0800517 	ldw	r2,20(fp)
 1000c40:	e0bffa15 	stw	r2,-24(fp)
                temp.float_val = data.temp.tempy.float_val;
 1000c44:	e0800a17 	ldw	r2,40(fp)
 1000c48:	e0bffc15 	stw	r2,-16(fp)
                sf_comp_gyro = SF_temp_compensation_1st_order_fog(data, fog_parameter, Y_AXIS);
 1000c4c:	00800084 	movi	r2,2
 1000c50:	d8815115 	stw	r2,1348(sp)
 1000c54:	d8801504 	addi	r2,sp,84
 1000c58:	e0c01b04 	addi	r3,fp,108
 1000c5c:	01013c04 	movi	r4,1264
 1000c60:	200d883a 	mov	r6,r4
 1000c64:	180b883a 	mov	r5,r3
 1000c68:	1009883a 	mov	r4,r2
 1000c6c:	100f4280 	call	100f428 <memcpy>
 1000c70:	d809883a 	mov	r4,sp
 1000c74:	e0800604 	addi	r2,fp,24
 1000c78:	00c01504 	movi	r3,84
 1000c7c:	180d883a 	mov	r6,r3
 1000c80:	100b883a 	mov	r5,r2
 1000c84:	100f4280 	call	100f428 <memcpy>
 1000c88:	e1000217 	ldw	r4,8(fp)
 1000c8c:	e1400317 	ldw	r5,12(fp)
 1000c90:	e1800417 	ldw	r6,16(fp)
 1000c94:	e1c00517 	ldw	r7,20(fp)
 1000c98:	1007ac00 	call	1007ac0 <SF_temp_compensation_1st_order_fog>
 1000c9c:	e0bfed15 	stw	r2,-76(fp)
                bias_comp_gyro = BIAS_temp_compensation_1st_order_fog_3T(data, fog_parameter, Y_AXIS);
 1000ca0:	00800084 	movi	r2,2
 1000ca4:	d8815115 	stw	r2,1348(sp)
 1000ca8:	d8801504 	addi	r2,sp,84
 1000cac:	e0c01b04 	addi	r3,fp,108
 1000cb0:	01013c04 	movi	r4,1264
 1000cb4:	200d883a 	mov	r6,r4
 1000cb8:	180b883a 	mov	r5,r3
 1000cbc:	1009883a 	mov	r4,r2
 1000cc0:	100f4280 	call	100f428 <memcpy>
 1000cc4:	d809883a 	mov	r4,sp
 1000cc8:	e0800604 	addi	r2,fp,24
 1000ccc:	00c01504 	movi	r3,84
 1000cd0:	180d883a 	mov	r6,r3
 1000cd4:	100b883a 	mov	r5,r2
 1000cd8:	100f4280 	call	100f428 <memcpy>
 1000cdc:	e1000217 	ldw	r4,8(fp)
 1000ce0:	e1400317 	ldw	r5,12(fp)
 1000ce4:	e1800417 	ldw	r6,16(fp)
 1000ce8:	e1c00517 	ldw	r7,20(fp)
 1000cec:	1007d940 	call	1007d94 <BIAS_temp_compensation_1st_order_fog_3T>
 1000cf0:	e0bfee15 	stw	r2,-72(fp)
                step_comp = data.fog.fogy.step.float_val * sf_comp_gyro - bias_comp_gyro;
 1000cf4:	e0800617 	ldw	r2,24(fp)
 1000cf8:	e17fed17 	ldw	r5,-76(fp)
 1000cfc:	1009883a 	mov	r4,r2
 1000d00:	100b96c0 	call	100b96c <__mulsf3>
 1000d04:	1007883a 	mov	r3,r2
 1000d08:	1805883a 	mov	r2,r3
 1000d0c:	e17fee17 	ldw	r5,-72(fp)
 1000d10:	1009883a 	mov	r4,r2
 1000d14:	100bd9c0 	call	100bd9c <__subsf3>
 1000d18:	1007883a 	mov	r3,r2
 1000d1c:	e0ffef15 	stw	r3,-68(fp)
                /*** calculate mis-alignment calibrated gyro data */
                step_cali.float_val = misalignment_calibration(0, step_comp, 0, fog_parameter, MIS_CALI_GYRO).y.float_val;
 1000d20:	e43ff404 	addi	r16,fp,-48
 1000d24:	00800104 	movi	r2,4
 1000d28:	d8813c15 	stw	r2,1264(sp)
 1000d2c:	d809883a 	mov	r4,sp
 1000d30:	e0801b04 	addi	r2,fp,108
 1000d34:	00c13c04 	movi	r3,1264
 1000d38:	180d883a 	mov	r6,r3
 1000d3c:	100b883a 	mov	r5,r2
 1000d40:	100f4280 	call	100f428 <memcpy>
 1000d44:	000f883a 	mov	r7,zero
 1000d48:	e1bfef17 	ldw	r6,-68(fp)
 1000d4c:	000b883a 	mov	r5,zero
 1000d50:	8009883a 	mov	r4,r16
 1000d54:	10082640 	call	1008264 <misalignment_calibration>
 1000d58:	e0bff517 	ldw	r2,-44(fp)
 1000d5c:	e0bffb15 	stw	r2,-20(fp)
                // UART_PRINT("fog sf_y_comp: %f\n", sf_comp_gyro);
                // UART_PRINT("fog bias_y_comp: %f\n", bias_comp_gyro);
                // UART_PRINT("fog step_y_comp: %f\n", step_comp);
                // UART_PRINT("fog step_y_cali: %f\n", step_cali.float_val);
            break;
 1000d60:	00004a06 	br	1000e8c <acq_fog+0x48c>
            case Z_AXIS:
                err.float_val = data.fog.fogz.err.float_val;
 1000d64:	e0800717 	ldw	r2,28(fp)
 1000d68:	e0bffa15 	stw	r2,-24(fp)
                temp.float_val = data.temp.tempz.float_val;    
 1000d6c:	e0800b17 	ldw	r2,44(fp)
 1000d70:	e0bffc15 	stw	r2,-16(fp)
                sf_comp_gyro = SF_temp_compensation_1st_order_fog(data, fog_parameter, Z_AXIS);
 1000d74:	008000c4 	movi	r2,3
 1000d78:	d8815115 	stw	r2,1348(sp)
 1000d7c:	d8801504 	addi	r2,sp,84
 1000d80:	e0c01b04 	addi	r3,fp,108
 1000d84:	01013c04 	movi	r4,1264
 1000d88:	200d883a 	mov	r6,r4
 1000d8c:	180b883a 	mov	r5,r3
 1000d90:	1009883a 	mov	r4,r2
 1000d94:	100f4280 	call	100f428 <memcpy>
 1000d98:	d809883a 	mov	r4,sp
 1000d9c:	e0800604 	addi	r2,fp,24
 1000da0:	00c01504 	movi	r3,84
 1000da4:	180d883a 	mov	r6,r3
 1000da8:	100b883a 	mov	r5,r2
 1000dac:	100f4280 	call	100f428 <memcpy>
 1000db0:	e1000217 	ldw	r4,8(fp)
 1000db4:	e1400317 	ldw	r5,12(fp)
 1000db8:	e1800417 	ldw	r6,16(fp)
 1000dbc:	e1c00517 	ldw	r7,20(fp)
 1000dc0:	1007ac00 	call	1007ac0 <SF_temp_compensation_1st_order_fog>
 1000dc4:	e0bfed15 	stw	r2,-76(fp)
                bias_comp_gyro = BIAS_temp_compensation_1st_order_fog_3T(data, fog_parameter, Z_AXIS);
 1000dc8:	008000c4 	movi	r2,3
 1000dcc:	d8815115 	stw	r2,1348(sp)
 1000dd0:	d8801504 	addi	r2,sp,84
 1000dd4:	e0c01b04 	addi	r3,fp,108
 1000dd8:	01013c04 	movi	r4,1264
 1000ddc:	200d883a 	mov	r6,r4
 1000de0:	180b883a 	mov	r5,r3
 1000de4:	1009883a 	mov	r4,r2
 1000de8:	100f4280 	call	100f428 <memcpy>
 1000dec:	d809883a 	mov	r4,sp
 1000df0:	e0800604 	addi	r2,fp,24
 1000df4:	00c01504 	movi	r3,84
 1000df8:	180d883a 	mov	r6,r3
 1000dfc:	100b883a 	mov	r5,r2
 1000e00:	100f4280 	call	100f428 <memcpy>
 1000e04:	e1000217 	ldw	r4,8(fp)
 1000e08:	e1400317 	ldw	r5,12(fp)
 1000e0c:	e1800417 	ldw	r6,16(fp)
 1000e10:	e1c00517 	ldw	r7,20(fp)
 1000e14:	1007d940 	call	1007d94 <BIAS_temp_compensation_1st_order_fog_3T>
 1000e18:	e0bfee15 	stw	r2,-72(fp)
                step_comp = data.fog.fogz.step.float_val * sf_comp_gyro - bias_comp_gyro;
 1000e1c:	e0800817 	ldw	r2,32(fp)
 1000e20:	e17fed17 	ldw	r5,-76(fp)
 1000e24:	1009883a 	mov	r4,r2
 1000e28:	100b96c0 	call	100b96c <__mulsf3>
 1000e2c:	1007883a 	mov	r3,r2
 1000e30:	1805883a 	mov	r2,r3
 1000e34:	e17fee17 	ldw	r5,-72(fp)
 1000e38:	1009883a 	mov	r4,r2
 1000e3c:	100bd9c0 	call	100bd9c <__subsf3>
 1000e40:	1007883a 	mov	r3,r2
 1000e44:	e0ffef15 	stw	r3,-68(fp)
                /*** calculate mis-alignment calibrated gyro data */
                step_cali.float_val = misalignment_calibration(0, 0, step_comp, fog_parameter, MIS_CALI_GYRO).z.float_val;
 1000e48:	e43ff104 	addi	r16,fp,-60
 1000e4c:	00800104 	movi	r2,4
 1000e50:	d8813c15 	stw	r2,1264(sp)
 1000e54:	d809883a 	mov	r4,sp
 1000e58:	e0801b04 	addi	r2,fp,108
 1000e5c:	00c13c04 	movi	r3,1264
 1000e60:	180d883a 	mov	r6,r3
 1000e64:	100b883a 	mov	r5,r2
 1000e68:	100f4280 	call	100f428 <memcpy>
 1000e6c:	e1ffef17 	ldw	r7,-68(fp)
 1000e70:	000d883a 	mov	r6,zero
 1000e74:	000b883a 	mov	r5,zero
 1000e78:	8009883a 	mov	r4,r16
 1000e7c:	10082640 	call	1008264 <misalignment_calibration>
 1000e80:	e0bff317 	ldw	r2,-52(fp)
 1000e84:	e0bffb15 	stw	r2,-20(fp)
                // UART_PRINT("fog sf_z_comp: %f\n", sf_comp_gyro);
                // UART_PRINT("fog bias_z_comp: %f\n", bias_comp_gyro);
                // UART_PRINT("fog step_z_comp: %f\n", step_comp);
                // UART_PRINT("fog step_z_cali: %f\n", step_cali.float_val);
            break;
 1000e88:	0001883a 	nop
        }
            // g_time[3] = get_timer_int();
            alt_u8* imu_data = (alt_u8*)malloc(20); // KVH_HEADER:4 + time:4 + err:4 + fog:4 + temp:4
 1000e8c:	01000504 	movi	r4,20
 1000e90:	100ebf40 	call	100ebf4 <malloc>
 1000e94:	e0bff015 	stw	r2,-64(fp)
			alt_u8 CRC32[4];

            memcpy(imu_data, KVH_HEADER, 4);
 1000e98:	e0bff017 	ldw	r2,-64(fp)
 1000e9c:	d0e01003 	ldbu	r3,-32704(gp)
 1000ea0:	10c00005 	stb	r3,0(r2)
 1000ea4:	d0e01043 	ldbu	r3,-32703(gp)
 1000ea8:	10c00045 	stb	r3,1(r2)
 1000eac:	d0e01083 	ldbu	r3,-32702(gp)
 1000eb0:	10c00085 	stb	r3,2(r2)
 1000eb4:	d0e010c3 	ldbu	r3,-32701(gp)
 1000eb8:	10c000c5 	stb	r3,3(r2)
            memcpy(imu_data+4, data.time.time.bin_val, 4); 
 1000ebc:	e0bff017 	ldw	r2,-64(fp)
 1000ec0:	10800104 	addi	r2,r2,4
 1000ec4:	e0c00203 	ldbu	r3,8(fp)
 1000ec8:	10c00005 	stb	r3,0(r2)
 1000ecc:	e0c00243 	ldbu	r3,9(fp)
 1000ed0:	10c00045 	stb	r3,1(r2)
 1000ed4:	e0c00283 	ldbu	r3,10(fp)
 1000ed8:	10c00085 	stb	r3,2(r2)
 1000edc:	e0c002c3 	ldbu	r3,11(fp)
 1000ee0:	10c000c5 	stb	r3,3(r2)
            memcpy(imu_data+8, err.bin_val, 4); 
 1000ee4:	e0bff017 	ldw	r2,-64(fp)
 1000ee8:	10800204 	addi	r2,r2,8
 1000eec:	e0fffa03 	ldbu	r3,-24(fp)
 1000ef0:	10c00005 	stb	r3,0(r2)
 1000ef4:	e0fffa43 	ldbu	r3,-23(fp)
 1000ef8:	10c00045 	stb	r3,1(r2)
 1000efc:	e0fffa83 	ldbu	r3,-22(fp)
 1000f00:	10c00085 	stb	r3,2(r2)
 1000f04:	e0fffac3 	ldbu	r3,-21(fp)
 1000f08:	10c000c5 	stb	r3,3(r2)
            memcpy(imu_data+12, step_cali.bin_val, 4); 
 1000f0c:	e0bff017 	ldw	r2,-64(fp)
 1000f10:	10800304 	addi	r2,r2,12
 1000f14:	e0fffb03 	ldbu	r3,-20(fp)
 1000f18:	10c00005 	stb	r3,0(r2)
 1000f1c:	e0fffb43 	ldbu	r3,-19(fp)
 1000f20:	10c00045 	stb	r3,1(r2)
 1000f24:	e0fffb83 	ldbu	r3,-18(fp)
 1000f28:	10c00085 	stb	r3,2(r2)
 1000f2c:	e0fffbc3 	ldbu	r3,-17(fp)
 1000f30:	10c000c5 	stb	r3,3(r2)
            memcpy(imu_data+16, temp.bin_val, 4); // AIN0
 1000f34:	e0bff017 	ldw	r2,-64(fp)
 1000f38:	10800404 	addi	r2,r2,16
 1000f3c:	e0fffc03 	ldbu	r3,-16(fp)
 1000f40:	10c00005 	stb	r3,0(r2)
 1000f44:	e0fffc43 	ldbu	r3,-15(fp)
 1000f48:	10c00045 	stb	r3,1(r2)
 1000f4c:	e0fffc83 	ldbu	r3,-14(fp)
 1000f50:	10c00085 	stb	r3,2(r2)
 1000f54:	e0fffcc3 	ldbu	r3,-13(fp)
 1000f58:	10c000c5 	stb	r3,3(r2)
            crc_32(imu_data, 20, CRC32);
 1000f5c:	e0bffd04 	addi	r2,fp,-12
 1000f60:	100d883a 	mov	r6,r2
 1000f64:	01400504 	movi	r5,20
 1000f68:	e13ff017 	ldw	r4,-64(fp)
 1000f6c:	10032900 	call	1003290 <crc_32>
            free(imu_data);
 1000f70:	e13ff017 	ldw	r4,-64(fp)
 1000f74:	100ec080 	call	100ec08 <free>
            // SerialWrite(err.bin_val, 4); 
            // SerialWrite(step_cali.bin_val, 4); 
            // SerialWrite(temp.bin_val, 4); 
            // SerialWrite(CRC32, 4); 
    }
}
 1000f78:	0001883a 	nop
 1000f7c:	e6ffff04 	addi	sp,fp,-4
 1000f80:	dfc00217 	ldw	ra,8(sp)
 1000f84:	df000117 	ldw	fp,4(sp)
 1000f88:	dc000017 	ldw	r16,0(sp)
 1000f8c:	dec00604 	addi	sp,sp,24
 1000f90:	f800283a 	ret

01000f94 <acq_imu>:

static const unsigned char HD_ABBA[2] = {0xAB, 0xBA};
static const unsigned char TR_5556[2] = {0x55, 0x56};

void acq_imu (cmd_ctrl_t* rx, my_sensor_t data, fog_parameter_t fog_parameter)
{
 1000f94:	defffa04 	addi	sp,sp,-24
 1000f98:	dfc00215 	stw	ra,8(sp)
 1000f9c:	df000115 	stw	fp,4(sp)
 1000fa0:	df000104 	addi	fp,sp,4
 1000fa4:	e13fff15 	stw	r4,-4(fp)
 1000fa8:	e1400215 	stw	r5,8(fp)
 1000fac:	e1800315 	stw	r6,12(fp)
 1000fb0:	e1c00415 	stw	r7,16(fp)

    if(rx->select_fn == SEL_IMU) {
 1000fb4:	e0bfff17 	ldw	r2,-4(fp)
 1000fb8:	108004c3 	ldbu	r2,19(r2)
 1000fbc:	10803fcc 	andi	r2,r2,255
 1000fc0:	10800158 	cmpnei	r2,r2,5
 1000fc4:	10002e1e 	bne	r2,zero,1001080 <acq_imu+0xec>
        rx->select_fn = SEL_IDLE; //clear select_fn
 1000fc8:	e0bfff17 	ldw	r2,-4(fp)
 1000fcc:	100004c5 	stb	zero,19(r2)
        DEBUG_PRINT("select acq_imu mode\n");
 1000fd0:	010040b4 	movhi	r4,258
 1000fd4:	21056504 	addi	r4,r4,5524
 1000fd8:	1002ea00 	call	1002ea0 <uart_printf_dbg>
        if(rx->sync_mode == INT_SYNC) { //internal sync mode
 1000fdc:	e0bfff17 	ldw	r2,-4(fp)
 1000fe0:	10800703 	ldbu	r2,28(r2)
 1000fe4:	10803fcc 	andi	r2,r2,255
 1000fe8:	10800058 	cmpnei	r2,r2,1
 1000fec:	1000071e 	bne	r2,zero,100100c <acq_imu+0x78>
            DEBUG_PRINT("acq_imu select internal mode\n");
 1000ff0:	010040b4 	movhi	r4,258
 1000ff4:	21056b04 	addi	r4,r4,5548
 1000ff8:	1002ea00 	call	1002ea0 <uart_printf_dbg>
            rx->run = 1;
 1000ffc:	e0bfff17 	ldw	r2,-4(fp)
 1001000:	00c00044 	movi	r3,1
 1001004:	10c00585 	stb	r3,22(r2)
 1001008:	00001606 	br	1001064 <acq_imu+0xd0>
        }
        else if(rx->sync_mode == EXT_SYNC) { //external sync mode
 100100c:	e0bfff17 	ldw	r2,-4(fp)
 1001010:	10800703 	ldbu	r2,28(r2)
 1001014:	10803fcc 	andi	r2,r2,255
 1001018:	10800098 	cmpnei	r2,r2,2
 100101c:	1000071e 	bne	r2,zero,100103c <acq_imu+0xa8>
            DEBUG_PRINT("acq_imu select external mode\n");
 1001020:	010040b4 	movhi	r4,258
 1001024:	21057304 	addi	r4,r4,5580
 1001028:	1002ea00 	call	1002ea0 <uart_printf_dbg>
            rx->run = 1;
 100102c:	e0bfff17 	ldw	r2,-4(fp)
 1001030:	00c00044 	movi	r3,1
 1001034:	10c00585 	stb	r3,22(r2)
 1001038:	00000a06 	br	1001064 <acq_imu+0xd0>
        }
        else if(rx->sync_mode == STOP_RUN) { //stop
 100103c:	e0bfff17 	ldw	r2,-4(fp)
 1001040:	10800703 	ldbu	r2,28(r2)
 1001044:	10803fcc 	andi	r2,r2,255
 1001048:	10800118 	cmpnei	r2,r2,4
 100104c:	1000051e 	bne	r2,zero,1001064 <acq_imu+0xd0>
            DEBUG_PRINT("acq_imu select stop\n");
 1001050:	010040b4 	movhi	r4,258
 1001054:	21057b04 	addi	r4,r4,5612
 1001058:	1002ea00 	call	1002ea0 <uart_printf_dbg>
            rx->run = 0;
 100105c:	e0bfff17 	ldw	r2,-4(fp)
 1001060:	10000585 	stb	zero,22(r2)
        }
        DEBUG_PRINT("rx->run: %d\n", rx->run);
 1001064:	e0bfff17 	ldw	r2,-4(fp)
 1001068:	10800583 	ldbu	r2,22(r2)
 100106c:	10803fcc 	andi	r2,r2,255
 1001070:	100b883a 	mov	r5,r2
 1001074:	010040b4 	movhi	r4,258
 1001078:	21058104 	addi	r4,r4,5636
 100107c:	1002ea00 	call	1002ea0 <uart_printf_dbg>
    }
    if(rx->run == 1) { 
 1001080:	e0bfff17 	ldw	r2,-4(fp)
 1001084:	10800583 	ldbu	r2,22(r2)
 1001088:	10803fcc 	andi	r2,r2,255
 100108c:	10800058 	cmpnei	r2,r2,1
 1001090:	1000391e 	bne	r2,zero,1001178 <acq_imu+0x1e4>


        // g_time[2] = get_timer_int();   
        
        SerialWrite((alt_u8*)HD_ABBA, 2);
 1001094:	01400084 	movi	r5,2
 1001098:	d1201204 	addi	r4,gp,-32696
 100109c:	1002f8c0 	call	1002f8c <SerialWrite>
        SerialWrite(data.fog.fogz.step.bin_val, 4); //FOG Z
 10010a0:	e0800804 	addi	r2,fp,32
 10010a4:	01400104 	movi	r5,4
 10010a8:	1009883a 	mov	r4,r2
 10010ac:	1002f8c0 	call	1002f8c <SerialWrite>
        SerialWrite(data.asm330lhhx.wz.bin_val, 4); //MEMS Z
 10010b0:	e0801604 	addi	r2,fp,88
 10010b4:	01400104 	movi	r5,4
 10010b8:	1009883a 	mov	r4,r2
 10010bc:	1002f8c0 	call	1002f8c <SerialWrite>
        SerialWrite(data.asm330lhhx.wy.bin_val, 4); //FOG Y
 10010c0:	e0801504 	addi	r2,fp,84
 10010c4:	01400104 	movi	r5,4
 10010c8:	1009883a 	mov	r4,r2
 10010cc:	1002f8c0 	call	1002f8c <SerialWrite>
        SerialWrite(data.asm330lhhx.wx.bin_val, 4); //FOG X
 10010d0:	e0801404 	addi	r2,fp,80
 10010d4:	01400104 	movi	r5,4
 10010d8:	1009883a 	mov	r4,r2
 10010dc:	1002f8c0 	call	1002f8c <SerialWrite>
        // SerialWrite(gx.bin_val, 4);
        // SerialWrite(gy.bin_val, 4);
        // SerialWrite(gz.bin_val, 4);
        SerialWrite(data.asm330lhhx.ax.bin_val, 4); //ACCL X
 10010e0:	e0801704 	addi	r2,fp,92
 10010e4:	01400104 	movi	r5,4
 10010e8:	1009883a 	mov	r4,r2
 10010ec:	1002f8c0 	call	1002f8c <SerialWrite>
        SerialWrite(data.asm330lhhx.ay.bin_val, 4); //ACCL Y
 10010f0:	e0801804 	addi	r2,fp,96
 10010f4:	01400104 	movi	r5,4
 10010f8:	1009883a 	mov	r4,r2
 10010fc:	1002f8c0 	call	1002f8c <SerialWrite>
        SerialWrite(data.asm330lhhx.az.bin_val, 4); //ACCL Z
 1001100:	e0801904 	addi	r2,fp,100
 1001104:	01400104 	movi	r5,4
 1001108:	1009883a 	mov	r4,r2
 100110c:	1002f8c0 	call	1002f8c <SerialWrite>
        SerialWrite(data.ads122c04.ain0.bin_val, 4); //TEMP Z
 1001110:	e0800c04 	addi	r2,fp,48
 1001114:	01400104 	movi	r5,4
 1001118:	1009883a 	mov	r4,r2
 100111c:	1002f8c0 	call	1002f8c <SerialWrite>
        SerialWrite(data.ads122c04.ain1.bin_val, 4); // Vin mon
 1001120:	e0800d04 	addi	r2,fp,52
 1001124:	01400104 	movi	r5,4
 1001128:	1009883a 	mov	r4,r2
 100112c:	1002f8c0 	call	1002f8c <SerialWrite>
        SerialWrite(data.ads122c04.ain2.bin_val, 4); //Tact mon
 1001130:	e0800e04 	addi	r2,fp,56
 1001134:	01400104 	movi	r5,4
 1001138:	1009883a 	mov	r4,r2
 100113c:	1002f8c0 	call	1002f8c <SerialWrite>
        SerialWrite(data.ads122c04.ain3.bin_val, 4); //Pump PD mon
 1001140:	e0800f04 	addi	r2,fp,60
 1001144:	01400104 	movi	r5,4
 1001148:	1009883a 	mov	r4,r2
 100114c:	1002f8c0 	call	1002f8c <SerialWrite>
        SerialWrite(data.asm330lhhx.temp.bin_val, 4);
 1001150:	e0801a04 	addi	r2,fp,104
 1001154:	01400104 	movi	r5,4
 1001158:	1009883a 	mov	r4,r2
 100115c:	1002f8c0 	call	1002f8c <SerialWrite>
        SerialWrite(data.time.time.bin_val, 4);
 1001160:	01400104 	movi	r5,4
 1001164:	e1000204 	addi	r4,fp,8
 1001168:	1002f8c0 	call	1002f8c <SerialWrite>
        SerialWrite((alt_u8*)TR_5556, 2);   
 100116c:	01400084 	movi	r5,2
 1001170:	d1201284 	addi	r4,gp,-32694
 1001174:	1002f8c0 	call	1002f8c <SerialWrite>
        // data.ads122c04.ain0.float_val,
        // data.asm330lhhx.temp.float_val,
        // data.time.time.float_val);

    }
}
 1001178:	0001883a 	nop
 100117c:	e037883a 	mov	sp,fp
 1001180:	dfc00117 	ldw	ra,4(sp)
 1001184:	df000017 	ldw	fp,0(sp)
 1001188:	dec00504 	addi	sp,sp,20
 100118c:	f800283a 	ret

01001190 <acq_rst>:

static alt_u32 dly_cnt = 0;


void acq_rst (cmd_ctrl_t* rx, my_sensor_t data, fog_parameter_t fog_parameter)
{
 1001190:	defffa04 	addi	sp,sp,-24
 1001194:	dfc00215 	stw	ra,8(sp)
 1001198:	df000115 	stw	fp,4(sp)
 100119c:	df000104 	addi	fp,sp,4
 10011a0:	e13fff15 	stw	r4,-4(fp)
 10011a4:	e1400215 	stw	r5,8(fp)
 10011a8:	e1800315 	stw	r6,12(fp)
 10011ac:	e1c00415 	stw	r7,16(fp)
    if(dly_cnt++ > DLY_NUM) {
 10011b0:	d0a03217 	ldw	r2,-32568(gp)
 10011b4:	10c00044 	addi	r3,r2,1
 10011b8:	d0e03215 	stw	r3,-32568(gp)
 10011bc:	10807d70 	cmpltui	r2,r2,501
 10011c0:	1000041e 	bne	r2,zero,10011d4 <acq_rst+0x44>
        dly_cnt = 0;
 10011c4:	d0203215 	stw	zero,-32568(gp)
        UART_PRINT("acq_rst mode\n");
        DEBUG_PRINT("acq_rst mode\n");
 10011c8:	010040b4 	movhi	r4,258
 10011cc:	21058504 	addi	r4,r4,5652
 10011d0:	1002ea00 	call	1002ea0 <uart_printf_dbg>
        // INFO_PRINT("acq_rst mode\n");
    }  
}
 10011d4:	0001883a 	nop
 10011d8:	e037883a 	mov	sp,fp
 10011dc:	dfc00117 	ldw	ra,4(sp)
 10011e0:	df000017 	ldw	fp,0(sp)
 10011e4:	dec00504 	addi	sp,sp,20
 10011e8:	f800283a 	ret

010011ec <init_ADDA>:
#include "adda_config.h"
// #include "system.h"
// #include "altera_avalon_spi_regs.h"

void init_ADDA(void)
{
 10011ec:	defffe04 	addi	sp,sp,-8
 10011f0:	dfc00115 	stw	ra,4(sp)
 10011f4:	df000015 	stw	fp,0(sp)
 10011f8:	d839883a 	mov	fp,sp
    //select ADC of HINS -> Reset -> change format to 2's complement
    IOWR_ALTERA_AVALON_SPI_SLAVE_SEL(SPI_ADC_BASE, SEL_CS_ADC); usleep (10); 
 10011fc:	00c00044 	movi	r3,1
 1001200:	00808034 	movhi	r2,512
 1001204:	10888d04 	addi	r2,r2,8756
 1001208:	10c00035 	stwio	r3,0(r2)
 100120c:	01000284 	movi	r4,10
 1001210:	101dc480 	call	101dc48 <usleep>
	IOWR_ALTERA_AVALON_SPI_TXDATA(SPI_ADC_BASE, ADC_RESET); usleep (10);
 1001214:	00c02004 	movi	r3,128
 1001218:	00808034 	movhi	r2,512
 100121c:	10888904 	addi	r2,r2,8740
 1001220:	10c00035 	stwio	r3,0(r2)
 1001224:	01000284 	movi	r4,10
 1001228:	101dc480 	call	101dc48 <usleep>
	IOWR_ALTERA_AVALON_SPI_TXDATA(SPI_ADC_BASE, ADC_FMT); usleep (10);
 100122c:	00c10044 	movi	r3,1025
 1001230:	00808034 	movhi	r2,512
 1001234:	10888904 	addi	r2,r2,8740
 1001238:	10c00035 	stwio	r3,0(r2)
 100123c:	01000284 	movi	r4,10
 1001240:	101dc480 	call	101dc48 <usleep>
//	set_ADC_all_one();
	IOWR_ALTERA_AVALON_SPI_SLAVE_SEL(SPI_ADC_BASE, 0); usleep (10); // release ADC CS
 1001244:	0007883a 	mov	r3,zero
 1001248:	00808034 	movhi	r2,512
 100124c:	10888d04 	addi	r2,r2,8756
 1001250:	10c00035 	stwio	r3,0(r2)
 1001254:	01000284 	movi	r4,10
 1001258:	101dc480 	call	101dc48 <usleep>

	//select DAC_2CH of HINS -> Reset -> change format to 2's complement
	IOWR_ALTERA_AVALON_SPI_SLAVE_SEL(SPI_DAC_BASE, SEL_CS_DAC); usleep (10); //select DAC_CH2
 100125c:	00c00044 	movi	r3,1
 1001260:	00808034 	movhi	r2,512
 1001264:	10888504 	addi	r2,r2,8724
 1001268:	10c00035 	stwio	r3,0(r2)
 100126c:	01000284 	movi	r4,10
 1001270:	101dc480 	call	101dc48 <usleep>
	IOWR_ALTERA_AVALON_SPI_TXDATA(SPI_DAC_BASE, DAC2_GAIN_MSB_W_NR); usleep (10);
 1001274:	00c40044 	movi	r3,4097
 1001278:	00808034 	movhi	r2,512
 100127c:	10888104 	addi	r2,r2,8708
 1001280:	10c00035 	stwio	r3,0(r2)
 1001284:	01000284 	movi	r4,10
 1001288:	101dc480 	call	101dc48 <usleep>
	IOWR_ALTERA_AVALON_SPI_TXDATA(SPI_DAC_BASE, DAC2_GAIN_LSB_W_NR); usleep (10);
 100128c:	00c3fe44 	movi	r3,4089
 1001290:	00808034 	movhi	r2,512
 1001294:	10888104 	addi	r2,r2,8708
 1001298:	10c00035 	stwio	r3,0(r2)
 100129c:	01000284 	movi	r4,10
 10012a0:	101dc480 	call	101dc48 <usleep>
	IOWR_ALTERA_AVALON_SPI_SLAVE_SEL(SPI_DAC_BASE, 0); usleep (10); // release DAC CS
 10012a4:	0007883a 	mov	r3,zero
 10012a8:	00808034 	movhi	r2,512
 10012ac:	10888504 	addi	r2,r2,8724
 10012b0:	10c00035 	stwio	r3,0(r2)
 10012b4:	01000284 	movi	r4,10
 10012b8:	101dc480 	call	101dc48 <usleep>



	// clear_DAC_reset();
}
 10012bc:	0001883a 	nop
 10012c0:	e037883a 	mov	sp,fp
 10012c4:	dfc00117 	ldw	ra,4(sp)
 10012c8:	df000017 	ldw	fp,0(sp)
 10012cc:	dec00204 	addi	sp,sp,8
 10012d0:	f800283a 	ret

010012d4 <set_ADC_all_zero>:

void set_ADC_all_zero()
{
 10012d4:	defffe04 	addi	sp,sp,-8
 10012d8:	dfc00115 	stw	ra,4(sp)
 10012dc:	df000015 	stw	fp,0(sp)
 10012e0:	d839883a 	mov	fp,sp
    IOWR_ALTERA_AVALON_SPI_TXDATA(SPI_ADC_BASE, ADC_ALL_ZERO); usleep (10);
 10012e4:	00c10244 	movi	r3,1033
 10012e8:	00808034 	movhi	r2,512
 10012ec:	10888904 	addi	r2,r2,8740
 10012f0:	10c00035 	stwio	r3,0(r2)
 10012f4:	01000284 	movi	r4,10
 10012f8:	101dc480 	call	101dc48 <usleep>
}
 10012fc:	0001883a 	nop
 1001300:	e037883a 	mov	sp,fp
 1001304:	dfc00117 	ldw	ra,4(sp)
 1001308:	df000017 	ldw	fp,0(sp)
 100130c:	dec00204 	addi	sp,sp,8
 1001310:	f800283a 	ret

01001314 <set_ADC_all_one>:


void set_ADC_all_one()
{
 1001314:	defffe04 	addi	sp,sp,-8
 1001318:	dfc00115 	stw	ra,4(sp)
 100131c:	df000015 	stw	fp,0(sp)
 1001320:	d839883a 	mov	fp,sp
    IOWR_ALTERA_AVALON_SPI_TXDATA(SPI_ADC_BASE, ADC_ALL_ONE); usleep (10);
 1001324:	00c10644 	movi	r3,1049
 1001328:	00808034 	movhi	r2,512
 100132c:	10888904 	addi	r2,r2,8740
 1001330:	10c00035 	stwio	r3,0(r2)
 1001334:	01000284 	movi	r4,10
 1001338:	101dc480 	call	101dc48 <usleep>
}
 100133c:	0001883a 	nop
 1001340:	e037883a 	mov	sp,fp
 1001344:	dfc00117 	ldw	ra,4(sp)
 1001348:	df000017 	ldw	fp,0(sp)
 100134c:	dec00204 	addi	sp,sp,8
 1001350:	f800283a 	ret

01001354 <set_DAC_reset>:

void set_DAC_reset()
{
 1001354:	deffff04 	addi	sp,sp,-4
 1001358:	df000015 	stw	fp,0(sp)
 100135c:	d839883a 	mov	fp,sp
	IOWR_ALTERA_AVALON_PIO_DATA(DAC_RST_BASE, 0x01);
 1001360:	00c00044 	movi	r3,1
 1001364:	00808034 	movhi	r2,512
 1001368:	1088a004 	addi	r2,r2,8832
 100136c:	10c00035 	stwio	r3,0(r2)

}
 1001370:	0001883a 	nop
 1001374:	e037883a 	mov	sp,fp
 1001378:	df000017 	ldw	fp,0(sp)
 100137c:	dec00104 	addi	sp,sp,4
 1001380:	f800283a 	ret

01001384 <clear_DAC_reset>:

void clear_DAC_reset()
{
 1001384:	deffff04 	addi	sp,sp,-4
 1001388:	df000015 	stw	fp,0(sp)
 100138c:	d839883a 	mov	fp,sp
	IOWR_ALTERA_AVALON_PIO_DATA(DAC_RST_BASE, 0x00);
 1001390:	0007883a 	mov	r3,zero
 1001394:	00808034 	movhi	r2,512
 1001398:	1088a004 	addi	r2,r2,8832
 100139c:	10c00035 	stwio	r3,0(r2)
}
 10013a0:	0001883a 	nop
 10013a4:	e037883a 	mov	sp,fp
 10013a8:	df000017 	ldw	fp,0(sp)
 10013ac:	dec00104 	addi	sp,sp,4
 10013b0:	f800283a 	ret

010013b4 <init_ADS122C04_TEMP>:
static alt_u32 dly_cnt = 0, number = 5000;
static const DELAY_NUM = 100000;

/***********high level definition */
void init_ADS122C04_TEMP()
{
 10013b4:	defffe04 	addi	sp,sp,-8
 10013b8:	dfc00115 	stw	ra,4(sp)
 10013bc:	df000015 	stw	fp,0(sp)
 10013c0:	d839883a 	mov	fp,sp
	/*** configure the ADXL355/357 ***/
	I2C_clock_rate_sel_ADS122C04_TEMP(CLK_390K);
 10013c4:	010001c4 	movi	r4,7
 10013c8:	10018700 	call	1001870 <I2C_clock_rate_sel_ADS122C04_TEMP>

	I2C_sm_set_finish_clear_pulse_ADS122C04_TEMP(); // let finish starts at zero
 10013cc:	1001c680 	call	1001c68 <I2C_sm_set_finish_clear_pulse_ADS122C04_TEMP>

	/*** RESET ***/
	I2C_write_ADS122C04_TEMP_cmd(RESET);
 10013d0:	01000184 	movi	r4,6
 10013d4:	10018d00 	call	10018d0 <I2C_write_ADS122C04_TEMP_cmd>

	/*** set ADS122C04 parameters ***/
	I2C_write_ADS122C04_TEMP_register(WREG_CONFIG_0, MUX_AIN0_AVSS|GAIN_1|PGA_DISABLE);
 10013d8:	01402044 	movi	r5,129
 10013dc:	01001004 	movi	r4,64
 10013e0:	10019680 	call	1001968 <I2C_write_ADS122C04_TEMP_register>
	I2C_read_ADS122C04_TEMP_register(RREG_CONFIG_0, 1);
 10013e4:	01400044 	movi	r5,1
 10013e8:	01000804 	movi	r4,32
 10013ec:	1001a180 	call	1001a18 <I2C_read_ADS122C04_TEMP_register>
	
	I2C_write_ADS122C04_TEMP_register(WREG_CONFIG_1, DR_20_40|MODE_NORMAL|CM_SINGLE_SHOT|VREF_ANALOG_SUPPLY|TS_DISABLE);
 10013f0:	01400104 	movi	r5,4
 10013f4:	01001104 	movi	r4,68
 10013f8:	10019680 	call	1001968 <I2C_write_ADS122C04_TEMP_register>
	I2C_read_ADS122C04_TEMP_register(RREG_CONFIG_1, 1);
 10013fc:	01400044 	movi	r5,1
 1001400:	01000904 	movi	r4,36
 1001404:	1001a180 	call	1001a18 <I2C_read_ADS122C04_TEMP_register>

	I2C_write_ADS122C04_TEMP_register(WREG_CONFIG_2, 0x00);
 1001408:	000b883a 	mov	r5,zero
 100140c:	01001204 	movi	r4,72
 1001410:	10019680 	call	1001968 <I2C_write_ADS122C04_TEMP_register>
	I2C_read_ADS122C04_TEMP_register(RREG_CONFIG_2, 1);
 1001414:	01400044 	movi	r5,1
 1001418:	01000a04 	movi	r4,40
 100141c:	1001a180 	call	1001a18 <I2C_read_ADS122C04_TEMP_register>

	I2C_write_ADS122C04_TEMP_register(WREG_CONFIG_3, 0x00);
 1001420:	000b883a 	mov	r5,zero
 1001424:	01001304 	movi	r4,76
 1001428:	10019680 	call	1001968 <I2C_write_ADS122C04_TEMP_register>
	I2C_read_ADS122C04_TEMP_register(RREG_CONFIG_3, 1);
 100142c:	01400044 	movi	r5,1
 1001430:	01000b04 	movi	r4,44
 1001434:	1001a180 	call	1001a18 <I2C_read_ADS122C04_TEMP_register>

	// test_ADS122C04();

	// setting mode 
	I2C_op_mode_sel_ADS122C04_TEMP(HW);
 1001438:	01000084 	movi	r4,2
 100143c:	10018100 	call	1001810 <I2C_op_mode_sel_ADS122C04_TEMP>
	// Set I2C device address
	I2C_set_device_addr_ADS122C04_TEMP(I2C_DEV_ADDR);
 1001440:	01001144 	movi	r4,69
 1001444:	1001ae00 	call	1001ae0 <I2C_set_device_addr_ADS122C04_TEMP>
	// test_ADS122C04();
}
 1001448:	0001883a 	nop
 100144c:	e037883a 	mov	sp,fp
 1001450:	dfc00117 	ldw	ra,4(sp)
 1001454:	df000017 	ldw	fp,0(sp)
 1001458:	dec00204 	addi	sp,sp,8
 100145c:	f800283a 	ret

01001460 <test_ADS122C04>:

void test_ADS122C04()
{
 1001460:	defffe04 	addi	sp,sp,-8
 1001464:	dfc00115 	stw	ra,4(sp)
 1001468:	df000015 	stw	fp,0(sp)
 100146c:	d839883a 	mov	fp,sp
	DEBUG_PRINT("testing_ADS122C04\n");
 1001470:	010040b4 	movhi	r4,258
 1001474:	21058904 	addi	r4,r4,5668
 1001478:	1002ea00 	call	1002ea0 <uart_printf_dbg>
	while(number-- != 0 ) {
 100147c:	00000906 	br	10014a4 <test_ADS122C04+0x44>
		while(dly_cnt++ < DELAY_NUM) {} // delay control
 1001480:	0001883a 	nop
 1001484:	d0e03317 	ldw	r3,-32564(gp)
 1001488:	18800044 	addi	r2,r3,1
 100148c:	d0a03315 	stw	r2,-32564(gp)
 1001490:	008000b4 	movhi	r2,2
 1001494:	10a1a804 	addi	r2,r2,-31072
 1001498:	18bffa36 	bltu	r3,r2,1001484 <__alt_mem_epcs+0xff000484>
		dly_cnt = 0;
 100149c:	d0203315 	stw	zero,-32564(gp)
		// printf("pass\n");
		read_ADS122C04_TEMP();
 10014a0:	10014cc0 	call	10014cc <read_ADS122C04_TEMP>
}

void test_ADS122C04()
{
	DEBUG_PRINT("testing_ADS122C04\n");
	while(number-- != 0 ) {
 10014a4:	d0a01317 	ldw	r2,-32692(gp)
 10014a8:	10ffffc4 	addi	r3,r2,-1
 10014ac:	d0e01315 	stw	r3,-32692(gp)
 10014b0:	103ff31e 	bne	r2,zero,1001480 <__alt_mem_epcs+0xff000480>
		// printf("pass\n");
		read_ADS122C04_TEMP();
	}

	
}
 10014b4:	0001883a 	nop
 10014b8:	e037883a 	mov	sp,fp
 10014bc:	dfc00117 	ldw	ra,4(sp)
 10014c0:	df000017 	ldw	fp,0(sp)
 10014c4:	dec00204 	addi	sp,sp,8
 10014c8:	f800283a 	ret

010014cc <read_ADS122C04_TEMP>:

void read_ADS122C04_TEMP()
{
 10014cc:	deffef04 	addi	sp,sp,-68
 10014d0:	dfc01015 	stw	ra,64(sp)
 10014d4:	df000f15 	stw	fp,60(sp)
 10014d8:	dd400e15 	stw	r21,56(sp)
 10014dc:	dd000d15 	stw	r20,52(sp)
 10014e0:	dcc00c15 	stw	r19,48(sp)
 10014e4:	dc800b15 	stw	r18,44(sp)
 10014e8:	dc400a15 	stw	r17,40(sp)
 10014ec:	dc000915 	stw	r16,36(sp)
 10014f0:	df000f04 	addi	fp,sp,60
	// setting mode 
	// I2C_op_mode_sel_ADS122C04_TEMP(HW);
	// Set I2C device address
	// I2C_set_device_addr_ADS122C04_TEMP(I2C_DEV_ADDR);

	ain0 = (float)IORD(VARSET_BASE, O_VAR_I2C_RDATA_1)*3.3/8388608.0;
 10014f4:	00808034 	movhi	r2,512
 10014f8:	10883d04 	addi	r2,r2,8436
 10014fc:	10800037 	ldwio	r2,0(r2)
 1001500:	1009883a 	mov	r4,r2
 1001504:	100c2800 	call	100c280 <__floatsisf>
 1001508:	1007883a 	mov	r3,r2
 100150c:	1809883a 	mov	r4,r3
 1001510:	100e8780 	call	100e878 <__extendsfdf2>
 1001514:	1011883a 	mov	r8,r2
 1001518:	1813883a 	mov	r9,r3
 100151c:	019999b4 	movhi	r6,26214
 1001520:	31999984 	addi	r6,r6,26214
 1001524:	01d002b4 	movhi	r7,16394
 1001528:	39d99984 	addi	r7,r7,26214
 100152c:	4009883a 	mov	r4,r8
 1001530:	480b883a 	mov	r5,r9
 1001534:	100d7100 	call	100d710 <__muldf3>
 1001538:	1009883a 	mov	r4,r2
 100153c:	180b883a 	mov	r5,r3
 1001540:	2005883a 	mov	r2,r4
 1001544:	2807883a 	mov	r3,r5
 1001548:	000d883a 	mov	r6,zero
 100154c:	01d05834 	movhi	r7,16736
 1001550:	1009883a 	mov	r4,r2
 1001554:	180b883a 	mov	r5,r3
 1001558:	100cd400 	call	100cd40 <__divdf3>
 100155c:	1009883a 	mov	r4,r2
 1001560:	180b883a 	mov	r5,r3
 1001564:	2005883a 	mov	r2,r4
 1001568:	2807883a 	mov	r3,r5
 100156c:	1009883a 	mov	r4,r2
 1001570:	180b883a 	mov	r5,r3
 1001574:	100e9880 	call	100e988 <__truncdfsf2>
 1001578:	1007883a 	mov	r3,r2
 100157c:	e0fff615 	stw	r3,-40(fp)
	ain1 = (float)IORD(VARSET_BASE, O_VAR_I2C_RDATA_2)*3.3/8388608.0;
 1001580:	00808034 	movhi	r2,512
 1001584:	10883e04 	addi	r2,r2,8440
 1001588:	10800037 	ldwio	r2,0(r2)
 100158c:	1009883a 	mov	r4,r2
 1001590:	100c2800 	call	100c280 <__floatsisf>
 1001594:	1007883a 	mov	r3,r2
 1001598:	1809883a 	mov	r4,r3
 100159c:	100e8780 	call	100e878 <__extendsfdf2>
 10015a0:	1011883a 	mov	r8,r2
 10015a4:	1813883a 	mov	r9,r3
 10015a8:	019999b4 	movhi	r6,26214
 10015ac:	31999984 	addi	r6,r6,26214
 10015b0:	01d002b4 	movhi	r7,16394
 10015b4:	39d99984 	addi	r7,r7,26214
 10015b8:	4009883a 	mov	r4,r8
 10015bc:	480b883a 	mov	r5,r9
 10015c0:	100d7100 	call	100d710 <__muldf3>
 10015c4:	1009883a 	mov	r4,r2
 10015c8:	180b883a 	mov	r5,r3
 10015cc:	2005883a 	mov	r2,r4
 10015d0:	2807883a 	mov	r3,r5
 10015d4:	000d883a 	mov	r6,zero
 10015d8:	01d05834 	movhi	r7,16736
 10015dc:	1009883a 	mov	r4,r2
 10015e0:	180b883a 	mov	r5,r3
 10015e4:	100cd400 	call	100cd40 <__divdf3>
 10015e8:	1009883a 	mov	r4,r2
 10015ec:	180b883a 	mov	r5,r3
 10015f0:	2005883a 	mov	r2,r4
 10015f4:	2807883a 	mov	r3,r5
 10015f8:	1009883a 	mov	r4,r2
 10015fc:	180b883a 	mov	r5,r3
 1001600:	100e9880 	call	100e988 <__truncdfsf2>
 1001604:	1007883a 	mov	r3,r2
 1001608:	e0fff715 	stw	r3,-36(fp)
	ain2 = (float)IORD(VARSET_BASE, O_VAR_I2C_RDATA_3)*3.3/8388608.0;
 100160c:	00808034 	movhi	r2,512
 1001610:	10883f04 	addi	r2,r2,8444
 1001614:	10800037 	ldwio	r2,0(r2)
 1001618:	1009883a 	mov	r4,r2
 100161c:	100c2800 	call	100c280 <__floatsisf>
 1001620:	1007883a 	mov	r3,r2
 1001624:	1809883a 	mov	r4,r3
 1001628:	100e8780 	call	100e878 <__extendsfdf2>
 100162c:	1011883a 	mov	r8,r2
 1001630:	1813883a 	mov	r9,r3
 1001634:	019999b4 	movhi	r6,26214
 1001638:	31999984 	addi	r6,r6,26214
 100163c:	01d002b4 	movhi	r7,16394
 1001640:	39d99984 	addi	r7,r7,26214
 1001644:	4009883a 	mov	r4,r8
 1001648:	480b883a 	mov	r5,r9
 100164c:	100d7100 	call	100d710 <__muldf3>
 1001650:	1009883a 	mov	r4,r2
 1001654:	180b883a 	mov	r5,r3
 1001658:	2005883a 	mov	r2,r4
 100165c:	2807883a 	mov	r3,r5
 1001660:	000d883a 	mov	r6,zero
 1001664:	01d05834 	movhi	r7,16736
 1001668:	1009883a 	mov	r4,r2
 100166c:	180b883a 	mov	r5,r3
 1001670:	100cd400 	call	100cd40 <__divdf3>
 1001674:	1009883a 	mov	r4,r2
 1001678:	180b883a 	mov	r5,r3
 100167c:	2005883a 	mov	r2,r4
 1001680:	2807883a 	mov	r3,r5
 1001684:	1009883a 	mov	r4,r2
 1001688:	180b883a 	mov	r5,r3
 100168c:	100e9880 	call	100e988 <__truncdfsf2>
 1001690:	1007883a 	mov	r3,r2
 1001694:	e0fff815 	stw	r3,-32(fp)
	ain3 = (float)IORD(VARSET_BASE, O_VAR_I2C_RDATA_4)*3.3/8388608.0;
 1001698:	00808034 	movhi	r2,512
 100169c:	10884004 	addi	r2,r2,8448
 10016a0:	10800037 	ldwio	r2,0(r2)
 10016a4:	1009883a 	mov	r4,r2
 10016a8:	100c2800 	call	100c280 <__floatsisf>
 10016ac:	1007883a 	mov	r3,r2
 10016b0:	1809883a 	mov	r4,r3
 10016b4:	100e8780 	call	100e878 <__extendsfdf2>
 10016b8:	1011883a 	mov	r8,r2
 10016bc:	1813883a 	mov	r9,r3
 10016c0:	019999b4 	movhi	r6,26214
 10016c4:	31999984 	addi	r6,r6,26214
 10016c8:	01d002b4 	movhi	r7,16394
 10016cc:	39d99984 	addi	r7,r7,26214
 10016d0:	4009883a 	mov	r4,r8
 10016d4:	480b883a 	mov	r5,r9
 10016d8:	100d7100 	call	100d710 <__muldf3>
 10016dc:	1009883a 	mov	r4,r2
 10016e0:	180b883a 	mov	r5,r3
 10016e4:	2005883a 	mov	r2,r4
 10016e8:	2807883a 	mov	r3,r5
 10016ec:	000d883a 	mov	r6,zero
 10016f0:	01d05834 	movhi	r7,16736
 10016f4:	1009883a 	mov	r4,r2
 10016f8:	180b883a 	mov	r5,r3
 10016fc:	100cd400 	call	100cd40 <__divdf3>
 1001700:	1009883a 	mov	r4,r2
 1001704:	180b883a 	mov	r5,r3
 1001708:	2005883a 	mov	r2,r4
 100170c:	2807883a 	mov	r3,r5
 1001710:	1009883a 	mov	r4,r2
 1001714:	180b883a 	mov	r5,r3
 1001718:	100e9880 	call	100e988 <__truncdfsf2>
 100171c:	1007883a 	mov	r3,r2
 1001720:	e0fff915 	stw	r3,-28(fp)

//	printf("%f, %f, %f\n", ax, ay, az);
	// uart_printf("%f\n", ain0);
	// uart_printf("%f, %f\n", ain0, ain1);
	// uart_printf("%f, %f, %f\n", ain0, ain1, ain2);
	DEBUG_PRINT("%f, %f, %f, %f\n", ain0, ain1, ain2, ain3);
 1001724:	e13ff617 	ldw	r4,-40(fp)
 1001728:	100e8780 	call	100e878 <__extendsfdf2>
 100172c:	1029883a 	mov	r20,r2
 1001730:	182b883a 	mov	r21,r3
 1001734:	e13ff717 	ldw	r4,-36(fp)
 1001738:	100e8780 	call	100e878 <__extendsfdf2>
 100173c:	1025883a 	mov	r18,r2
 1001740:	1827883a 	mov	r19,r3
 1001744:	e13ff817 	ldw	r4,-32(fp)
 1001748:	100e8780 	call	100e878 <__extendsfdf2>
 100174c:	1021883a 	mov	r16,r2
 1001750:	1823883a 	mov	r17,r3
 1001754:	e13ff917 	ldw	r4,-28(fp)
 1001758:	100e8780 	call	100e878 <__extendsfdf2>
 100175c:	1009883a 	mov	r4,r2
 1001760:	180b883a 	mov	r5,r3
 1001764:	d9000315 	stw	r4,12(sp)
 1001768:	d9400415 	stw	r5,16(sp)
 100176c:	dc000115 	stw	r16,4(sp)
 1001770:	dc400215 	stw	r17,8(sp)
 1001774:	dcc00015 	stw	r19,0(sp)
 1001778:	900f883a 	mov	r7,r18
 100177c:	a00b883a 	mov	r5,r20
 1001780:	a80d883a 	mov	r6,r21
 1001784:	010040b4 	movhi	r4,258
 1001788:	21058e04 	addi	r4,r4,5688
 100178c:	1002ea00 	call	1002ea0 <uart_printf_dbg>
	// uart_printf("%f, %f, %f, %f\n", ain0, ain1, ain2, ain3);
}
 1001790:	0001883a 	nop
 1001794:	e6fffa04 	addi	sp,fp,-24
 1001798:	dfc00717 	ldw	ra,28(sp)
 100179c:	df000617 	ldw	fp,24(sp)
 10017a0:	dd400517 	ldw	r21,20(sp)
 10017a4:	dd000417 	ldw	r20,16(sp)
 10017a8:	dcc00317 	ldw	r19,12(sp)
 10017ac:	dc800217 	ldw	r18,8(sp)
 10017b0:	dc400117 	ldw	r17,4(sp)
 10017b4:	dc000017 	ldw	r16,0(sp)
 10017b8:	dec00804 	addi	sp,sp,32
 10017bc:	f800283a 	ret

010017c0 <I2C_sm_start_ADS122C04_TEMP>:

/***********mid level definition */

void I2C_sm_start_ADS122C04_TEMP()
{
 10017c0:	defffd04 	addi	sp,sp,-12
 10017c4:	dfc00215 	stw	ra,8(sp)
 10017c8:	df000115 	stw	fp,4(sp)
 10017cc:	df000104 	addi	fp,sp,4
	alt_u8 dly = 25;
 10017d0:	00800644 	movi	r2,25
 10017d4:	e0bfff05 	stb	r2,-4(fp)

	I2C_sm_set_enable_ADS122C04_TEMP();
 10017d8:	1001be00 	call	1001be0 <I2C_sm_set_enable_ADS122C04_TEMP>
	while(dly--){}
 10017dc:	0001883a 	nop
 10017e0:	e0bfff03 	ldbu	r2,-4(fp)
 10017e4:	10ffffc4 	addi	r3,r2,-1
 10017e8:	e0ffff05 	stb	r3,-4(fp)
 10017ec:	10803fcc 	andi	r2,r2,255
 10017f0:	103ffb1e 	bne	r2,zero,10017e0 <__alt_mem_epcs+0xff0007e0>
	I2C_sm_set_disable_ADS122C04_TEMP();
 10017f4:	1001c240 	call	1001c24 <I2C_sm_set_disable_ADS122C04_TEMP>
}
 10017f8:	0001883a 	nop
 10017fc:	e037883a 	mov	sp,fp
 1001800:	dfc00117 	ldw	ra,4(sp)
 1001804:	df000017 	ldw	fp,0(sp)
 1001808:	dec00204 	addi	sp,sp,8
 100180c:	f800283a 	ret

01001810 <I2C_op_mode_sel_ADS122C04_TEMP>:

void I2C_op_mode_sel_ADS122C04_TEMP(alt_u8 mode)
{
 1001810:	defffd04 	addi	sp,sp,-12
 1001814:	df000215 	stw	fp,8(sp)
 1001818:	df000204 	addi	fp,sp,8
 100181c:	2005883a 	mov	r2,r4
 1001820:	e0bfff05 	stb	r2,-4(fp)
	alt_32 old = IORD(VARSET_BASE, O_VAR_I2C_CTRL);
 1001824:	00808034 	movhi	r2,512
 1001828:	10881004 	addi	r2,r2,8256
 100182c:	10800037 	ldwio	r2,0(r2)
 1001830:	e0bffe15 	stw	r2,-8(fp)

	IOWR(VARSET_BASE, O_VAR_I2C_CTRL, (old & 0xFFFFFFF1) | (mode<<ctrl_op_mode_pos));
 1001834:	e0fffe17 	ldw	r3,-8(fp)
 1001838:	00bffc44 	movi	r2,-15
 100183c:	1886703a 	and	r3,r3,r2
 1001840:	e0bfff03 	ldbu	r2,-4(fp)
 1001844:	1085883a 	add	r2,r2,r2
 1001848:	1884b03a 	or	r2,r3,r2
 100184c:	1007883a 	mov	r3,r2
 1001850:	00808034 	movhi	r2,512
 1001854:	10881004 	addi	r2,r2,8256
 1001858:	10c00035 	stwio	r3,0(r2)
}
 100185c:	0001883a 	nop
 1001860:	e037883a 	mov	sp,fp
 1001864:	df000017 	ldw	fp,0(sp)
 1001868:	dec00104 	addi	sp,sp,4
 100186c:	f800283a 	ret

01001870 <I2C_clock_rate_sel_ADS122C04_TEMP>:

void I2C_clock_rate_sel_ADS122C04_TEMP(alt_u8 rate)
{
 1001870:	defffd04 	addi	sp,sp,-12
 1001874:	df000215 	stw	fp,8(sp)
 1001878:	df000204 	addi	fp,sp,8
 100187c:	2005883a 	mov	r2,r4
 1001880:	e0bfff05 	stb	r2,-4(fp)
	alt_32 old = IORD(VARSET_BASE, O_VAR_I2C_CTRL);
 1001884:	00808034 	movhi	r2,512
 1001888:	10881004 	addi	r2,r2,8256
 100188c:	10800037 	ldwio	r2,0(r2)
 1001890:	e0bffe15 	stw	r2,-8(fp)

	IOWR(VARSET_BASE, O_VAR_I2C_CTRL, (old & 0xFFFFFF8F) | (rate<<ctrl_clk_rate_pos));
 1001894:	e0fffe17 	ldw	r3,-8(fp)
 1001898:	00bfe3c4 	movi	r2,-113
 100189c:	1884703a 	and	r2,r3,r2
 10018a0:	e0ffff03 	ldbu	r3,-4(fp)
 10018a4:	1806913a 	slli	r3,r3,4
 10018a8:	10c4b03a 	or	r2,r2,r3
 10018ac:	1007883a 	mov	r3,r2
 10018b0:	00808034 	movhi	r2,512
 10018b4:	10881004 	addi	r2,r2,8256
 10018b8:	10c00035 	stwio	r3,0(r2)
}
 10018bc:	0001883a 	nop
 10018c0:	e037883a 	mov	sp,fp
 10018c4:	df000017 	ldw	fp,0(sp)
 10018c8:	dec00104 	addi	sp,sp,4
 10018cc:	f800283a 	ret

010018d0 <I2C_write_ADS122C04_TEMP_cmd>:

void I2C_write_ADS122C04_TEMP_cmd(alt_u8 reg_addr)
{
 10018d0:	defffc04 	addi	sp,sp,-16
 10018d4:	dfc00315 	stw	ra,12(sp)
 10018d8:	df000215 	stw	fp,8(sp)
 10018dc:	df000204 	addi	fp,sp,8
 10018e0:	2005883a 	mov	r2,r4
 10018e4:	e0bfff05 	stb	r2,-4(fp)
	// printf("Start write cmd\n");
	// setting mode to cpu write register
	I2C_op_mode_sel_ADS122C04_TEMP(CPU_CMD);
 10018e8:	010000c4 	movi	r4,3
 10018ec:	10018100 	call	1001810 <I2C_op_mode_sel_ADS122C04_TEMP>
	// Set I2C device address
	I2C_set_device_addr_ADS122C04_TEMP(I2C_DEV_ADDR);
 10018f0:	01001144 	movi	r4,69
 10018f4:	1001ae00 	call	1001ae0 <I2C_set_device_addr_ADS122C04_TEMP>
	// Set the target register address for read or write operations
	IOWR(VARSET_BASE, O_VAR_REG_ADDR, reg_addr);
 10018f8:	e0ffff03 	ldbu	r3,-4(fp)
 10018fc:	00808034 	movhi	r2,512
 1001900:	10880e04 	addi	r2,r2,8248
 1001904:	10c00035 	stwio	r3,0(r2)

	// start the I2C SM 
	I2C_sm_start_ADS122C04_TEMP();
 1001908:	10017c00 	call	10017c0 <I2C_sm_start_ADS122C04_TEMP>
	// Wait for the I2C SM to complete the operation
	int timeout = 100000;
 100190c:	008000b4 	movhi	r2,2
 1001910:	10a1a804 	addi	r2,r2,-31072
 1001914:	e0bffe15 	stw	r2,-8(fp)
	while( !I2C_sm_read_finish_ADS122C04_TEMP() && timeout-- > 0 );
 1001918:	0001883a 	nop
 100191c:	1001cd00 	call	1001cd0 <I2C_sm_read_finish_ADS122C04_TEMP>
 1001920:	10803fcc 	andi	r2,r2,255
 1001924:	1000041e 	bne	r2,zero,1001938 <I2C_write_ADS122C04_TEMP_cmd+0x68>
 1001928:	e0bffe17 	ldw	r2,-8(fp)
 100192c:	10ffffc4 	addi	r3,r2,-1
 1001930:	e0fffe15 	stw	r3,-8(fp)
 1001934:	00bff916 	blt	zero,r2,100191c <__alt_mem_epcs+0xff00091c>
	if (timeout <= 0) {
 1001938:	e0bffe17 	ldw	r2,-8(fp)
 100193c:	00800416 	blt	zero,r2,1001950 <I2C_write_ADS122C04_TEMP_cmd+0x80>
        printf("ADS122C04 write timeout!\n");
 1001940:	010040b4 	movhi	r4,258
 1001944:	21059204 	addi	r4,r4,5704
 1001948:	100f7c40 	call	100f7c4 <puts>
        return;
 100194c:	00000106 	br	1001954 <I2C_write_ADS122C04_TEMP_cmd+0x84>
    }
	I2C_sm_set_finish_clear_pulse_ADS122C04_TEMP();
 1001950:	1001c680 	call	1001c68 <I2C_sm_set_finish_clear_pulse_ADS122C04_TEMP>
	// printf("End write cmd\n");
}
 1001954:	e037883a 	mov	sp,fp
 1001958:	dfc00117 	ldw	ra,4(sp)
 100195c:	df000017 	ldw	fp,0(sp)
 1001960:	dec00204 	addi	sp,sp,8
 1001964:	f800283a 	ret

01001968 <I2C_write_ADS122C04_TEMP_register>:

void I2C_write_ADS122C04_TEMP_register(alt_u8 reg_addr, alt_u8 data)
{
 1001968:	defffb04 	addi	sp,sp,-20
 100196c:	dfc00415 	stw	ra,16(sp)
 1001970:	df000315 	stw	fp,12(sp)
 1001974:	df000304 	addi	fp,sp,12
 1001978:	2007883a 	mov	r3,r4
 100197c:	2805883a 	mov	r2,r5
 1001980:	e0fffe05 	stb	r3,-8(fp)
 1001984:	e0bfff05 	stb	r2,-4(fp)
	// printf("Start write reg\n");
	// setting mode to cpu write register
	I2C_op_mode_sel_ADS122C04_TEMP(CPU_WREG);
 1001988:	0009883a 	mov	r4,zero
 100198c:	10018100 	call	1001810 <I2C_op_mode_sel_ADS122C04_TEMP>
	// Set I2C device address
	I2C_set_device_addr_ADS122C04_TEMP(I2C_DEV_ADDR);
 1001990:	01001144 	movi	r4,69
 1001994:	1001ae00 	call	1001ae0 <I2C_set_device_addr_ADS122C04_TEMP>
	// Set the target register address for read or write operations
	IOWR(VARSET_BASE, O_VAR_REG_ADDR, reg_addr);
 1001998:	e0fffe03 	ldbu	r3,-8(fp)
 100199c:	00808034 	movhi	r2,512
 10019a0:	10880e04 	addi	r2,r2,8248
 10019a4:	10c00035 	stwio	r3,0(r2)

	// Set the data value to be written to the target register
	IOWR(VARSET_BASE, O_VAR_W_DATA, data);
 10019a8:	e0ffff03 	ldbu	r3,-4(fp)
 10019ac:	00808034 	movhi	r2,512
 10019b0:	10880f04 	addi	r2,r2,8252
 10019b4:	10c00035 	stwio	r3,0(r2)
	// start the I2C SM 
	I2C_sm_start_ADS122C04_TEMP();
 10019b8:	10017c00 	call	10017c0 <I2C_sm_start_ADS122C04_TEMP>
	// Wait for the I2C SM to complete the operation
	int timeout = 100000;
 10019bc:	008000b4 	movhi	r2,2
 10019c0:	10a1a804 	addi	r2,r2,-31072
 10019c4:	e0bffd15 	stw	r2,-12(fp)
	while( !I2C_sm_read_finish_ADS122C04_TEMP() && timeout-- > 0 );
 10019c8:	0001883a 	nop
 10019cc:	1001cd00 	call	1001cd0 <I2C_sm_read_finish_ADS122C04_TEMP>
 10019d0:	10803fcc 	andi	r2,r2,255
 10019d4:	1000041e 	bne	r2,zero,10019e8 <I2C_write_ADS122C04_TEMP_register+0x80>
 10019d8:	e0bffd17 	ldw	r2,-12(fp)
 10019dc:	10ffffc4 	addi	r3,r2,-1
 10019e0:	e0fffd15 	stw	r3,-12(fp)
 10019e4:	00bff916 	blt	zero,r2,10019cc <__alt_mem_epcs+0xff0009cc>
	if (timeout <= 0) {
 10019e8:	e0bffd17 	ldw	r2,-12(fp)
 10019ec:	00800416 	blt	zero,r2,1001a00 <I2C_write_ADS122C04_TEMP_register+0x98>
        printf("ADS122C04 write timeout!\n");
 10019f0:	010040b4 	movhi	r4,258
 10019f4:	21059204 	addi	r4,r4,5704
 10019f8:	100f7c40 	call	100f7c4 <puts>
        return;
 10019fc:	00000106 	br	1001a04 <I2C_write_ADS122C04_TEMP_register+0x9c>
    }
	I2C_sm_set_finish_clear_pulse_ADS122C04_TEMP();
 1001a00:	1001c680 	call	1001c68 <I2C_sm_set_finish_clear_pulse_ADS122C04_TEMP>
	// printf("End write reg\n");
}
 1001a04:	e037883a 	mov	sp,fp
 1001a08:	dfc00117 	ldw	ra,4(sp)
 1001a0c:	df000017 	ldw	fp,0(sp)
 1001a10:	dec00204 	addi	sp,sp,8
 1001a14:	f800283a 	ret

01001a18 <I2C_read_ADS122C04_TEMP_register>:

alt_u8 I2C_read_ADS122C04_TEMP_register(alt_u8 reg_addr, alt_u8 print)
{
 1001a18:	defffb04 	addi	sp,sp,-20
 1001a1c:	dfc00415 	stw	ra,16(sp)
 1001a20:	df000315 	stw	fp,12(sp)
 1001a24:	df000304 	addi	fp,sp,12
 1001a28:	2007883a 	mov	r3,r4
 1001a2c:	2805883a 	mov	r2,r5
 1001a30:	e0fffe05 	stb	r3,-8(fp)
 1001a34:	e0bfff05 	stb	r2,-4(fp)
	alt_u8 rt;

	// setting mode to cpu read register
	I2C_op_mode_sel_ADS122C04_TEMP(CPU_RREG);
 1001a38:	01000044 	movi	r4,1
 1001a3c:	10018100 	call	1001810 <I2C_op_mode_sel_ADS122C04_TEMP>
	// Set I2C device address
	I2C_set_device_addr_ADS122C04_TEMP(I2C_DEV_ADDR);
 1001a40:	01001144 	movi	r4,69
 1001a44:	1001ae00 	call	1001ae0 <I2C_set_device_addr_ADS122C04_TEMP>
	// Set the target register address for read or write operations
	IOWR(VARSET_BASE, O_VAR_REG_ADDR, reg_addr);
 1001a48:	e0fffe03 	ldbu	r3,-8(fp)
 1001a4c:	00808034 	movhi	r2,512
 1001a50:	10880e04 	addi	r2,r2,8248
 1001a54:	10c00035 	stwio	r3,0(r2)

	// start the I2C SM 
	I2C_sm_start_ADS122C04_TEMP();
 1001a58:	10017c00 	call	10017c0 <I2C_sm_start_ADS122C04_TEMP>
	// Wait for the I2C SM to complete the operation
	while( !I2C_sm_read_finish_ADS122C04_TEMP()){}
 1001a5c:	0001883a 	nop
 1001a60:	1001cd00 	call	1001cd0 <I2C_sm_read_finish_ADS122C04_TEMP>
 1001a64:	10803fcc 	andi	r2,r2,255
 1001a68:	103ffd26 	beq	r2,zero,1001a60 <__alt_mem_epcs+0xff000a60>
	// Retrieve the data read from the specified register
	rt = IORD(VARSET_BASE, O_VAR_I2C_RDATA_1);
 1001a6c:	00808034 	movhi	r2,512
 1001a70:	10883d04 	addi	r2,r2,8436
 1001a74:	10800037 	ldwio	r2,0(r2)
 1001a78:	e0bffd05 	stb	r2,-12(fp)

	I2C_sm_set_finish_clear_pulse_ADS122C04_TEMP();
 1001a7c:	1001c680 	call	1001c68 <I2C_sm_set_finish_clear_pulse_ADS122C04_TEMP>

	// Print the register address and its read value if 'print' is enabled
	if(print) 	DEBUG_PRINT("reg:%x, value:%x\n", reg_addr, rt);
 1001a80:	e0bfff03 	ldbu	r2,-4(fp)
 1001a84:	10000726 	beq	r2,zero,1001aa4 <I2C_read_ADS122C04_TEMP_register+0x8c>
 1001a88:	e0bffe03 	ldbu	r2,-8(fp)
 1001a8c:	e0fffd03 	ldbu	r3,-12(fp)
 1001a90:	180d883a 	mov	r6,r3
 1001a94:	100b883a 	mov	r5,r2
 1001a98:	010040b4 	movhi	r4,258
 1001a9c:	21059904 	addi	r4,r4,5732
 1001aa0:	1002ea00 	call	1002ea0 <uart_printf_dbg>
	if(print) 	printf("reg:%x, value:%x\n", reg_addr, rt);
 1001aa4:	e0bfff03 	ldbu	r2,-4(fp)
 1001aa8:	10000726 	beq	r2,zero,1001ac8 <I2C_read_ADS122C04_TEMP_register+0xb0>
 1001aac:	e0bffe03 	ldbu	r2,-8(fp)
 1001ab0:	e0fffd03 	ldbu	r3,-12(fp)
 1001ab4:	180d883a 	mov	r6,r3
 1001ab8:	100b883a 	mov	r5,r2
 1001abc:	010040b4 	movhi	r4,258
 1001ac0:	21059904 	addi	r4,r4,5732
 1001ac4:	100f6c80 	call	100f6c8 <printf>
	

	return rt;
 1001ac8:	e0bffd03 	ldbu	r2,-12(fp)
}
 1001acc:	e037883a 	mov	sp,fp
 1001ad0:	dfc00117 	ldw	ra,4(sp)
 1001ad4:	df000017 	ldw	fp,0(sp)
 1001ad8:	dec00204 	addi	sp,sp,8
 1001adc:	f800283a 	ret

01001ae0 <I2C_set_device_addr_ADS122C04_TEMP>:

void I2C_set_device_addr_ADS122C04_TEMP(alt_u8 dev)
{
 1001ae0:	defffe04 	addi	sp,sp,-8
 1001ae4:	df000115 	stw	fp,4(sp)
 1001ae8:	df000104 	addi	fp,sp,4
 1001aec:	2005883a 	mov	r2,r4
 1001af0:	e0bfff05 	stb	r2,-4(fp)
	IOWR(VARSET_BASE, O_VAR_DEV_ADDR, dev);
 1001af4:	e0ffff03 	ldbu	r3,-4(fp)
 1001af8:	00808034 	movhi	r2,512
 1001afc:	10880d04 	addi	r2,r2,8244
 1001b00:	10c00035 	stwio	r3,0(r2)
}
 1001b04:	0001883a 	nop
 1001b08:	e037883a 	mov	sp,fp
 1001b0c:	df000017 	ldw	fp,0(sp)
 1001b10:	dec00104 	addi	sp,sp,4
 1001b14:	f800283a 	ret

01001b18 <set_bit_safe_ADS122C04_TEMP>:

/***********low level definition */

/*** Set the bit value at the spcified position without altering the values at other positions. */
 alt_u32 set_bit_safe_ADS122C04_TEMP(alt_u32 old_addr,  alt_u8 pos)
{
 1001b18:	defffc04 	addi	sp,sp,-16
 1001b1c:	df000315 	stw	fp,12(sp)
 1001b20:	df000304 	addi	fp,sp,12
 1001b24:	e13ffe15 	stw	r4,-8(fp)
 1001b28:	2805883a 	mov	r2,r5
 1001b2c:	e0bfff05 	stb	r2,-4(fp)
	// First, read the register value.
	alt_u32 old = IORD(VARSET_BASE, old_addr);
 1001b30:	e0bffe17 	ldw	r2,-8(fp)
 1001b34:	1085883a 	add	r2,r2,r2
 1001b38:	1085883a 	add	r2,r2,r2
 1001b3c:	1007883a 	mov	r3,r2
 1001b40:	00808034 	movhi	r2,512
 1001b44:	10880004 	addi	r2,r2,8192
 1001b48:	1885883a 	add	r2,r3,r2
 1001b4c:	10800037 	ldwio	r2,0(r2)
 1001b50:	e0bffd15 	stw	r2,-12(fp)

	// Returns the register value with the bit set at the specified position.
	return (old | (alt_32)(1<<pos)); 
 1001b54:	e0bfff03 	ldbu	r2,-4(fp)
 1001b58:	00c00044 	movi	r3,1
 1001b5c:	1884983a 	sll	r2,r3,r2
 1001b60:	1007883a 	mov	r3,r2
 1001b64:	e0bffd17 	ldw	r2,-12(fp)
 1001b68:	1884b03a 	or	r2,r3,r2
}
 1001b6c:	e037883a 	mov	sp,fp
 1001b70:	df000017 	ldw	fp,0(sp)
 1001b74:	dec00104 	addi	sp,sp,4
 1001b78:	f800283a 	ret

01001b7c <clear_bit_safe_ADS122C04_TEMP>:

/*** Clear the bit value at the spcified position without altering the values at other positions. */
 alt_u32 clear_bit_safe_ADS122C04_TEMP(alt_u32 old_addr,  alt_u8 pos)
{
 1001b7c:	defffc04 	addi	sp,sp,-16
 1001b80:	df000315 	stw	fp,12(sp)
 1001b84:	df000304 	addi	fp,sp,12
 1001b88:	e13ffe15 	stw	r4,-8(fp)
 1001b8c:	2805883a 	mov	r2,r5
 1001b90:	e0bfff05 	stb	r2,-4(fp)
	// First, read the register value.
	alt_u32 old = IORD(VARSET_BASE, old_addr);
 1001b94:	e0bffe17 	ldw	r2,-8(fp)
 1001b98:	1085883a 	add	r2,r2,r2
 1001b9c:	1085883a 	add	r2,r2,r2
 1001ba0:	1007883a 	mov	r3,r2
 1001ba4:	00808034 	movhi	r2,512
 1001ba8:	10880004 	addi	r2,r2,8192
 1001bac:	1885883a 	add	r2,r3,r2
 1001bb0:	10800037 	ldwio	r2,0(r2)
 1001bb4:	e0bffd15 	stw	r2,-12(fp)

	// Returns the register value with the bit cleared at the specified position.
	return (old & ~((alt_32)(1<<pos))); 
 1001bb8:	e0bfff03 	ldbu	r2,-4(fp)
 1001bbc:	00c00044 	movi	r3,1
 1001bc0:	1884983a 	sll	r2,r3,r2
 1001bc4:	0086303a 	nor	r3,zero,r2
 1001bc8:	e0bffd17 	ldw	r2,-12(fp)
 1001bcc:	1884703a 	and	r2,r3,r2
}
 1001bd0:	e037883a 	mov	sp,fp
 1001bd4:	df000017 	ldw	fp,0(sp)
 1001bd8:	dec00104 	addi	sp,sp,4
 1001bdc:	f800283a 	ret

01001be0 <I2C_sm_set_enable_ADS122C04_TEMP>:

/*** Starts the state machine when it is in the IDLE state. */
 void I2C_sm_set_enable_ADS122C04_TEMP()
{
 1001be0:	defffe04 	addi	sp,sp,-8
 1001be4:	dfc00115 	stw	ra,4(sp)
 1001be8:	df000015 	stw	fp,0(sp)
 1001bec:	d839883a 	mov	fp,sp
	IOWR(VARSET_BASE, O_VAR_I2C_CTRL,  set_bit_safe_ADS122C04_TEMP(O_VAR_I2C_CTRL, ctrl_en_pos));
 1001bf0:	000b883a 	mov	r5,zero
 1001bf4:	01000404 	movi	r4,16
 1001bf8:	1001b180 	call	1001b18 <set_bit_safe_ADS122C04_TEMP>
 1001bfc:	1007883a 	mov	r3,r2
 1001c00:	00808034 	movhi	r2,512
 1001c04:	10881004 	addi	r2,r2,8256
 1001c08:	10c00035 	stwio	r3,0(r2)
}
 1001c0c:	0001883a 	nop
 1001c10:	e037883a 	mov	sp,fp
 1001c14:	dfc00117 	ldw	ra,4(sp)
 1001c18:	df000017 	ldw	fp,0(sp)
 1001c1c:	dec00204 	addi	sp,sp,8
 1001c20:	f800283a 	ret

01001c24 <I2C_sm_set_disable_ADS122C04_TEMP>:

 void I2C_sm_set_disable_ADS122C04_TEMP()
{
 1001c24:	defffe04 	addi	sp,sp,-8
 1001c28:	dfc00115 	stw	ra,4(sp)
 1001c2c:	df000015 	stw	fp,0(sp)
 1001c30:	d839883a 	mov	fp,sp
	IOWR(VARSET_BASE, O_VAR_I2C_CTRL, clear_bit_safe_ADS122C04_TEMP(O_VAR_I2C_CTRL, ctrl_en_pos) );
 1001c34:	000b883a 	mov	r5,zero
 1001c38:	01000404 	movi	r4,16
 1001c3c:	1001b7c0 	call	1001b7c <clear_bit_safe_ADS122C04_TEMP>
 1001c40:	1007883a 	mov	r3,r2
 1001c44:	00808034 	movhi	r2,512
 1001c48:	10881004 	addi	r2,r2,8256
 1001c4c:	10c00035 	stwio	r3,0(r2)
}
 1001c50:	0001883a 	nop
 1001c54:	e037883a 	mov	sp,fp
 1001c58:	dfc00117 	ldw	ra,4(sp)
 1001c5c:	df000017 	ldw	fp,0(sp)
 1001c60:	dec00204 	addi	sp,sp,8
 1001c64:	f800283a 	ret

01001c68 <I2C_sm_set_finish_clear_pulse_ADS122C04_TEMP>:

void I2C_sm_set_finish_clear_pulse_ADS122C04_TEMP() 
{
 1001c68:	defffe04 	addi	sp,sp,-8
 1001c6c:	dfc00115 	stw	ra,4(sp)
 1001c70:	df000015 	stw	fp,0(sp)
 1001c74:	d839883a 	mov	fp,sp
	IOWR(VARSET_BASE, O_VAR_I2C_CTRL,  set_bit_safe(O_VAR_I2C_CTRL, ctrl_finish_clear_pos));
 1001c78:	014001c4 	movi	r5,7
 1001c7c:	01000404 	movi	r4,16
 1001c80:	1009a480 	call	1009a48 <set_bit_safe>
 1001c84:	1007883a 	mov	r3,r2
 1001c88:	00808034 	movhi	r2,512
 1001c8c:	10881004 	addi	r2,r2,8256
 1001c90:	10c00035 	stwio	r3,0(r2)
	usleep(1);
 1001c94:	01000044 	movi	r4,1
 1001c98:	101dc480 	call	101dc48 <usleep>
	IOWR(VARSET_BASE, O_VAR_I2C_CTRL,  clear_bit_safe(O_VAR_I2C_CTRL, ctrl_finish_clear_pos));
 1001c9c:	014001c4 	movi	r5,7
 1001ca0:	01000404 	movi	r4,16
 1001ca4:	1009aac0 	call	1009aac <clear_bit_safe>
 1001ca8:	1007883a 	mov	r3,r2
 1001cac:	00808034 	movhi	r2,512
 1001cb0:	10881004 	addi	r2,r2,8256
 1001cb4:	10c00035 	stwio	r3,0(r2)
}
 1001cb8:	0001883a 	nop
 1001cbc:	e037883a 	mov	sp,fp
 1001cc0:	dfc00117 	ldw	ra,4(sp)
 1001cc4:	df000017 	ldw	fp,0(sp)
 1001cc8:	dec00204 	addi	sp,sp,8
 1001ccc:	f800283a 	ret

01001cd0 <I2C_sm_read_finish_ADS122C04_TEMP>:
// }


/*** Returns High when the state machine has finished. */
 alt_u8 I2C_sm_read_finish_ADS122C04_TEMP()
{
 1001cd0:	defffe04 	addi	sp,sp,-8
 1001cd4:	df000115 	stw	fp,4(sp)
 1001cd8:	df000104 	addi	fp,sp,4
	alt_u8 finish=0;
 1001cdc:	e03fff05 	stb	zero,-4(fp)

	finish = (alt_u8)(IORD(VARSET_BASE, O_VAR_I2C_STATUS)>>status_finish_pos) & 0x01;
 1001ce0:	00808034 	movhi	r2,512
 1001ce4:	10883c04 	addi	r2,r2,8432
 1001ce8:	10800037 	ldwio	r2,0(r2)
 1001cec:	1005d07a 	srai	r2,r2,1
 1001cf0:	1080004c 	andi	r2,r2,1
 1001cf4:	e0bfff05 	stb	r2,-4(fp)

	return finish;
 1001cf8:	e0bfff03 	ldbu	r2,-4(fp)
}
 1001cfc:	e037883a 	mov	sp,fp
 1001d00:	df000017 	ldw	fp,0(sp)
 1001d04:	dec00104 	addi	sp,sp,4
 1001d08:	f800283a 	ret

01001d0c <get_i2c_freq_name>:
    {CLK_781K,  "781 KHz"},
    {CLK_1562K, "1.56 MHz"},
    {CLK_3125K, "3.12 MHz"}
};

static const char* get_i2c_freq_name(alt_u8 rate) {
 1001d0c:	defffd04 	addi	sp,sp,-12
 1001d10:	df000215 	stw	fp,8(sp)
 1001d14:	df000204 	addi	fp,sp,8
 1001d18:	2005883a 	mov	r2,r4
 1001d1c:	e0bfff05 	stb	r2,-4(fp)
    int i;
    for (i = 0; i < sizeof(i2c_clk_table)/sizeof(i2c_clk_table[0]); i++) {
 1001d20:	e03ffe15 	stw	zero,-8(fp)
 1001d24:	00001406 	br	1001d78 <get_i2c_freq_name+0x6c>
        if (i2c_clk_table[i].reg_val == rate) {
 1001d28:	008040b4 	movhi	r2,258
 1001d2c:	1085aa04 	addi	r2,r2,5800
 1001d30:	e0fffe17 	ldw	r3,-8(fp)
 1001d34:	180690fa 	slli	r3,r3,3
 1001d38:	10c5883a 	add	r2,r2,r3
 1001d3c:	10800003 	ldbu	r2,0(r2)
 1001d40:	10c03fcc 	andi	r3,r2,255
 1001d44:	e0bfff03 	ldbu	r2,-4(fp)
 1001d48:	1880081e 	bne	r3,r2,1001d6c <get_i2c_freq_name+0x60>
            return i2c_clk_table[i].freq_str;
 1001d4c:	008040b4 	movhi	r2,258
 1001d50:	1085aa04 	addi	r2,r2,5800
 1001d54:	e0fffe17 	ldw	r3,-8(fp)
 1001d58:	180690fa 	slli	r3,r3,3
 1001d5c:	10c5883a 	add	r2,r2,r3
 1001d60:	10800104 	addi	r2,r2,4
 1001d64:	10800017 	ldw	r2,0(r2)
 1001d68:	00000806 	br	1001d8c <get_i2c_freq_name+0x80>
    {CLK_3125K, "3.12 MHz"}
};

static const char* get_i2c_freq_name(alt_u8 rate) {
    int i;
    for (i = 0; i < sizeof(i2c_clk_table)/sizeof(i2c_clk_table[0]); i++) {
 1001d6c:	e0bffe17 	ldw	r2,-8(fp)
 1001d70:	10800044 	addi	r2,r2,1
 1001d74:	e0bffe15 	stw	r2,-8(fp)
 1001d78:	e0bffe17 	ldw	r2,-8(fp)
 1001d7c:	10800170 	cmpltui	r2,r2,5
 1001d80:	103fe91e 	bne	r2,zero,1001d28 <__alt_mem_epcs+0xff000d28>
        if (i2c_clk_table[i].reg_val == rate) {
            return i2c_clk_table[i].freq_str;
        }
    }
    return "Unknown Speed";
 1001d84:	008040b4 	movhi	r2,258
 1001d88:	1085b404 	addi	r2,r2,5840
}
 1001d8c:	e037883a 	mov	sp,fp
 1001d90:	df000017 	ldw	fp,0(sp)
 1001d94:	dec00104 	addi	sp,sp,4
 1001d98:	f800283a 	ret

01001d9c <init_ASM330LHHX>:
    
//     DEBUG_PRINT("ASM330LHHX Init Done and switched to HW mode.\n");
// }

void init_ASM330LHHX()
{
 1001d9c:	deffe804 	addi	sp,sp,-96
 1001da0:	dfc01715 	stw	ra,92(sp)
 1001da4:	df001615 	stw	fp,88(sp)
 1001da8:	df001604 	addi	fp,sp,88
    DEBUG_PRINT("\n==============================================\n");
 1001dac:	010040b4 	movhi	r4,258
 1001db0:	2105b804 	addi	r4,r4,5856
 1001db4:	1002ea00 	call	1002ea0 <uart_printf_dbg>
    DEBUG_PRINT("     ASM330LHHX Sensor Initialization         \n");
 1001db8:	010040b4 	movhi	r4,258
 1001dbc:	2105c504 	addi	r4,r4,5908
 1001dc0:	1002ea00 	call	1002ea0 <uart_printf_dbg>
    DEBUG_PRINT("==============================================\n");
 1001dc4:	010040b4 	movhi	r4,258
 1001dc8:	2105d104 	addi	r4,r4,5956
 1001dcc:	1002ea00 	call	1002ea0 <uart_printf_dbg>

    //  I2C 
	alt_u8 I2C_CLK_rate = CLK_195K;
 1001dd0:	e03fec05 	stb	zero,-80(fp)

    I2C_clock_rate_sel_ASM330LHHX(I2C_CLK_rate);
 1001dd4:	e0bfec03 	ldbu	r2,-80(fp)
 1001dd8:	1009883a 	mov	r4,r2
 1001ddc:	10026500 	call	1002650 <I2C_clock_rate_sel_ASM330LHHX>

	DEBUG_PRINT("[ INFO ] I2C Clock Rate set to: %s (Val: %d)\n", 
 1001de0:	e0bfec03 	ldbu	r2,-80(fp)
 1001de4:	1009883a 	mov	r4,r2
 1001de8:	1001d0c0 	call	1001d0c <get_i2c_freq_name>
 1001dec:	1007883a 	mov	r3,r2
 1001df0:	e0bfec03 	ldbu	r2,-80(fp)
 1001df4:	100d883a 	mov	r6,r2
 1001df8:	180b883a 	mov	r5,r3
 1001dfc:	010040b4 	movhi	r4,258
 1001e00:	2105dd04 	addi	r4,r4,6004
 1001e04:	1002ea00 	call	1002ea0 <uart_printf_dbg>
                get_i2c_freq_name(I2C_CLK_rate), I2C_CLK_rate);

    I2C_sm_set_finish_clear_pulse_ASM330LHHX(); 
 1001e08:	1002a080 	call	1002a08 <I2C_sm_set_finish_clear_pulse_ASM330LHHX>

    // 1.  ID
    alt_u8 who_am_i = I2C_read_ASM330LHHX_register(WHO_AM_I, 0);
 1001e0c:	000b883a 	mov	r5,zero
 1001e10:	010003c4 	movi	r4,15
 1001e14:	10027880 	call	1002788 <I2C_read_ASM330LHHX_register>
 1001e18:	e0bfec45 	stb	r2,-79(fp)
    if(who_am_i != 0x6B) {
 1001e1c:	e0bfec43 	ldbu	r2,-79(fp)
 1001e20:	10801ae0 	cmpeqi	r2,r2,107
 1001e24:	1000061e 	bne	r2,zero,1001e40 <init_ASM330LHHX+0xa4>
        DEBUG_PRINT("[CRITICAL] Device NOT Found! Expected 0x6B, Got: 0x%02X\n", who_am_i);
 1001e28:	e0bfec43 	ldbu	r2,-79(fp)
 1001e2c:	100b883a 	mov	r5,r2
 1001e30:	010040b4 	movhi	r4,258
 1001e34:	2105e904 	addi	r4,r4,6052
 1001e38:	1002ea00 	call	1002ea0 <uart_printf_dbg>
 1001e3c:	00007a06 	br	1002028 <init_ASM330LHHX+0x28c>
        return;
    }
    DEBUG_PRINT("[  OK  ] Communication established. (ID: 0x6B)\n");
 1001e40:	010040b4 	movhi	r4,258
 1001e44:	2105f804 	addi	r4,r4,6112
 1001e48:	1002ea00 	call	1002ea0 <uart_printf_dbg>
    // 2.  ()
    struct {
        alt_u8 addr;
        alt_u8 val;
        const char* label;
    } configs[] = {
 1001e4c:	008040b4 	movhi	r2,258
 1001e50:	10868204 	addi	r2,r2,6664
 1001e54:	e0ffee04 	addi	r3,fp,-72
 1001e58:	1009883a 	mov	r4,r2
 1001e5c:	00801204 	movi	r2,72
 1001e60:	100d883a 	mov	r6,r2
 1001e64:	200b883a 	mov	r5,r4
 1001e68:	1809883a 	mov	r4,r3
 1001e6c:	100f4280 	call	100f428 <memcpy>
        {INT2_CTRL, INT2_DRDY_TEMP,                           "Interrupt 2 Map (Temp)"}
    };

    // 3. 
    int i;
    int fail_count = 0;
 1001e70:	e03feb15 	stw	zero,-84(fp)
    int total_configs = sizeof(configs) / sizeof(configs[0]);
 1001e74:	00800244 	movi	r2,9
 1001e78:	e0bfed15 	stw	r2,-76(fp)

    for(i = 0; i < total_configs; i++) {
 1001e7c:	e03fea15 	stw	zero,-88(fp)
 1001e80:	00004d06 	br	1001fb8 <init_ASM330LHHX+0x21c>
        if(I2C_write_verify_ASM330LHHX(configs[i].addr, configs[i].val) == 0) {
 1001e84:	e0bfea17 	ldw	r2,-88(fp)
 1001e88:	100490fa 	slli	r2,r2,3
 1001e8c:	e0ffea04 	addi	r3,fp,-88
 1001e90:	1885883a 	add	r2,r3,r2
 1001e94:	10800404 	addi	r2,r2,16
 1001e98:	10800003 	ldbu	r2,0(r2)
 1001e9c:	10c03fcc 	andi	r3,r2,255
 1001ea0:	e0bfea17 	ldw	r2,-88(fp)
 1001ea4:	100490fa 	slli	r2,r2,3
 1001ea8:	e13fea04 	addi	r4,fp,-88
 1001eac:	2085883a 	add	r2,r4,r2
 1001eb0:	10800444 	addi	r2,r2,17
 1001eb4:	10800003 	ldbu	r2,0(r2)
 1001eb8:	10803fcc 	andi	r2,r2,255
 1001ebc:	100b883a 	mov	r5,r2
 1001ec0:	1809883a 	mov	r4,r3
 1001ec4:	100203c0 	call	100203c <I2C_write_verify_ASM330LHHX>
 1001ec8:	10001b1e 	bne	r2,zero,1001f38 <init_ASM330LHHX+0x19c>
            DEBUG_PRINT("[  OK  ] %-25s | Reg: 0x%02X | Val: 0x%02X\n", 
 1001ecc:	e0bfea17 	ldw	r2,-88(fp)
 1001ed0:	100490fa 	slli	r2,r2,3
 1001ed4:	e17fea04 	addi	r5,fp,-88
 1001ed8:	2885883a 	add	r2,r5,r2
 1001edc:	10800504 	addi	r2,r2,20
 1001ee0:	10c00017 	ldw	r3,0(r2)
 1001ee4:	e0bfea17 	ldw	r2,-88(fp)
 1001ee8:	100490fa 	slli	r2,r2,3
 1001eec:	e13fea04 	addi	r4,fp,-88
 1001ef0:	2085883a 	add	r2,r4,r2
 1001ef4:	10800404 	addi	r2,r2,16
 1001ef8:	10800003 	ldbu	r2,0(r2)
 1001efc:	11003fcc 	andi	r4,r2,255
 1001f00:	e0bfea17 	ldw	r2,-88(fp)
 1001f04:	100490fa 	slli	r2,r2,3
 1001f08:	e17fea04 	addi	r5,fp,-88
 1001f0c:	2885883a 	add	r2,r5,r2
 1001f10:	10800444 	addi	r2,r2,17
 1001f14:	10800003 	ldbu	r2,0(r2)
 1001f18:	10803fcc 	andi	r2,r2,255
 1001f1c:	100f883a 	mov	r7,r2
 1001f20:	200d883a 	mov	r6,r4
 1001f24:	180b883a 	mov	r5,r3
 1001f28:	010040b4 	movhi	r4,258
 1001f2c:	21060404 	addi	r4,r4,6160
 1001f30:	1002ea00 	call	1002ea0 <uart_printf_dbg>
 1001f34:	00001d06 	br	1001fac <init_ASM330LHHX+0x210>
                        configs[i].label, configs[i].addr, configs[i].val);
        } else {
            DEBUG_PRINT("[FAILED] %-25s | Reg: 0x%02X | Expected: 0x%02X\n", 
 1001f38:	e0bfea17 	ldw	r2,-88(fp)
 1001f3c:	100490fa 	slli	r2,r2,3
 1001f40:	e0ffea04 	addi	r3,fp,-88
 1001f44:	1885883a 	add	r2,r3,r2
 1001f48:	10800504 	addi	r2,r2,20
 1001f4c:	10c00017 	ldw	r3,0(r2)
 1001f50:	e0bfea17 	ldw	r2,-88(fp)
 1001f54:	100490fa 	slli	r2,r2,3
 1001f58:	e13fea04 	addi	r4,fp,-88
 1001f5c:	2085883a 	add	r2,r4,r2
 1001f60:	10800404 	addi	r2,r2,16
 1001f64:	10800003 	ldbu	r2,0(r2)
 1001f68:	11003fcc 	andi	r4,r2,255
 1001f6c:	e0bfea17 	ldw	r2,-88(fp)
 1001f70:	100490fa 	slli	r2,r2,3
 1001f74:	e17fea04 	addi	r5,fp,-88
 1001f78:	2885883a 	add	r2,r5,r2
 1001f7c:	10800444 	addi	r2,r2,17
 1001f80:	10800003 	ldbu	r2,0(r2)
 1001f84:	10803fcc 	andi	r2,r2,255
 1001f88:	100f883a 	mov	r7,r2
 1001f8c:	200d883a 	mov	r6,r4
 1001f90:	180b883a 	mov	r5,r3
 1001f94:	010040b4 	movhi	r4,258
 1001f98:	21060f04 	addi	r4,r4,6204
 1001f9c:	1002ea00 	call	1002ea0 <uart_printf_dbg>
                        configs[i].label, configs[i].addr, configs[i].val);
            fail_count++;
 1001fa0:	e0bfeb17 	ldw	r2,-84(fp)
 1001fa4:	10800044 	addi	r2,r2,1
 1001fa8:	e0bfeb15 	stw	r2,-84(fp)
    // 3. 
    int i;
    int fail_count = 0;
    int total_configs = sizeof(configs) / sizeof(configs[0]);

    for(i = 0; i < total_configs; i++) {
 1001fac:	e0bfea17 	ldw	r2,-88(fp)
 1001fb0:	10800044 	addi	r2,r2,1
 1001fb4:	e0bfea15 	stw	r2,-88(fp)
 1001fb8:	e0ffea17 	ldw	r3,-88(fp)
 1001fbc:	e0bfed17 	ldw	r2,-76(fp)
 1001fc0:	18bfb016 	blt	r3,r2,1001e84 <__alt_mem_epcs+0xff000e84>
            fail_count++;
        }
    }

    // 4. 
    if(fail_count == 0) {
 1001fc4:	e0bfeb17 	ldw	r2,-84(fp)
 1001fc8:	10000d1e 	bne	r2,zero,1002000 <init_ASM330LHHX+0x264>
        usleep(20000); // 
 1001fcc:	01138804 	movi	r4,20000
 1001fd0:	101dc480 	call	101dc48 <usleep>
        I2C_op_mode_sel_ASM330LHHX(HW); // 
 1001fd4:	01000084 	movi	r4,2
 1001fd8:	10025f00 	call	10025f0 <I2C_op_mode_sel_ASM330LHHX>
        I2C_set_device_addr_ASM330LHHX(I2C_DEV_ADDR);
 1001fdc:	01001a84 	movi	r4,106
 1001fe0:	10028800 	call	1002880 <I2C_set_device_addr_ASM330LHHX>
        DEBUG_PRINT("----------------------------------------------\n");
 1001fe4:	010040b4 	movhi	r4,258
 1001fe8:	21061c04 	addi	r4,r4,6256
 1001fec:	1002ea00 	call	1002ea0 <uart_printf_dbg>
        DEBUG_PRINT("Status: ALL SUCCESS. Hardware mode active.\n");
 1001ff0:	010040b4 	movhi	r4,258
 1001ff4:	21062804 	addi	r4,r4,6304
 1001ff8:	1002ea00 	call	1002ea0 <uart_printf_dbg>
 1001ffc:	00000706 	br	100201c <init_ASM330LHHX+0x280>
    } else {
        DEBUG_PRINT("----------------------------------------------\n");
 1002000:	010040b4 	movhi	r4,258
 1002004:	21061c04 	addi	r4,r4,6256
 1002008:	1002ea00 	call	1002ea0 <uart_printf_dbg>
        DEBUG_PRINT("Status: INIT FAILED with %d errors.\n", fail_count);
 100200c:	e17feb17 	ldw	r5,-84(fp)
 1002010:	010040b4 	movhi	r4,258
 1002014:	21063304 	addi	r4,r4,6348
 1002018:	1002ea00 	call	1002ea0 <uart_printf_dbg>
    }
    DEBUG_PRINT("==============================================\n\n");
 100201c:	010040b4 	movhi	r4,258
 1002020:	21063d04 	addi	r4,r4,6388
 1002024:	1002ea00 	call	1002ea0 <uart_printf_dbg>
}
 1002028:	e037883a 	mov	sp,fp
 100202c:	dfc00117 	ldw	ra,4(sp)
 1002030:	df000017 	ldw	fp,0(sp)
 1002034:	dec00204 	addi	sp,sp,8
 1002038:	f800283a 	ret

0100203c <I2C_write_verify_ASM330LHHX>:

/**
 * @brief 
 * @return 0: , -1: 
 */
int I2C_write_verify_ASM330LHHX(alt_u8 reg_addr, alt_u8 data) {
 100203c:	defffa04 	addi	sp,sp,-24
 1002040:	dfc00515 	stw	ra,20(sp)
 1002044:	df000415 	stw	fp,16(sp)
 1002048:	df000404 	addi	fp,sp,16
 100204c:	2007883a 	mov	r3,r4
 1002050:	2805883a 	mov	r2,r5
 1002054:	e0fffe05 	stb	r3,-8(fp)
 1002058:	e0bfff05 	stb	r2,-4(fp)
    int retry = 3;
 100205c:	008000c4 	movi	r2,3
 1002060:	e0bffc15 	stw	r2,-16(fp)
    alt_u8 read_val;

    while(retry--) {
 1002064:	00001b06 	br	10020d4 <I2C_write_verify_ASM330LHHX+0x98>
        I2C_write_ASM330LHHX_register(reg_addr, data, 0); // 
 1002068:	e0bffe03 	ldbu	r2,-8(fp)
 100206c:	e0ffff03 	ldbu	r3,-4(fp)
 1002070:	000d883a 	mov	r6,zero
 1002074:	180b883a 	mov	r5,r3
 1002078:	1009883a 	mov	r4,r2
 100207c:	10026b00 	call	10026b0 <I2C_write_ASM330LHHX_register>
        usleep(1000); // 
 1002080:	0100fa04 	movi	r4,1000
 1002084:	101dc480 	call	101dc48 <usleep>
        read_val = I2C_read_ASM330LHHX_register(reg_addr, 0); // 
 1002088:	e0bffe03 	ldbu	r2,-8(fp)
 100208c:	000b883a 	mov	r5,zero
 1002090:	1009883a 	mov	r4,r2
 1002094:	10027880 	call	1002788 <I2C_read_ASM330LHHX_register>
 1002098:	e0bffd05 	stb	r2,-12(fp)
        
        if(read_val == data) {
 100209c:	e0fffd03 	ldbu	r3,-12(fp)
 10020a0:	e0bfff03 	ldbu	r2,-4(fp)
 10020a4:	1880021e 	bne	r3,r2,10020b0 <I2C_write_verify_ASM330LHHX+0x74>
            return 0; // 
 10020a8:	0005883a 	mov	r2,zero
 10020ac:	00001306 	br	10020fc <I2C_write_verify_ASM330LHHX+0xc0>
        }
        DEBUG_PRINT("Retry writing reg: 0x%02X (Expected: 0x%02X, Got: 0x%02X)\n", reg_addr, data, read_val);
 10020b0:	e0bffe03 	ldbu	r2,-8(fp)
 10020b4:	e0ffff03 	ldbu	r3,-4(fp)
 10020b8:	e13ffd03 	ldbu	r4,-12(fp)
 10020bc:	200f883a 	mov	r7,r4
 10020c0:	180d883a 	mov	r6,r3
 10020c4:	100b883a 	mov	r5,r2
 10020c8:	010040b4 	movhi	r4,258
 10020cc:	21069404 	addi	r4,r4,6736
 10020d0:	1002ea00 	call	1002ea0 <uart_printf_dbg>
 */
int I2C_write_verify_ASM330LHHX(alt_u8 reg_addr, alt_u8 data) {
    int retry = 3;
    alt_u8 read_val;

    while(retry--) {
 10020d4:	e0bffc17 	ldw	r2,-16(fp)
 10020d8:	10ffffc4 	addi	r3,r2,-1
 10020dc:	e0fffc15 	stw	r3,-16(fp)
 10020e0:	103fe11e 	bne	r2,zero,1002068 <__alt_mem_epcs+0xff001068>
            return 0; // 
        }
        DEBUG_PRINT("Retry writing reg: 0x%02X (Expected: 0x%02X, Got: 0x%02X)\n", reg_addr, data, read_val);
    }
    
    DEBUG_PRINT("ERROR: ASM330LHHX reg 0x%02X verify failed!\n", reg_addr);
 10020e4:	e0bffe03 	ldbu	r2,-8(fp)
 10020e8:	100b883a 	mov	r5,r2
 10020ec:	010040b4 	movhi	r4,258
 10020f0:	2106a304 	addi	r4,r4,6796
 10020f4:	1002ea00 	call	1002ea0 <uart_printf_dbg>
    return -1;
 10020f8:	00bfffc4 	movi	r2,-1
}
 10020fc:	e037883a 	mov	sp,fp
 1002100:	dfc00117 	ldw	ra,4(sp)
 1002104:	df000017 	ldw	fp,0(sp)
 1002108:	dec00204 	addi	sp,sp,8
 100210c:	f800283a 	ret

01002110 <test_ASM330LHHX>:

void test_ASM330LHHX()
{
 1002110:	defffe04 	addi	sp,sp,-8
 1002114:	dfc00115 	stw	ra,4(sp)
 1002118:	df000015 	stw	fp,0(sp)
 100211c:	d839883a 	mov	fp,sp
	DEBUG_PRINT("testing_ASM330LHHX\n");
 1002120:	010040b4 	movhi	r4,258
 1002124:	2106af04 	addi	r4,r4,6844
 1002128:	1002ea00 	call	1002ea0 <uart_printf_dbg>
	while(number-- != 0 ) {
 100212c:	00000906 	br	1002154 <test_ASM330LHHX+0x44>
		while(dly_cnt++ < DELAY_NUM) {} // delay control
 1002130:	0001883a 	nop
 1002134:	d0e03417 	ldw	r3,-32560(gp)
 1002138:	18800044 	addi	r2,r3,1
 100213c:	d0a03415 	stw	r2,-32560(gp)
 1002140:	008000b4 	movhi	r2,2
 1002144:	10a1a804 	addi	r2,r2,-31072
 1002148:	18bffa36 	bltu	r3,r2,1002134 <__alt_mem_epcs+0xff001134>
		dly_cnt = 0;
 100214c:	d0203415 	stw	zero,-32560(gp)
		read_ASM330LHHX();
 1002150:	100217c0 	call	100217c <read_ASM330LHHX>
}

void test_ASM330LHHX()
{
	DEBUG_PRINT("testing_ASM330LHHX\n");
	while(number-- != 0 ) {
 1002154:	d0a01517 	ldw	r2,-32684(gp)
 1002158:	10ffffc4 	addi	r3,r2,-1
 100215c:	d0e01515 	stw	r3,-32684(gp)
 1002160:	103ff31e 	bne	r2,zero,1002130 <__alt_mem_epcs+0xff001130>
		dly_cnt = 0;
		read_ASM330LHHX();
	}

	
}
 1002164:	0001883a 	nop
 1002168:	e037883a 	mov	sp,fp
 100216c:	dfc00117 	ldw	ra,4(sp)
 1002170:	df000017 	ldw	fp,0(sp)
 1002174:	dec00204 	addi	sp,sp,8
 1002178:	f800283a 	ret

0100217c <read_ASM330LHHX>:

void read_ASM330LHHX()
{
 100217c:	deffe004 	addi	sp,sp,-128
 1002180:	dfc01f15 	stw	ra,124(sp)
 1002184:	df001e15 	stw	fp,120(sp)
 1002188:	ddc01d15 	stw	r23,116(sp)
 100218c:	dd801c15 	stw	r22,112(sp)
 1002190:	dd401b15 	stw	r21,108(sp)
 1002194:	dd001a15 	stw	r20,104(sp)
 1002198:	dcc01915 	stw	r19,100(sp)
 100219c:	dc801815 	stw	r18,96(sp)
 10021a0:	dc401715 	stw	r17,92(sp)
 10021a4:	dc001615 	stw	r16,88(sp)
 10021a8:	df001e04 	addi	fp,sp,120
	float gx, gy, gz, ax, ay, az, temp;

	// setting mode 
	I2C_op_mode_sel_ASM330LHHX(HW);
 10021ac:	01000084 	movi	r4,2
 10021b0:	10025f00 	call	10025f0 <I2C_op_mode_sel_ASM330LHHX>
	// Set I2C device address
	I2C_set_device_addr_ASM330LHHX(I2C_DEV_ADDR);
 10021b4:	01001a84 	movi	r4,106
 10021b8:	10028800 	call	1002880 <I2C_set_device_addr_ASM330LHHX>

	gx = (float)IORD(VARSET_BASE, O_VAR_I2C_RDATA_1) * SF_GYRO_1000DPS;
 10021bc:	00808034 	movhi	r2,512
 10021c0:	10884704 	addi	r2,r2,8476
 10021c4:	10800037 	ldwio	r2,0(r2)
 10021c8:	1009883a 	mov	r4,r2
 10021cc:	100c2800 	call	100c280 <__floatsisf>
 10021d0:	1007883a 	mov	r3,r2
 10021d4:	1809883a 	mov	r4,r3
 10021d8:	100e8780 	call	100e878 <__extendsfdf2>
 10021dc:	1011883a 	mov	r8,r2
 10021e0:	1813883a 	mov	r9,r3
 10021e4:	0187ae34 	movhi	r6,7864
 10021e8:	31947b04 	addi	r6,r6,20972
 10021ec:	01cfe8b4 	movhi	r7,16290
 10021f0:	39fae144 	addi	r7,r7,-5243
 10021f4:	4009883a 	mov	r4,r8
 10021f8:	480b883a 	mov	r5,r9
 10021fc:	100d7100 	call	100d710 <__muldf3>
 1002200:	1009883a 	mov	r4,r2
 1002204:	180b883a 	mov	r5,r3
 1002208:	2005883a 	mov	r2,r4
 100220c:	2807883a 	mov	r3,r5
 1002210:	1009883a 	mov	r4,r2
 1002214:	180b883a 	mov	r5,r3
 1002218:	100e9880 	call	100e988 <__truncdfsf2>
 100221c:	1007883a 	mov	r3,r2
 1002220:	e0ffed15 	stw	r3,-76(fp)
	gy = (float)IORD(VARSET_BASE, O_VAR_I2C_RDATA_2) * SF_GYRO_1000DPS;
 1002224:	00808034 	movhi	r2,512
 1002228:	10884804 	addi	r2,r2,8480
 100222c:	10800037 	ldwio	r2,0(r2)
 1002230:	1009883a 	mov	r4,r2
 1002234:	100c2800 	call	100c280 <__floatsisf>
 1002238:	1007883a 	mov	r3,r2
 100223c:	1809883a 	mov	r4,r3
 1002240:	100e8780 	call	100e878 <__extendsfdf2>
 1002244:	1011883a 	mov	r8,r2
 1002248:	1813883a 	mov	r9,r3
 100224c:	0187ae34 	movhi	r6,7864
 1002250:	31947b04 	addi	r6,r6,20972
 1002254:	01cfe8b4 	movhi	r7,16290
 1002258:	39fae144 	addi	r7,r7,-5243
 100225c:	4009883a 	mov	r4,r8
 1002260:	480b883a 	mov	r5,r9
 1002264:	100d7100 	call	100d710 <__muldf3>
 1002268:	1009883a 	mov	r4,r2
 100226c:	180b883a 	mov	r5,r3
 1002270:	2005883a 	mov	r2,r4
 1002274:	2807883a 	mov	r3,r5
 1002278:	1009883a 	mov	r4,r2
 100227c:	180b883a 	mov	r5,r3
 1002280:	100e9880 	call	100e988 <__truncdfsf2>
 1002284:	1007883a 	mov	r3,r2
 1002288:	e0ffee15 	stw	r3,-72(fp)
	gz = (float)IORD(VARSET_BASE, O_VAR_I2C_RDATA_3) * SF_GYRO_1000DPS;
 100228c:	00808034 	movhi	r2,512
 1002290:	10884904 	addi	r2,r2,8484
 1002294:	10800037 	ldwio	r2,0(r2)
 1002298:	1009883a 	mov	r4,r2
 100229c:	100c2800 	call	100c280 <__floatsisf>
 10022a0:	1007883a 	mov	r3,r2
 10022a4:	1809883a 	mov	r4,r3
 10022a8:	100e8780 	call	100e878 <__extendsfdf2>
 10022ac:	1011883a 	mov	r8,r2
 10022b0:	1813883a 	mov	r9,r3
 10022b4:	0187ae34 	movhi	r6,7864
 10022b8:	31947b04 	addi	r6,r6,20972
 10022bc:	01cfe8b4 	movhi	r7,16290
 10022c0:	39fae144 	addi	r7,r7,-5243
 10022c4:	4009883a 	mov	r4,r8
 10022c8:	480b883a 	mov	r5,r9
 10022cc:	100d7100 	call	100d710 <__muldf3>
 10022d0:	1009883a 	mov	r4,r2
 10022d4:	180b883a 	mov	r5,r3
 10022d8:	2005883a 	mov	r2,r4
 10022dc:	2807883a 	mov	r3,r5
 10022e0:	1009883a 	mov	r4,r2
 10022e4:	180b883a 	mov	r5,r3
 10022e8:	100e9880 	call	100e988 <__truncdfsf2>
 10022ec:	1007883a 	mov	r3,r2
 10022f0:	e0ffef15 	stw	r3,-68(fp)
	ax = (float)IORD(VARSET_BASE, O_VAR_I2C_RDATA_4) * SF_ACCL_16G;
 10022f4:	00808034 	movhi	r2,512
 10022f8:	10884a04 	addi	r2,r2,8488
 10022fc:	10800037 	ldwio	r2,0(r2)
 1002300:	1009883a 	mov	r4,r2
 1002304:	100c2800 	call	100c280 <__floatsisf>
 1002308:	1007883a 	mov	r3,r2
 100230c:	1809883a 	mov	r4,r3
 1002310:	100e8780 	call	100e878 <__extendsfdf2>
 1002314:	1011883a 	mov	r8,r2
 1002318:	1813883a 	mov	r9,r3
 100231c:	018296f4 	movhi	r6,2651
 1002320:	31b33544 	addi	r6,r6,-13099
 1002324:	01cfd034 	movhi	r7,16192
 1002328:	39fed204 	addi	r7,r7,-1208
 100232c:	4009883a 	mov	r4,r8
 1002330:	480b883a 	mov	r5,r9
 1002334:	100d7100 	call	100d710 <__muldf3>
 1002338:	1009883a 	mov	r4,r2
 100233c:	180b883a 	mov	r5,r3
 1002340:	2005883a 	mov	r2,r4
 1002344:	2807883a 	mov	r3,r5
 1002348:	1009883a 	mov	r4,r2
 100234c:	180b883a 	mov	r5,r3
 1002350:	100e9880 	call	100e988 <__truncdfsf2>
 1002354:	1007883a 	mov	r3,r2
 1002358:	e0fff015 	stw	r3,-64(fp)
	ay = (float)IORD(VARSET_BASE, O_VAR_I2C_RDATA_5) * SF_ACCL_16G;
 100235c:	00808034 	movhi	r2,512
 1002360:	10884b04 	addi	r2,r2,8492
 1002364:	10800037 	ldwio	r2,0(r2)
 1002368:	1009883a 	mov	r4,r2
 100236c:	100c2800 	call	100c280 <__floatsisf>
 1002370:	1007883a 	mov	r3,r2
 1002374:	1809883a 	mov	r4,r3
 1002378:	100e8780 	call	100e878 <__extendsfdf2>
 100237c:	1011883a 	mov	r8,r2
 1002380:	1813883a 	mov	r9,r3
 1002384:	018296f4 	movhi	r6,2651
 1002388:	31b33544 	addi	r6,r6,-13099
 100238c:	01cfd034 	movhi	r7,16192
 1002390:	39fed204 	addi	r7,r7,-1208
 1002394:	4009883a 	mov	r4,r8
 1002398:	480b883a 	mov	r5,r9
 100239c:	100d7100 	call	100d710 <__muldf3>
 10023a0:	1009883a 	mov	r4,r2
 10023a4:	180b883a 	mov	r5,r3
 10023a8:	2005883a 	mov	r2,r4
 10023ac:	2807883a 	mov	r3,r5
 10023b0:	1009883a 	mov	r4,r2
 10023b4:	180b883a 	mov	r5,r3
 10023b8:	100e9880 	call	100e988 <__truncdfsf2>
 10023bc:	1007883a 	mov	r3,r2
 10023c0:	e0fff115 	stw	r3,-60(fp)
	az = (float)IORD(VARSET_BASE, O_VAR_I2C_RDATA_6) * SF_ACCL_16G;
 10023c4:	00808034 	movhi	r2,512
 10023c8:	10884c04 	addi	r2,r2,8496
 10023cc:	10800037 	ldwio	r2,0(r2)
 10023d0:	1009883a 	mov	r4,r2
 10023d4:	100c2800 	call	100c280 <__floatsisf>
 10023d8:	1007883a 	mov	r3,r2
 10023dc:	1809883a 	mov	r4,r3
 10023e0:	100e8780 	call	100e878 <__extendsfdf2>
 10023e4:	1011883a 	mov	r8,r2
 10023e8:	1813883a 	mov	r9,r3
 10023ec:	018296f4 	movhi	r6,2651
 10023f0:	31b33544 	addi	r6,r6,-13099
 10023f4:	01cfd034 	movhi	r7,16192
 10023f8:	39fed204 	addi	r7,r7,-1208
 10023fc:	4009883a 	mov	r4,r8
 1002400:	480b883a 	mov	r5,r9
 1002404:	100d7100 	call	100d710 <__muldf3>
 1002408:	1009883a 	mov	r4,r2
 100240c:	180b883a 	mov	r5,r3
 1002410:	2005883a 	mov	r2,r4
 1002414:	2807883a 	mov	r3,r5
 1002418:	1009883a 	mov	r4,r2
 100241c:	180b883a 	mov	r5,r3
 1002420:	100e9880 	call	100e988 <__truncdfsf2>
 1002424:	1007883a 	mov	r3,r2
 1002428:	e0fff215 	stw	r3,-56(fp)
	temp = (float)IORD(VARSET_BASE, O_VAR_I2C_RDATA_7) * SF_TEMP + 25.0;
 100242c:	00808034 	movhi	r2,512
 1002430:	10884d04 	addi	r2,r2,8500
 1002434:	10800037 	ldwio	r2,0(r2)
 1002438:	1009883a 	mov	r4,r2
 100243c:	100c2800 	call	100c280 <__floatsisf>
 1002440:	1007883a 	mov	r3,r2
 1002444:	1809883a 	mov	r4,r3
 1002448:	100e8780 	call	100e878 <__extendsfdf2>
 100244c:	1011883a 	mov	r8,r2
 1002450:	1813883a 	mov	r9,r3
 1002454:	000d883a 	mov	r6,zero
 1002458:	01cfdc34 	movhi	r7,16240
 100245c:	4009883a 	mov	r4,r8
 1002460:	480b883a 	mov	r5,r9
 1002464:	100d7100 	call	100d710 <__muldf3>
 1002468:	1009883a 	mov	r4,r2
 100246c:	180b883a 	mov	r5,r3
 1002470:	2005883a 	mov	r2,r4
 1002474:	2807883a 	mov	r3,r5
 1002478:	000d883a 	mov	r6,zero
 100247c:	01d00e74 	movhi	r7,16441
 1002480:	1009883a 	mov	r4,r2
 1002484:	180b883a 	mov	r5,r3
 1002488:	100c4940 	call	100c494 <__adddf3>
 100248c:	1009883a 	mov	r4,r2
 1002490:	180b883a 	mov	r5,r3
 1002494:	2005883a 	mov	r2,r4
 1002498:	2807883a 	mov	r3,r5
 100249c:	1009883a 	mov	r4,r2
 10024a0:	180b883a 	mov	r5,r3
 10024a4:	100e9880 	call	100e988 <__truncdfsf2>
 10024a8:	1007883a 	mov	r3,r2
 10024ac:	e0fff315 	stw	r3,-52(fp)

	// printf("%f, %f, %f, %f, %f, %f, %f\n", gx, gy, gz, ax, ay, az, temp);
	DEBUG_PRINT("%f, %f, %f, %f, %f, %f, %f\n", gx, gy, gz, ax, ay, az, temp);
 10024b0:	e13fed17 	ldw	r4,-76(fp)
 10024b4:	100e8780 	call	100e878 <__extendsfdf2>
 10024b8:	e0bff415 	stw	r2,-48(fp)
 10024bc:	e0fff515 	stw	r3,-44(fp)
 10024c0:	e13fee17 	ldw	r4,-72(fp)
 10024c4:	100e8780 	call	100e878 <__extendsfdf2>
 10024c8:	e0bff615 	stw	r2,-40(fp)
 10024cc:	e0fff715 	stw	r3,-36(fp)
 10024d0:	e13fef17 	ldw	r4,-68(fp)
 10024d4:	100e8780 	call	100e878 <__extendsfdf2>
 10024d8:	1021883a 	mov	r16,r2
 10024dc:	1823883a 	mov	r17,r3
 10024e0:	e13ff017 	ldw	r4,-64(fp)
 10024e4:	100e8780 	call	100e878 <__extendsfdf2>
 10024e8:	1025883a 	mov	r18,r2
 10024ec:	1827883a 	mov	r19,r3
 10024f0:	e13ff117 	ldw	r4,-60(fp)
 10024f4:	100e8780 	call	100e878 <__extendsfdf2>
 10024f8:	1029883a 	mov	r20,r2
 10024fc:	182b883a 	mov	r21,r3
 1002500:	e13ff217 	ldw	r4,-56(fp)
 1002504:	100e8780 	call	100e878 <__extendsfdf2>
 1002508:	102d883a 	mov	r22,r2
 100250c:	182f883a 	mov	r23,r3
 1002510:	e13ff317 	ldw	r4,-52(fp)
 1002514:	100e8780 	call	100e878 <__extendsfdf2>
 1002518:	1009883a 	mov	r4,r2
 100251c:	180b883a 	mov	r5,r3
 1002520:	d9000915 	stw	r4,36(sp)
 1002524:	d9400a15 	stw	r5,40(sp)
 1002528:	dd800715 	stw	r22,28(sp)
 100252c:	ddc00815 	stw	r23,32(sp)
 1002530:	dd000515 	stw	r20,20(sp)
 1002534:	dd400615 	stw	r21,24(sp)
 1002538:	dc800315 	stw	r18,12(sp)
 100253c:	dcc00415 	stw	r19,16(sp)
 1002540:	dc000115 	stw	r16,4(sp)
 1002544:	dc400215 	stw	r17,8(sp)
 1002548:	e0bff717 	ldw	r2,-36(fp)
 100254c:	d8800015 	stw	r2,0(sp)
 1002550:	e1fff617 	ldw	r7,-40(fp)
 1002554:	e17ff417 	ldw	r5,-48(fp)
 1002558:	e1bff517 	ldw	r6,-44(fp)
 100255c:	010040b4 	movhi	r4,258
 1002560:	2106b404 	addi	r4,r4,6864
 1002564:	1002ea00 	call	1002ea0 <uart_printf_dbg>
}
 1002568:	0001883a 	nop
 100256c:	e6fff804 	addi	sp,fp,-32
 1002570:	dfc00917 	ldw	ra,36(sp)
 1002574:	df000817 	ldw	fp,32(sp)
 1002578:	ddc00717 	ldw	r23,28(sp)
 100257c:	dd800617 	ldw	r22,24(sp)
 1002580:	dd400517 	ldw	r21,20(sp)
 1002584:	dd000417 	ldw	r20,16(sp)
 1002588:	dcc00317 	ldw	r19,12(sp)
 100258c:	dc800217 	ldw	r18,8(sp)
 1002590:	dc400117 	ldw	r17,4(sp)
 1002594:	dc000017 	ldw	r16,0(sp)
 1002598:	dec00a04 	addi	sp,sp,40
 100259c:	f800283a 	ret

010025a0 <I2C_sm_start_ASM330LHHX>:

/***********mid level definition */

void I2C_sm_start_ASM330LHHX()
{
 10025a0:	defffd04 	addi	sp,sp,-12
 10025a4:	dfc00215 	stw	ra,8(sp)
 10025a8:	df000115 	stw	fp,4(sp)
 10025ac:	df000104 	addi	fp,sp,4
	alt_u8 dly = 50;
 10025b0:	00800c84 	movi	r2,50
 10025b4:	e0bfff05 	stb	r2,-4(fp)

	I2C_sm_set_enable_ASM330LHHX();
 10025b8:	10029800 	call	1002980 <I2C_sm_set_enable_ASM330LHHX>
	while(dly--){}
 10025bc:	0001883a 	nop
 10025c0:	e0bfff03 	ldbu	r2,-4(fp)
 10025c4:	10ffffc4 	addi	r3,r2,-1
 10025c8:	e0ffff05 	stb	r3,-4(fp)
 10025cc:	10803fcc 	andi	r2,r2,255
 10025d0:	103ffb1e 	bne	r2,zero,10025c0 <__alt_mem_epcs+0xff0015c0>
	I2C_sm_set_disable_ASM330LHHX();
 10025d4:	10029c40 	call	10029c4 <I2C_sm_set_disable_ASM330LHHX>
}
 10025d8:	0001883a 	nop
 10025dc:	e037883a 	mov	sp,fp
 10025e0:	dfc00117 	ldw	ra,4(sp)
 10025e4:	df000017 	ldw	fp,0(sp)
 10025e8:	dec00204 	addi	sp,sp,8
 10025ec:	f800283a 	ret

010025f0 <I2C_op_mode_sel_ASM330LHHX>:

void I2C_op_mode_sel_ASM330LHHX(alt_u8 mode)
{
 10025f0:	defffd04 	addi	sp,sp,-12
 10025f4:	df000215 	stw	fp,8(sp)
 10025f8:	df000204 	addi	fp,sp,8
 10025fc:	2005883a 	mov	r2,r4
 1002600:	e0bfff05 	stb	r2,-4(fp)
	alt_32 old = IORD(VARSET_BASE, O_VAR_I2C_CTRL);
 1002604:	00808034 	movhi	r2,512
 1002608:	10881804 	addi	r2,r2,8288
 100260c:	10800037 	ldwio	r2,0(r2)
 1002610:	e0bffe15 	stw	r2,-8(fp)

	IOWR(VARSET_BASE, O_VAR_I2C_CTRL, (old & 0xFFFFFFF1) | (mode<<ctrl_op_mode_pos));
 1002614:	e0fffe17 	ldw	r3,-8(fp)
 1002618:	00bffc44 	movi	r2,-15
 100261c:	1886703a 	and	r3,r3,r2
 1002620:	e0bfff03 	ldbu	r2,-4(fp)
 1002624:	1085883a 	add	r2,r2,r2
 1002628:	1884b03a 	or	r2,r3,r2
 100262c:	1007883a 	mov	r3,r2
 1002630:	00808034 	movhi	r2,512
 1002634:	10881804 	addi	r2,r2,8288
 1002638:	10c00035 	stwio	r3,0(r2)
}
 100263c:	0001883a 	nop
 1002640:	e037883a 	mov	sp,fp
 1002644:	df000017 	ldw	fp,0(sp)
 1002648:	dec00104 	addi	sp,sp,4
 100264c:	f800283a 	ret

01002650 <I2C_clock_rate_sel_ASM330LHHX>:

void I2C_clock_rate_sel_ASM330LHHX(alt_u8 rate)
{
 1002650:	defffd04 	addi	sp,sp,-12
 1002654:	df000215 	stw	fp,8(sp)
 1002658:	df000204 	addi	fp,sp,8
 100265c:	2005883a 	mov	r2,r4
 1002660:	e0bfff05 	stb	r2,-4(fp)
	alt_32 old = IORD(VARSET_BASE, O_VAR_I2C_CTRL);
 1002664:	00808034 	movhi	r2,512
 1002668:	10881804 	addi	r2,r2,8288
 100266c:	10800037 	ldwio	r2,0(r2)
 1002670:	e0bffe15 	stw	r2,-8(fp)

	IOWR(VARSET_BASE, O_VAR_I2C_CTRL, (old & 0xFFFFFF8F) | (rate<<ctrl_clk_rate_pos));
 1002674:	e0fffe17 	ldw	r3,-8(fp)
 1002678:	00bfe3c4 	movi	r2,-113
 100267c:	1884703a 	and	r2,r3,r2
 1002680:	e0ffff03 	ldbu	r3,-4(fp)
 1002684:	1806913a 	slli	r3,r3,4
 1002688:	10c4b03a 	or	r2,r2,r3
 100268c:	1007883a 	mov	r3,r2
 1002690:	00808034 	movhi	r2,512
 1002694:	10881804 	addi	r2,r2,8288
 1002698:	10c00035 	stwio	r3,0(r2)
}
 100269c:	0001883a 	nop
 10026a0:	e037883a 	mov	sp,fp
 10026a4:	df000017 	ldw	fp,0(sp)
 10026a8:	dec00104 	addi	sp,sp,4
 10026ac:	f800283a 	ret

010026b0 <I2C_write_ASM330LHHX_register>:

void I2C_write_ASM330LHHX_register(alt_u8 reg_addr, alt_u8 data, alt_u8 print)
{
 10026b0:	defffa04 	addi	sp,sp,-24
 10026b4:	dfc00515 	stw	ra,20(sp)
 10026b8:	df000415 	stw	fp,16(sp)
 10026bc:	df000404 	addi	fp,sp,16
 10026c0:	2807883a 	mov	r3,r5
 10026c4:	3005883a 	mov	r2,r6
 10026c8:	e13ffd05 	stb	r4,-12(fp)
 10026cc:	e0fffe05 	stb	r3,-8(fp)
 10026d0:	e0bfff05 	stb	r2,-4(fp)
	// setting mode to cpu write register
	I2C_op_mode_sel_ASM330LHHX(CPU_WREG);
 10026d4:	0009883a 	mov	r4,zero
 10026d8:	10025f00 	call	10025f0 <I2C_op_mode_sel_ASM330LHHX>
	// Set I2C device address
	I2C_set_device_addr_ASM330LHHX(I2C_DEV_ADDR);
 10026dc:	01001a84 	movi	r4,106
 10026e0:	10028800 	call	1002880 <I2C_set_device_addr_ASM330LHHX>
	// Set the target register address for read or write operations
	IOWR(VARSET_BASE, O_VAR_REG_ADDR, reg_addr);
 10026e4:	e0fffd03 	ldbu	r3,-12(fp)
 10026e8:	00808034 	movhi	r2,512
 10026ec:	10881604 	addi	r2,r2,8280
 10026f0:	10c00035 	stwio	r3,0(r2)

	// Set the data value to be written to the target register
	IOWR(VARSET_BASE, O_VAR_W_DATA, data);
 10026f4:	e0fffe03 	ldbu	r3,-8(fp)
 10026f8:	00808034 	movhi	r2,512
 10026fc:	10881704 	addi	r2,r2,8284
 1002700:	10c00035 	stwio	r3,0(r2)
	// start the I2C SM 
	I2C_sm_start_ASM330LHHX();
 1002704:	10025a00 	call	10025a0 <I2C_sm_start_ASM330LHHX>
	// Wait for the I2C SM to complete the operation
	int timeout = 100000;
 1002708:	008000b4 	movhi	r2,2
 100270c:	10a1a804 	addi	r2,r2,-31072
 1002710:	e0bffc15 	stw	r2,-16(fp)
	while( !I2C_sm_read_finish_ASM330LHHX() && timeout-- > 0 );
 1002714:	0001883a 	nop
 1002718:	1002a700 	call	1002a70 <I2C_sm_read_finish_ASM330LHHX>
 100271c:	10803fcc 	andi	r2,r2,255
 1002720:	1000041e 	bne	r2,zero,1002734 <I2C_write_ASM330LHHX_register+0x84>
 1002724:	e0bffc17 	ldw	r2,-16(fp)
 1002728:	10ffffc4 	addi	r3,r2,-1
 100272c:	e0fffc15 	stw	r3,-16(fp)
 1002730:	00bff916 	blt	zero,r2,1002718 <__alt_mem_epcs+0xff001718>
	if (timeout <= 0) {
 1002734:	e0bffc17 	ldw	r2,-16(fp)
 1002738:	00800416 	blt	zero,r2,100274c <I2C_write_ASM330LHHX_register+0x9c>
        printf("ASM330LHHX write timeout!\n");
 100273c:	010040b4 	movhi	r4,258
 1002740:	2106bb04 	addi	r4,r4,6892
 1002744:	100f7c40 	call	100f7c4 <puts>
        return;
 1002748:	00000a06 	br	1002774 <I2C_write_ASM330LHHX_register+0xc4>
    }
	I2C_sm_set_finish_clear_pulse_ASM330LHHX();
 100274c:	1002a080 	call	1002a08 <I2C_sm_set_finish_clear_pulse_ASM330LHHX>
	if(print) 	printf("write reg:%x, value:%x\n", reg_addr, data);
 1002750:	e0bfff03 	ldbu	r2,-4(fp)
 1002754:	10000726 	beq	r2,zero,1002774 <I2C_write_ASM330LHHX_register+0xc4>
 1002758:	e0bffd03 	ldbu	r2,-12(fp)
 100275c:	e0fffe03 	ldbu	r3,-8(fp)
 1002760:	180d883a 	mov	r6,r3
 1002764:	100b883a 	mov	r5,r2
 1002768:	010040b4 	movhi	r4,258
 100276c:	2106c204 	addi	r4,r4,6920
 1002770:	100f6c80 	call	100f6c8 <printf>
}
 1002774:	e037883a 	mov	sp,fp
 1002778:	dfc00117 	ldw	ra,4(sp)
 100277c:	df000017 	ldw	fp,0(sp)
 1002780:	dec00204 	addi	sp,sp,8
 1002784:	f800283a 	ret

01002788 <I2C_read_ASM330LHHX_register>:

alt_u8 I2C_read_ASM330LHHX_register(alt_u8 reg_addr, alt_u8 print)
{
 1002788:	defff904 	addi	sp,sp,-28
 100278c:	dfc00615 	stw	ra,24(sp)
 1002790:	df000515 	stw	fp,20(sp)
 1002794:	df000504 	addi	fp,sp,20
 1002798:	2007883a 	mov	r3,r4
 100279c:	2805883a 	mov	r2,r5
 10027a0:	e0fffe05 	stb	r3,-8(fp)
 10027a4:	e0bfff05 	stb	r2,-4(fp)
	alt_u8 rt;
	int timeout = 1000000;
 10027a8:	008003f4 	movhi	r2,15
 10027ac:	10909004 	addi	r2,r2,16960
 10027b0:	e0bffb15 	stw	r2,-20(fp)

	// setting mode to cpu read register
	I2C_op_mode_sel_ASM330LHHX(CPU_RREG);
 10027b4:	01000044 	movi	r4,1
 10027b8:	10025f00 	call	10025f0 <I2C_op_mode_sel_ASM330LHHX>
	// Set I2C device address
	I2C_set_device_addr_ASM330LHHX(I2C_DEV_ADDR);
 10027bc:	01001a84 	movi	r4,106
 10027c0:	10028800 	call	1002880 <I2C_set_device_addr_ASM330LHHX>
	// Set the target register address for read or write operations
	IOWR(VARSET_BASE, O_VAR_REG_ADDR, reg_addr);
 10027c4:	e0fffe03 	ldbu	r3,-8(fp)
 10027c8:	00808034 	movhi	r2,512
 10027cc:	10881604 	addi	r2,r2,8280
 10027d0:	10c00035 	stwio	r3,0(r2)

	// start the I2C SM 
	I2C_sm_start_ASM330LHHX();
 10027d4:	10025a00 	call	10025a0 <I2C_sm_start_ASM330LHHX>

	// Wait for the I2C SM to complete the operation
	// while( !I2C_sm_read_finish_ASM330LHHX()){}
	while( !I2C_sm_read_finish_ASM330LHHX() && timeout-- > 0 );
 10027d8:	0001883a 	nop
 10027dc:	1002a700 	call	1002a70 <I2C_sm_read_finish_ASM330LHHX>
 10027e0:	10803fcc 	andi	r2,r2,255
 10027e4:	1000041e 	bne	r2,zero,10027f8 <I2C_read_ASM330LHHX_register+0x70>
 10027e8:	e0bffb17 	ldw	r2,-20(fp)
 10027ec:	10ffffc4 	addi	r3,r2,-1
 10027f0:	e0fffb15 	stw	r3,-20(fp)
 10027f4:	00bff916 	blt	zero,r2,10027dc <__alt_mem_epcs+0xff0017dc>
	if(timeout <= 0) {
 10027f8:	e0bffb17 	ldw	r2,-20(fp)
 10027fc:	00800c16 	blt	zero,r2,1002830 <I2C_read_ASM330LHHX_register+0xa8>
        alt_u32 status = IORD(VARSET_BASE, O_VAR_I2C_STATUS);
 1002800:	00808034 	movhi	r2,512
 1002804:	10884604 	addi	r2,r2,8472
 1002808:	10800037 	ldwio	r2,0(r2)
 100280c:	e0bffc15 	stw	r2,-16(fp)
        DEBUG_PRINT("Read Error! Reg: 0x%02X, SM Status: 0x%08X\n", reg_addr, (unsigned int)status);
 1002810:	e0bffe03 	ldbu	r2,-8(fp)
 1002814:	e1bffc17 	ldw	r6,-16(fp)
 1002818:	100b883a 	mov	r5,r2
 100281c:	010040b4 	movhi	r4,258
 1002820:	2106c804 	addi	r4,r4,6944
 1002824:	1002ea00 	call	1002ea0 <uart_printf_dbg>
        return 0;
 1002828:	0005883a 	mov	r2,zero
 100282c:	00000f06 	br	100286c <I2C_read_ASM330LHHX_register+0xe4>
    }

	// Retrieve the data read from the specified register
	rt = IORD(VARSET_BASE, O_VAR_I2C_RDATA_1);
 1002830:	00808034 	movhi	r2,512
 1002834:	10884704 	addi	r2,r2,8476
 1002838:	10800037 	ldwio	r2,0(r2)
 100283c:	e0bffd05 	stb	r2,-12(fp)

	I2C_sm_set_finish_clear_pulse_ASM330LHHX();
 1002840:	1002a080 	call	1002a08 <I2C_sm_set_finish_clear_pulse_ASM330LHHX>

	// Print the register address and its read value if 'print' is enabled
	if(print) 	DEBUG_PRINT("reg:%x, value:%x\n", reg_addr, rt);
 1002844:	e0bfff03 	ldbu	r2,-4(fp)
 1002848:	10000726 	beq	r2,zero,1002868 <I2C_read_ASM330LHHX_register+0xe0>
 100284c:	e0bffe03 	ldbu	r2,-8(fp)
 1002850:	e0fffd03 	ldbu	r3,-12(fp)
 1002854:	180d883a 	mov	r6,r3
 1002858:	100b883a 	mov	r5,r2
 100285c:	010040b4 	movhi	r4,258
 1002860:	2106d304 	addi	r4,r4,6988
 1002864:	1002ea00 	call	1002ea0 <uart_printf_dbg>
	// if(print) 	printf("read reg:%x, value:%x\n", reg_addr, rt);

	return rt;
 1002868:	e0bffd03 	ldbu	r2,-12(fp)
}
 100286c:	e037883a 	mov	sp,fp
 1002870:	dfc00117 	ldw	ra,4(sp)
 1002874:	df000017 	ldw	fp,0(sp)
 1002878:	dec00204 	addi	sp,sp,8
 100287c:	f800283a 	ret

01002880 <I2C_set_device_addr_ASM330LHHX>:

void I2C_set_device_addr_ASM330LHHX(alt_u8 dev)
{
 1002880:	defffe04 	addi	sp,sp,-8
 1002884:	df000115 	stw	fp,4(sp)
 1002888:	df000104 	addi	fp,sp,4
 100288c:	2005883a 	mov	r2,r4
 1002890:	e0bfff05 	stb	r2,-4(fp)
	IOWR(VARSET_BASE, O_VAR_DEV_ADDR, dev);
 1002894:	e0ffff03 	ldbu	r3,-4(fp)
 1002898:	00808034 	movhi	r2,512
 100289c:	10881504 	addi	r2,r2,8276
 10028a0:	10c00035 	stwio	r3,0(r2)
}
 10028a4:	0001883a 	nop
 10028a8:	e037883a 	mov	sp,fp
 10028ac:	df000017 	ldw	fp,0(sp)
 10028b0:	dec00104 	addi	sp,sp,4
 10028b4:	f800283a 	ret

010028b8 <set_bit_safe_ASM330LHHX>:

/***********low level definition */

/*** Set the bit value at the spcified position without altering the values at other positions. */
 alt_u32 set_bit_safe_ASM330LHHX(alt_u32 old_addr,  alt_u8 pos)
{
 10028b8:	defffc04 	addi	sp,sp,-16
 10028bc:	df000315 	stw	fp,12(sp)
 10028c0:	df000304 	addi	fp,sp,12
 10028c4:	e13ffe15 	stw	r4,-8(fp)
 10028c8:	2805883a 	mov	r2,r5
 10028cc:	e0bfff05 	stb	r2,-4(fp)
	// First, read the register value.
	alt_u32 old = IORD(VARSET_BASE, old_addr);
 10028d0:	e0bffe17 	ldw	r2,-8(fp)
 10028d4:	1085883a 	add	r2,r2,r2
 10028d8:	1085883a 	add	r2,r2,r2
 10028dc:	1007883a 	mov	r3,r2
 10028e0:	00808034 	movhi	r2,512
 10028e4:	10880004 	addi	r2,r2,8192
 10028e8:	1885883a 	add	r2,r3,r2
 10028ec:	10800037 	ldwio	r2,0(r2)
 10028f0:	e0bffd15 	stw	r2,-12(fp)

	// Returns the register value with the bit set at the specified position.
	return (old | (alt_32)(1<<pos)); 
 10028f4:	e0bfff03 	ldbu	r2,-4(fp)
 10028f8:	00c00044 	movi	r3,1
 10028fc:	1884983a 	sll	r2,r3,r2
 1002900:	1007883a 	mov	r3,r2
 1002904:	e0bffd17 	ldw	r2,-12(fp)
 1002908:	1884b03a 	or	r2,r3,r2
}
 100290c:	e037883a 	mov	sp,fp
 1002910:	df000017 	ldw	fp,0(sp)
 1002914:	dec00104 	addi	sp,sp,4
 1002918:	f800283a 	ret

0100291c <clear_bit_safe_ASM330LHHX>:

/*** Clear the bit value at the spcified position without altering the values at other positions. */
 alt_u32 clear_bit_safe_ASM330LHHX(alt_u32 old_addr,  alt_u8 pos)
{
 100291c:	defffc04 	addi	sp,sp,-16
 1002920:	df000315 	stw	fp,12(sp)
 1002924:	df000304 	addi	fp,sp,12
 1002928:	e13ffe15 	stw	r4,-8(fp)
 100292c:	2805883a 	mov	r2,r5
 1002930:	e0bfff05 	stb	r2,-4(fp)
	// First, read the register value.
	alt_u32 old = IORD(VARSET_BASE, old_addr);
 1002934:	e0bffe17 	ldw	r2,-8(fp)
 1002938:	1085883a 	add	r2,r2,r2
 100293c:	1085883a 	add	r2,r2,r2
 1002940:	1007883a 	mov	r3,r2
 1002944:	00808034 	movhi	r2,512
 1002948:	10880004 	addi	r2,r2,8192
 100294c:	1885883a 	add	r2,r3,r2
 1002950:	10800037 	ldwio	r2,0(r2)
 1002954:	e0bffd15 	stw	r2,-12(fp)

	// Returns the register value with the bit cleared at the specified position.
	return (old & ~((alt_32)(1<<pos))); 
 1002958:	e0bfff03 	ldbu	r2,-4(fp)
 100295c:	00c00044 	movi	r3,1
 1002960:	1884983a 	sll	r2,r3,r2
 1002964:	0086303a 	nor	r3,zero,r2
 1002968:	e0bffd17 	ldw	r2,-12(fp)
 100296c:	1884703a 	and	r2,r3,r2
}
 1002970:	e037883a 	mov	sp,fp
 1002974:	df000017 	ldw	fp,0(sp)
 1002978:	dec00104 	addi	sp,sp,4
 100297c:	f800283a 	ret

01002980 <I2C_sm_set_enable_ASM330LHHX>:

/*** Starts the state machine when it is in the IDLE state. */
 void I2C_sm_set_enable_ASM330LHHX()
{
 1002980:	defffe04 	addi	sp,sp,-8
 1002984:	dfc00115 	stw	ra,4(sp)
 1002988:	df000015 	stw	fp,0(sp)
 100298c:	d839883a 	mov	fp,sp
	IOWR(VARSET_BASE, O_VAR_I2C_CTRL,  set_bit_safe_ASM330LHHX(O_VAR_I2C_CTRL, ctrl_en_pos));
 1002990:	000b883a 	mov	r5,zero
 1002994:	01000604 	movi	r4,24
 1002998:	10028b80 	call	10028b8 <set_bit_safe_ASM330LHHX>
 100299c:	1007883a 	mov	r3,r2
 10029a0:	00808034 	movhi	r2,512
 10029a4:	10881804 	addi	r2,r2,8288
 10029a8:	10c00035 	stwio	r3,0(r2)
}
 10029ac:	0001883a 	nop
 10029b0:	e037883a 	mov	sp,fp
 10029b4:	dfc00117 	ldw	ra,4(sp)
 10029b8:	df000017 	ldw	fp,0(sp)
 10029bc:	dec00204 	addi	sp,sp,8
 10029c0:	f800283a 	ret

010029c4 <I2C_sm_set_disable_ASM330LHHX>:

 void I2C_sm_set_disable_ASM330LHHX()
{
 10029c4:	defffe04 	addi	sp,sp,-8
 10029c8:	dfc00115 	stw	ra,4(sp)
 10029cc:	df000015 	stw	fp,0(sp)
 10029d0:	d839883a 	mov	fp,sp
	IOWR(VARSET_BASE, O_VAR_I2C_CTRL, clear_bit_safe_ASM330LHHX(O_VAR_I2C_CTRL, ctrl_en_pos) );
 10029d4:	000b883a 	mov	r5,zero
 10029d8:	01000604 	movi	r4,24
 10029dc:	100291c0 	call	100291c <clear_bit_safe_ASM330LHHX>
 10029e0:	1007883a 	mov	r3,r2
 10029e4:	00808034 	movhi	r2,512
 10029e8:	10881804 	addi	r2,r2,8288
 10029ec:	10c00035 	stwio	r3,0(r2)
}
 10029f0:	0001883a 	nop
 10029f4:	e037883a 	mov	sp,fp
 10029f8:	dfc00117 	ldw	ra,4(sp)
 10029fc:	df000017 	ldw	fp,0(sp)
 1002a00:	dec00204 	addi	sp,sp,8
 1002a04:	f800283a 	ret

01002a08 <I2C_sm_set_finish_clear_pulse_ASM330LHHX>:

void I2C_sm_set_finish_clear_pulse_ASM330LHHX() 
{
 1002a08:	defffe04 	addi	sp,sp,-8
 1002a0c:	dfc00115 	stw	ra,4(sp)
 1002a10:	df000015 	stw	fp,0(sp)
 1002a14:	d839883a 	mov	fp,sp
	IOWR(VARSET_BASE, O_VAR_I2C_CTRL,  set_bit_safe(O_VAR_I2C_CTRL, ctrl_finish_clear_pos));
 1002a18:	014001c4 	movi	r5,7
 1002a1c:	01000604 	movi	r4,24
 1002a20:	1009a480 	call	1009a48 <set_bit_safe>
 1002a24:	1007883a 	mov	r3,r2
 1002a28:	00808034 	movhi	r2,512
 1002a2c:	10881804 	addi	r2,r2,8288
 1002a30:	10c00035 	stwio	r3,0(r2)
	usleep(1);
 1002a34:	01000044 	movi	r4,1
 1002a38:	101dc480 	call	101dc48 <usleep>
	IOWR(VARSET_BASE, O_VAR_I2C_CTRL,  clear_bit_safe(O_VAR_I2C_CTRL, ctrl_finish_clear_pos));
 1002a3c:	014001c4 	movi	r5,7
 1002a40:	01000604 	movi	r4,24
 1002a44:	1009aac0 	call	1009aac <clear_bit_safe>
 1002a48:	1007883a 	mov	r3,r2
 1002a4c:	00808034 	movhi	r2,512
 1002a50:	10881804 	addi	r2,r2,8288
 1002a54:	10c00035 	stwio	r3,0(r2)
}
 1002a58:	0001883a 	nop
 1002a5c:	e037883a 	mov	sp,fp
 1002a60:	dfc00117 	ldw	ra,4(sp)
 1002a64:	df000017 	ldw	fp,0(sp)
 1002a68:	dec00204 	addi	sp,sp,8
 1002a6c:	f800283a 	ret

01002a70 <I2C_sm_read_finish_ASM330LHHX>:


/*** Returns High when the state machine has finished. */
 alt_u8 I2C_sm_read_finish_ASM330LHHX()
{
 1002a70:	defffe04 	addi	sp,sp,-8
 1002a74:	df000115 	stw	fp,4(sp)
 1002a78:	df000104 	addi	fp,sp,4
	alt_u8 finish=0;
 1002a7c:	e03fff05 	stb	zero,-4(fp)

	finish = (alt_u8)(IORD(VARSET_BASE, O_VAR_I2C_STATUS)>>status_finish_pos) & 0x01;
 1002a80:	00808034 	movhi	r2,512
 1002a84:	10884604 	addi	r2,r2,8472
 1002a88:	10800037 	ldwio	r2,0(r2)
 1002a8c:	1005d07a 	srai	r2,r2,1
 1002a90:	1080004c 	andi	r2,r2,1
 1002a94:	e0bfff05 	stb	r2,-4(fp)

	return finish;
 1002a98:	e0bfff03 	ldbu	r2,-4(fp)
}
 1002a9c:	e037883a 	mov	sp,fp
 1002aa0:	df000017 	ldw	fp,0(sp)
 1002aa4:	dec00104 	addi	sp,sp,4
 1002aa8:	f800283a 	ret

01002aac <moving_average_init>:
#include "HINS.h"

alt_u32 crc_table[256];

// Initialize the Moving Average filter
void moving_average_init(MovingAverage_t *ma, alt_u32 window) {
 1002aac:	defffb04 	addi	sp,sp,-20
 1002ab0:	dfc00415 	stw	ra,16(sp)
 1002ab4:	df000315 	stw	fp,12(sp)
 1002ab8:	df000304 	addi	fp,sp,12
 1002abc:	e13ffe15 	stw	r4,-8(fp)
 1002ac0:	e17fff15 	stw	r5,-4(fp)
    ma->buffer = (float *)malloc(window * sizeof(float));
 1002ac4:	e0bfff17 	ldw	r2,-4(fp)
 1002ac8:	1085883a 	add	r2,r2,r2
 1002acc:	1085883a 	add	r2,r2,r2
 1002ad0:	1009883a 	mov	r4,r2
 1002ad4:	100ebf40 	call	100ebf4 <malloc>
 1002ad8:	1007883a 	mov	r3,r2
 1002adc:	e0bffe17 	ldw	r2,-8(fp)
 1002ae0:	10c00015 	stw	r3,0(r2)
    if (!ma->buffer) {
 1002ae4:	e0bffe17 	ldw	r2,-8(fp)
 1002ae8:	10800017 	ldw	r2,0(r2)
 1002aec:	1000021e 	bne	r2,zero,1002af8 <moving_average_init+0x4c>
        // printf("Memory allocation failed!\n");
        exit(1);
 1002af0:	01000044 	movi	r4,1
 1002af4:	100ebbc0 	call	100ebbc <exit>
    }
    ma->window_size = window;
 1002af8:	e0bffe17 	ldw	r2,-8(fp)
 1002afc:	e0ffff17 	ldw	r3,-4(fp)
 1002b00:	10c00115 	stw	r3,4(r2)
    ma->index = 0;
 1002b04:	e0bffe17 	ldw	r2,-8(fp)
 1002b08:	10000215 	stw	zero,8(r2)
    ma->sum = 0.0f;
 1002b0c:	e0bffe17 	ldw	r2,-8(fp)
 1002b10:	10000315 	stw	zero,12(r2)
    for (alt_u32 i = 0; i < window; i++) {
 1002b14:	e03ffd15 	stw	zero,-12(fp)
 1002b18:	00000a06 	br	1002b44 <moving_average_init+0x98>
        ma->buffer[i] = 0.0f;
 1002b1c:	e0bffe17 	ldw	r2,-8(fp)
 1002b20:	10c00017 	ldw	r3,0(r2)
 1002b24:	e0bffd17 	ldw	r2,-12(fp)
 1002b28:	1085883a 	add	r2,r2,r2
 1002b2c:	1085883a 	add	r2,r2,r2
 1002b30:	1885883a 	add	r2,r3,r2
 1002b34:	10000015 	stw	zero,0(r2)
        exit(1);
    }
    ma->window_size = window;
    ma->index = 0;
    ma->sum = 0.0f;
    for (alt_u32 i = 0; i < window; i++) {
 1002b38:	e0bffd17 	ldw	r2,-12(fp)
 1002b3c:	10800044 	addi	r2,r2,1
 1002b40:	e0bffd15 	stw	r2,-12(fp)
 1002b44:	e0fffd17 	ldw	r3,-12(fp)
 1002b48:	e0bfff17 	ldw	r2,-4(fp)
 1002b4c:	18bff336 	bltu	r3,r2,1002b1c <__alt_mem_epcs+0xff001b1c>
        ma->buffer[i] = 0.0f;
    }
}
 1002b50:	0001883a 	nop
 1002b54:	e037883a 	mov	sp,fp
 1002b58:	dfc00117 	ldw	ra,4(sp)
 1002b5c:	df000017 	ldw	fp,0(sp)
 1002b60:	dec00204 	addi	sp,sp,8
 1002b64:	f800283a 	ret

01002b68 <moving_average_update>:

// Process new data and return filtered result
float moving_average_update(MovingAverage_t *ma, float din) {
 1002b68:	defffb04 	addi	sp,sp,-20
 1002b6c:	dfc00415 	stw	ra,16(sp)
 1002b70:	df000315 	stw	fp,12(sp)
 1002b74:	dc000215 	stw	r16,8(sp)
 1002b78:	df000304 	addi	fp,sp,12
 1002b7c:	e13ffd15 	stw	r4,-12(fp)
 1002b80:	e17ffe15 	stw	r5,-8(fp)
    // Subtract the oldest value from sum
    ma->sum -= ma->buffer[ma->index];
 1002b84:	e0bffd17 	ldw	r2,-12(fp)
 1002b88:	11000317 	ldw	r4,12(r2)
 1002b8c:	e0bffd17 	ldw	r2,-12(fp)
 1002b90:	10c00017 	ldw	r3,0(r2)
 1002b94:	e0bffd17 	ldw	r2,-12(fp)
 1002b98:	10800217 	ldw	r2,8(r2)
 1002b9c:	1085883a 	add	r2,r2,r2
 1002ba0:	1085883a 	add	r2,r2,r2
 1002ba4:	1885883a 	add	r2,r3,r2
 1002ba8:	10c00017 	ldw	r3,0(r2)
 1002bac:	180b883a 	mov	r5,r3
 1002bb0:	100bd9c0 	call	100bd9c <__subsf3>
 1002bb4:	1009883a 	mov	r4,r2
 1002bb8:	2007883a 	mov	r3,r4
 1002bbc:	e0bffd17 	ldw	r2,-12(fp)
 1002bc0:	10c00315 	stw	r3,12(r2)
    
    // Store new value in buffer
    ma->buffer[ma->index] = din;
 1002bc4:	e0bffd17 	ldw	r2,-12(fp)
 1002bc8:	10c00017 	ldw	r3,0(r2)
 1002bcc:	e0bffd17 	ldw	r2,-12(fp)
 1002bd0:	10800217 	ldw	r2,8(r2)
 1002bd4:	1085883a 	add	r2,r2,r2
 1002bd8:	1085883a 	add	r2,r2,r2
 1002bdc:	1885883a 	add	r2,r3,r2
 1002be0:	e0fffe17 	ldw	r3,-8(fp)
 1002be4:	10c00015 	stw	r3,0(r2)
    
    // Add new value to sum
    ma->sum += din;
 1002be8:	e0bffd17 	ldw	r2,-12(fp)
 1002bec:	10c00317 	ldw	r3,12(r2)
 1002bf0:	e17ffe17 	ldw	r5,-8(fp)
 1002bf4:	1809883a 	mov	r4,r3
 1002bf8:	100aee00 	call	100aee0 <__addsf3>
 1002bfc:	1009883a 	mov	r4,r2
 1002c00:	2007883a 	mov	r3,r4
 1002c04:	e0bffd17 	ldw	r2,-12(fp)
 1002c08:	10c00315 	stw	r3,12(r2)
    
    // Move index forward in circular manner
    ma->index = (ma->index + 1) % ma->window_size;
 1002c0c:	e0bffd17 	ldw	r2,-12(fp)
 1002c10:	10800217 	ldw	r2,8(r2)
 1002c14:	10c00044 	addi	r3,r2,1
 1002c18:	e0bffd17 	ldw	r2,-12(fp)
 1002c1c:	10800117 	ldw	r2,4(r2)
 1002c20:	100b883a 	mov	r5,r2
 1002c24:	1809883a 	mov	r4,r3
 1002c28:	100ae880 	call	100ae88 <__umodsi3>
 1002c2c:	1007883a 	mov	r3,r2
 1002c30:	e0bffd17 	ldw	r2,-12(fp)
 1002c34:	10c00215 	stw	r3,8(r2)
    
    // Return the average
    return ma->sum / (ma->window_size);
 1002c38:	e0bffd17 	ldw	r2,-12(fp)
 1002c3c:	14000317 	ldw	r16,12(r2)
 1002c40:	e0bffd17 	ldw	r2,-12(fp)
 1002c44:	10800117 	ldw	r2,4(r2)
 1002c48:	1009883a 	mov	r4,r2
 1002c4c:	100c3a40 	call	100c3a4 <__floatunsisf>
 1002c50:	1007883a 	mov	r3,r2
 1002c54:	180b883a 	mov	r5,r3
 1002c58:	8009883a 	mov	r4,r16
 1002c5c:	100b3a80 	call	100b3a8 <__divsf3>
 1002c60:	1009883a 	mov	r4,r2
 1002c64:	2007883a 	mov	r3,r4
 1002c68:	1805883a 	mov	r2,r3
}
 1002c6c:	e6ffff04 	addi	sp,fp,-4
 1002c70:	dfc00217 	ldw	ra,8(sp)
 1002c74:	df000117 	ldw	fp,4(sp)
 1002c78:	dc000017 	ldw	r16,0(sp)
 1002c7c:	dec00304 	addi	sp,sp,12
 1002c80:	f800283a 	ret

01002c84 <moving_average_free>:

// Free allocated memory
void moving_average_free(MovingAverage_t *ma) {
 1002c84:	defffd04 	addi	sp,sp,-12
 1002c88:	dfc00215 	stw	ra,8(sp)
 1002c8c:	df000115 	stw	fp,4(sp)
 1002c90:	df000104 	addi	fp,sp,4
 1002c94:	e13fff15 	stw	r4,-4(fp)
    free(ma->buffer);
 1002c98:	e0bfff17 	ldw	r2,-4(fp)
 1002c9c:	10800017 	ldw	r2,0(r2)
 1002ca0:	1009883a 	mov	r4,r2
 1002ca4:	100ec080 	call	100ec08 <free>
}
 1002ca8:	0001883a 	nop
 1002cac:	e037883a 	mov	sp,fp
 1002cb0:	dfc00117 	ldw	ra,4(sp)
 1002cb4:	df000017 	ldw	fp,0(sp)
 1002cb8:	dec00204 	addi	sp,sp,8
 1002cbc:	f800283a 	ret

01002cc0 <sendTx>:

void sendTx(alt_32 data)
{
 1002cc0:	defffe04 	addi	sp,sp,-8
 1002cc4:	df000115 	stw	fp,4(sp)
 1002cc8:	df000104 	addi	fp,sp,4
 1002ccc:	e13fff15 	stw	r4,-4(fp)
	while(!(IORD_ALTERA_AVALON_UART_STATUS(UART_BASE)& ALTERA_AVALON_UART_STATUS_TRDY_MSK));
 1002cd0:	0001883a 	nop
 1002cd4:	00808034 	movhi	r2,512
 1002cd8:	10889a04 	addi	r2,r2,8808
 1002cdc:	10800037 	ldwio	r2,0(r2)
 1002ce0:	1080100c 	andi	r2,r2,64
 1002ce4:	103ffb26 	beq	r2,zero,1002cd4 <__alt_mem_epcs+0xff001cd4>
	IOWR_ALTERA_AVALON_UART_TXDATA(UART_BASE, data>>24);
 1002ce8:	e0bfff17 	ldw	r2,-4(fp)
 1002cec:	1007d63a 	srai	r3,r2,24
 1002cf0:	00808034 	movhi	r2,512
 1002cf4:	10889904 	addi	r2,r2,8804
 1002cf8:	10c00035 	stwio	r3,0(r2)
	while(!(IORD_ALTERA_AVALON_UART_STATUS(UART_BASE)& ALTERA_AVALON_UART_STATUS_TRDY_MSK));
 1002cfc:	0001883a 	nop
 1002d00:	00808034 	movhi	r2,512
 1002d04:	10889a04 	addi	r2,r2,8808
 1002d08:	10800037 	ldwio	r2,0(r2)
 1002d0c:	1080100c 	andi	r2,r2,64
 1002d10:	103ffb26 	beq	r2,zero,1002d00 <__alt_mem_epcs+0xff001d00>
	IOWR_ALTERA_AVALON_UART_TXDATA(UART_BASE, data>>16);
 1002d14:	e0bfff17 	ldw	r2,-4(fp)
 1002d18:	1007d43a 	srai	r3,r2,16
 1002d1c:	00808034 	movhi	r2,512
 1002d20:	10889904 	addi	r2,r2,8804
 1002d24:	10c00035 	stwio	r3,0(r2)
	while(!(IORD_ALTERA_AVALON_UART_STATUS(UART_BASE)& ALTERA_AVALON_UART_STATUS_TRDY_MSK));
 1002d28:	0001883a 	nop
 1002d2c:	00808034 	movhi	r2,512
 1002d30:	10889a04 	addi	r2,r2,8808
 1002d34:	10800037 	ldwio	r2,0(r2)
 1002d38:	1080100c 	andi	r2,r2,64
 1002d3c:	103ffb26 	beq	r2,zero,1002d2c <__alt_mem_epcs+0xff001d2c>
	IOWR_ALTERA_AVALON_UART_TXDATA(UART_BASE, data>>8);
 1002d40:	e0bfff17 	ldw	r2,-4(fp)
 1002d44:	1007d23a 	srai	r3,r2,8
 1002d48:	00808034 	movhi	r2,512
 1002d4c:	10889904 	addi	r2,r2,8804
 1002d50:	10c00035 	stwio	r3,0(r2)
	while(!(IORD_ALTERA_AVALON_UART_STATUS(UART_BASE)& ALTERA_AVALON_UART_STATUS_TRDY_MSK));
 1002d54:	0001883a 	nop
 1002d58:	00808034 	movhi	r2,512
 1002d5c:	10889a04 	addi	r2,r2,8808
 1002d60:	10800037 	ldwio	r2,0(r2)
 1002d64:	1080100c 	andi	r2,r2,64
 1002d68:	103ffb26 	beq	r2,zero,1002d58 <__alt_mem_epcs+0xff001d58>
	IOWR_ALTERA_AVALON_UART_TXDATA(UART_BASE, data);
 1002d6c:	00808034 	movhi	r2,512
 1002d70:	10889904 	addi	r2,r2,8804
 1002d74:	e0ffff17 	ldw	r3,-4(fp)
 1002d78:	10c00035 	stwio	r3,0(r2)
}
 1002d7c:	0001883a 	nop
 1002d80:	e037883a 	mov	sp,fp
 1002d84:	df000017 	ldw	fp,0(sp)
 1002d88:	dec00104 	addi	sp,sp,4
 1002d8c:	f800283a 	ret

01002d90 <checkByte>:
void checkByte(alt_u8 data)
{
 1002d90:	defffe04 	addi	sp,sp,-8
 1002d94:	df000115 	stw	fp,4(sp)
 1002d98:	df000104 	addi	fp,sp,4
 1002d9c:	2005883a 	mov	r2,r4
 1002da0:	e0bfff05 	stb	r2,-4(fp)
	while(!(IORD_ALTERA_AVALON_UART_STATUS(UART_BASE)& ALTERA_AVALON_UART_STATUS_TRDY_MSK));
 1002da4:	0001883a 	nop
 1002da8:	00808034 	movhi	r2,512
 1002dac:	10889a04 	addi	r2,r2,8808
 1002db0:	10800037 	ldwio	r2,0(r2)
 1002db4:	1080100c 	andi	r2,r2,64
 1002db8:	103ffb26 	beq	r2,zero,1002da8 <__alt_mem_epcs+0xff001da8>
	IOWR_ALTERA_AVALON_UART_TXDATA(UART_BASE, data);
 1002dbc:	e0ffff03 	ldbu	r3,-4(fp)
 1002dc0:	00808034 	movhi	r2,512
 1002dc4:	10889904 	addi	r2,r2,8804
 1002dc8:	10c00035 	stwio	r3,0(r2)
}
 1002dcc:	0001883a 	nop
 1002dd0:	e037883a 	mov	sp,fp
 1002dd4:	df000017 	ldw	fp,0(sp)
 1002dd8:	dec00104 	addi	sp,sp,4
 1002ddc:	f800283a 	ret

01002de0 <checkByte_dbg>:

void checkByte_dbg(alt_u8 data)
{
 1002de0:	defffe04 	addi	sp,sp,-8
 1002de4:	df000115 	stw	fp,4(sp)
 1002de8:	df000104 	addi	fp,sp,4
 1002dec:	2005883a 	mov	r2,r4
 1002df0:	e0bfff05 	stb	r2,-4(fp)
	while(!(IORD_ALTERA_AVALON_UART_STATUS(UART_DBG_BASE)& ALTERA_AVALON_UART_STATUS_TRDY_MSK));
 1002df4:	0001883a 	nop
 1002df8:	00808034 	movhi	r2,512
 1002dfc:	10889204 	addi	r2,r2,8776
 1002e00:	10800037 	ldwio	r2,0(r2)
 1002e04:	1080100c 	andi	r2,r2,64
 1002e08:	103ffb26 	beq	r2,zero,1002df8 <__alt_mem_epcs+0xff001df8>
	IOWR_ALTERA_AVALON_UART_TXDATA(UART_DBG_BASE, data);
 1002e0c:	e0ffff03 	ldbu	r3,-4(fp)
 1002e10:	00808034 	movhi	r2,512
 1002e14:	10889104 	addi	r2,r2,8772
 1002e18:	10c00035 	stwio	r3,0(r2)
}
 1002e1c:	0001883a 	nop
 1002e20:	e037883a 	mov	sp,fp
 1002e24:	df000017 	ldw	fp,0(sp)
 1002e28:	dec00104 	addi	sp,sp,4
 1002e2c:	f800283a 	ret

01002e30 <uart_printf>:

void uart_printf(const char *format, ...)
{
 1002e30:	deffb904 	addi	sp,sp,-284
 1002e34:	dfc04315 	stw	ra,268(sp)
 1002e38:	df004215 	stw	fp,264(sp)
 1002e3c:	df004204 	addi	fp,sp,264
 1002e40:	e13fff15 	stw	r4,-4(fp)
 1002e44:	e1400215 	stw	r5,8(fp)
 1002e48:	e1800315 	stw	r6,12(fp)
 1002e4c:	e1c00415 	stw	r7,16(fp)
    char buffer[256];  // 128 is buffer size, can increase if need 
    va_list args;                   

    va_start(args, format);           
 1002e50:	e0800204 	addi	r2,fp,8
 1002e54:	e0bffe15 	stw	r2,-8(fp)
    vsnprintf(buffer, 256, format, args);  
 1002e58:	e0bffe17 	ldw	r2,-8(fp)
 1002e5c:	100f883a 	mov	r7,r2
 1002e60:	e1bfff17 	ldw	r6,-4(fp)
 1002e64:	01404004 	movi	r5,256
 1002e68:	e13fbe04 	addi	r4,fp,-264
 1002e6c:	10142240 	call	1014224 <vsnprintf>
    va_end(args);

    SerialWrite((alt_u8*)buffer, strlen(buffer));
 1002e70:	e13fbe04 	addi	r4,fp,-264
 1002e74:	100f9e80 	call	100f9e8 <strlen>
 1002e78:	10803fcc 	andi	r2,r2,255
 1002e7c:	100b883a 	mov	r5,r2
 1002e80:	e13fbe04 	addi	r4,fp,-264
 1002e84:	1002f8c0 	call	1002f8c <SerialWrite>
}
 1002e88:	0001883a 	nop
 1002e8c:	e037883a 	mov	sp,fp
 1002e90:	dfc00117 	ldw	ra,4(sp)
 1002e94:	df000017 	ldw	fp,0(sp)
 1002e98:	dec00504 	addi	sp,sp,20
 1002e9c:	f800283a 	ret

01002ea0 <uart_printf_dbg>:

void uart_printf_dbg(const char *format, ...)
{
 1002ea0:	defef504 	addi	sp,sp,-1068
 1002ea4:	dfc10715 	stw	ra,1052(sp)
 1002ea8:	df010615 	stw	fp,1048(sp)
 1002eac:	df010604 	addi	fp,sp,1048
 1002eb0:	e13fff15 	stw	r4,-4(fp)
 1002eb4:	e1400215 	stw	r5,8(fp)
 1002eb8:	e1800315 	stw	r6,12(fp)
 1002ebc:	e1c00415 	stw	r7,16(fp)
    char buffer[1024];
    va_list args;

    va_start(args, format);
 1002ec0:	e0800204 	addi	r2,fp,8
 1002ec4:	e0bffe15 	stw	r2,-8(fp)
    // vsnprintf  NUL > sizeof(buffer)
    int n = vsnprintf(buffer, sizeof(buffer), format, args);
 1002ec8:	e0fffe17 	ldw	r3,-8(fp)
 1002ecc:	e0befe04 	addi	r2,fp,-1032
 1002ed0:	180f883a 	mov	r7,r3
 1002ed4:	e1bfff17 	ldw	r6,-4(fp)
 1002ed8:	01410004 	movi	r5,1024
 1002edc:	1009883a 	mov	r4,r2
 1002ee0:	10142240 	call	1014224 <vsnprintf>
 1002ee4:	e0befc15 	stw	r2,-1040(fp)
    va_end(args);

    // 
    size_t len = 0;
 1002ee8:	e03efa15 	stw	zero,-1048(fp)
    if (n < 0) {
 1002eec:	e0befc17 	ldw	r2,-1040(fp)
 1002ef0:	10002016 	blt	r2,zero,1002f74 <uart_printf_dbg+0xd4>
        return; // 
    } else if ((size_t)n < sizeof(buffer)) {
 1002ef4:	e0befc17 	ldw	r2,-1040(fp)
 1002ef8:	10810028 	cmpgeui	r2,r2,1024
 1002efc:	1000031e 	bne	r2,zero,1002f0c <uart_printf_dbg+0x6c>
        len = (size_t)n;
 1002f00:	e0befc17 	ldw	r2,-1040(fp)
 1002f04:	e0befa15 	stw	r2,-1048(fp)
 1002f08:	00000206 	br	1002f14 <uart_printf_dbg+0x74>
    } else {
        len = sizeof(buffer) - 1; //  NUL
 1002f0c:	0080ffc4 	movi	r2,1023
 1002f10:	e0befa15 	stw	r2,-1048(fp)
    }

    //  UART
    const uint8_t *p = (const uint8_t*)buffer;
 1002f14:	e0befe04 	addi	r2,fp,-1032
 1002f18:	e0befb15 	stw	r2,-1044(fp)
    while (len > 0) {
 1002f1c:	00001206 	br	1002f68 <uart_printf_dbg+0xc8>
        size_t chunk = len > 128 ? 128 : len;   //  UART FIFO/
 1002f20:	e0befa17 	ldw	r2,-1048(fp)
 1002f24:	10c02070 	cmpltui	r3,r2,129
 1002f28:	1800011e 	bne	r3,zero,1002f30 <uart_printf_dbg+0x90>
 1002f2c:	00802004 	movi	r2,128
 1002f30:	e0befd15 	stw	r2,-1036(fp)
        SerialWrite_dbg((alt_u8*)p, chunk);
 1002f34:	e0befd17 	ldw	r2,-1036(fp)
 1002f38:	10803fcc 	andi	r2,r2,255
 1002f3c:	100b883a 	mov	r5,r2
 1002f40:	e13efb17 	ldw	r4,-1044(fp)
 1002f44:	10030100 	call	1003010 <SerialWrite_dbg>
        p   += chunk;
 1002f48:	e0fefb17 	ldw	r3,-1044(fp)
 1002f4c:	e0befd17 	ldw	r2,-1036(fp)
 1002f50:	1885883a 	add	r2,r3,r2
 1002f54:	e0befb15 	stw	r2,-1044(fp)
        len -= chunk;
 1002f58:	e0fefa17 	ldw	r3,-1048(fp)
 1002f5c:	e0befd17 	ldw	r2,-1036(fp)
 1002f60:	1885c83a 	sub	r2,r3,r2
 1002f64:	e0befa15 	stw	r2,-1048(fp)
        len = sizeof(buffer) - 1; //  NUL
    }

    //  UART
    const uint8_t *p = (const uint8_t*)buffer;
    while (len > 0) {
 1002f68:	e0befa17 	ldw	r2,-1048(fp)
 1002f6c:	103fec1e 	bne	r2,zero,1002f20 <__alt_mem_epcs+0xff001f20>
 1002f70:	00000106 	br	1002f78 <uart_printf_dbg+0xd8>
    va_end(args);

    // 
    size_t len = 0;
    if (n < 0) {
        return; // 
 1002f74:	0001883a 	nop
        len -= chunk;

        //  TX /
        // wait_uart_dbg_tx_empty();
    }
}
 1002f78:	e037883a 	mov	sp,fp
 1002f7c:	dfc00117 	ldw	ra,4(sp)
 1002f80:	df000017 	ldw	fp,0(sp)
 1002f84:	dec00504 	addi	sp,sp,20
 1002f88:	f800283a 	ret

01002f8c <SerialWrite>:

    SerialWrite_dbg((alt_u8*)buffer, strlen(buffer));
}
 */
void SerialWrite(alt_u8* buf, alt_u8 num) 
{
 1002f8c:	defffc04 	addi	sp,sp,-16
 1002f90:	df000315 	stw	fp,12(sp)
 1002f94:	df000304 	addi	fp,sp,12
 1002f98:	e13ffe15 	stw	r4,-8(fp)
 1002f9c:	2805883a 	mov	r2,r5
 1002fa0:	e0bfff05 	stb	r2,-4(fp)
    for (alt_u8 i = 0; i < num; i++) 
 1002fa4:	e03ffd05 	stb	zero,-12(fp)
 1002fa8:	00001106 	br	1002ff0 <SerialWrite+0x64>
    {
        while (!(IORD_ALTERA_AVALON_UART_STATUS(UART_BASE) & ALTERA_AVALON_UART_STATUS_TRDY_MSK));
 1002fac:	0001883a 	nop
 1002fb0:	00808034 	movhi	r2,512
 1002fb4:	10889a04 	addi	r2,r2,8808
 1002fb8:	10800037 	ldwio	r2,0(r2)
 1002fbc:	1080100c 	andi	r2,r2,64
 1002fc0:	103ffb26 	beq	r2,zero,1002fb0 <__alt_mem_epcs+0xff001fb0>
        IOWR_ALTERA_AVALON_UART_TXDATA(UART_BASE, buf[i]);
 1002fc4:	e0bffd03 	ldbu	r2,-12(fp)
 1002fc8:	e0fffe17 	ldw	r3,-8(fp)
 1002fcc:	1885883a 	add	r2,r3,r2
 1002fd0:	10800003 	ldbu	r2,0(r2)
 1002fd4:	10c03fcc 	andi	r3,r2,255
 1002fd8:	00808034 	movhi	r2,512
 1002fdc:	10889904 	addi	r2,r2,8804
 1002fe0:	10c00035 	stwio	r3,0(r2)
    SerialWrite_dbg((alt_u8*)buffer, strlen(buffer));
}
 */
void SerialWrite(alt_u8* buf, alt_u8 num) 
{
    for (alt_u8 i = 0; i < num; i++) 
 1002fe4:	e0bffd03 	ldbu	r2,-12(fp)
 1002fe8:	10800044 	addi	r2,r2,1
 1002fec:	e0bffd05 	stb	r2,-12(fp)
 1002ff0:	e0fffd03 	ldbu	r3,-12(fp)
 1002ff4:	e0bfff03 	ldbu	r2,-4(fp)
 1002ff8:	18bfec36 	bltu	r3,r2,1002fac <__alt_mem_epcs+0xff001fac>
    {
        while (!(IORD_ALTERA_AVALON_UART_STATUS(UART_BASE) & ALTERA_AVALON_UART_STATUS_TRDY_MSK));
        IOWR_ALTERA_AVALON_UART_TXDATA(UART_BASE, buf[i]);
    }
}
 1002ffc:	0001883a 	nop
 1003000:	e037883a 	mov	sp,fp
 1003004:	df000017 	ldw	fp,0(sp)
 1003008:	dec00104 	addi	sp,sp,4
 100300c:	f800283a 	ret

01003010 <SerialWrite_dbg>:

void SerialWrite_dbg(alt_u8* buf, alt_u8 num) 
{
 1003010:	defffc04 	addi	sp,sp,-16
 1003014:	df000315 	stw	fp,12(sp)
 1003018:	df000304 	addi	fp,sp,12
 100301c:	e13ffe15 	stw	r4,-8(fp)
 1003020:	2805883a 	mov	r2,r5
 1003024:	e0bfff05 	stb	r2,-4(fp)
    for (alt_u8 i = 0; i < num; i++) 
 1003028:	e03ffd05 	stb	zero,-12(fp)
 100302c:	00001106 	br	1003074 <SerialWrite_dbg+0x64>
    {
        while (!(IORD_ALTERA_AVALON_UART_STATUS(UART_DBG_BASE) & ALTERA_AVALON_UART_STATUS_TRDY_MSK));
 1003030:	0001883a 	nop
 1003034:	00808034 	movhi	r2,512
 1003038:	10889204 	addi	r2,r2,8776
 100303c:	10800037 	ldwio	r2,0(r2)
 1003040:	1080100c 	andi	r2,r2,64
 1003044:	103ffb26 	beq	r2,zero,1003034 <__alt_mem_epcs+0xff002034>
        IOWR_ALTERA_AVALON_UART_TXDATA(UART_DBG_BASE, buf[i]);
 1003048:	e0bffd03 	ldbu	r2,-12(fp)
 100304c:	e0fffe17 	ldw	r3,-8(fp)
 1003050:	1885883a 	add	r2,r3,r2
 1003054:	10800003 	ldbu	r2,0(r2)
 1003058:	10c03fcc 	andi	r3,r2,255
 100305c:	00808034 	movhi	r2,512
 1003060:	10889104 	addi	r2,r2,8772
 1003064:	10c00035 	stwio	r3,0(r2)
    }
}

void SerialWrite_dbg(alt_u8* buf, alt_u8 num) 
{
    for (alt_u8 i = 0; i < num; i++) 
 1003068:	e0bffd03 	ldbu	r2,-12(fp)
 100306c:	10800044 	addi	r2,r2,1
 1003070:	e0bffd05 	stb	r2,-12(fp)
 1003074:	e0fffd03 	ldbu	r3,-12(fp)
 1003078:	e0bfff03 	ldbu	r2,-4(fp)
 100307c:	18bfec36 	bltu	r3,r2,1003030 <__alt_mem_epcs+0xff002030>
    {
        while (!(IORD_ALTERA_AVALON_UART_STATUS(UART_DBG_BASE) & ALTERA_AVALON_UART_STATUS_TRDY_MSK));
        IOWR_ALTERA_AVALON_UART_TXDATA(UART_DBG_BASE, buf[i]);
    }
}
 1003080:	0001883a 	nop
 1003084:	e037883a 	mov	sp,fp
 1003088:	df000017 	ldw	fp,0(sp)
 100308c:	dec00104 	addi	sp,sp,4
 1003090:	f800283a 	ret

01003094 <SerialWrite_r>:

void SerialWrite_r(alt_u8* buf, alt_u8 num) 
{
 1003094:	defffc04 	addi	sp,sp,-16
 1003098:	df000315 	stw	fp,12(sp)
 100309c:	df000304 	addi	fp,sp,12
 10030a0:	e13ffe15 	stw	r4,-8(fp)
 10030a4:	2805883a 	mov	r2,r5
 10030a8:	e0bfff05 	stb	r2,-4(fp)
    for (alt_u8 i = num; i > 0; i--) 
 10030ac:	e0bfff03 	ldbu	r2,-4(fp)
 10030b0:	e0bffd05 	stb	r2,-12(fp)
 10030b4:	00001206 	br	1003100 <SerialWrite_r+0x6c>
    {
        while (!(IORD_ALTERA_AVALON_UART_STATUS(UART_BASE) & ALTERA_AVALON_UART_STATUS_TRDY_MSK));
 10030b8:	0001883a 	nop
 10030bc:	00808034 	movhi	r2,512
 10030c0:	10889a04 	addi	r2,r2,8808
 10030c4:	10800037 	ldwio	r2,0(r2)
 10030c8:	1080100c 	andi	r2,r2,64
 10030cc:	103ffb26 	beq	r2,zero,10030bc <__alt_mem_epcs+0xff0020bc>
        IOWR_ALTERA_AVALON_UART_TXDATA(UART_BASE, buf[i - 1]);
 10030d0:	e0bffd03 	ldbu	r2,-12(fp)
 10030d4:	10bfffc4 	addi	r2,r2,-1
 10030d8:	e0fffe17 	ldw	r3,-8(fp)
 10030dc:	1885883a 	add	r2,r3,r2
 10030e0:	10800003 	ldbu	r2,0(r2)
 10030e4:	10c03fcc 	andi	r3,r2,255
 10030e8:	00808034 	movhi	r2,512
 10030ec:	10889904 	addi	r2,r2,8804
 10030f0:	10c00035 	stwio	r3,0(r2)
    }
}

void SerialWrite_r(alt_u8* buf, alt_u8 num) 
{
    for (alt_u8 i = num; i > 0; i--) 
 10030f4:	e0bffd03 	ldbu	r2,-12(fp)
 10030f8:	10bfffc4 	addi	r2,r2,-1
 10030fc:	e0bffd05 	stb	r2,-12(fp)
 1003100:	e0bffd03 	ldbu	r2,-12(fp)
 1003104:	103fec1e 	bne	r2,zero,10030b8 <__alt_mem_epcs+0xff0020b8>
    {
        while (!(IORD_ALTERA_AVALON_UART_STATUS(UART_BASE) & ALTERA_AVALON_UART_STATUS_TRDY_MSK));
        IOWR_ALTERA_AVALON_UART_TXDATA(UART_BASE, buf[i - 1]);
    }
}
 1003108:	0001883a 	nop
 100310c:	e037883a 	mov	sp,fp
 1003110:	df000017 	ldw	fp,0(sp)
 1003114:	dec00104 	addi	sp,sp,4
 1003118:	f800283a 	ret

0100311c <SerialWrite_dbg_r>:

void SerialWrite_dbg_r(alt_u8* buf, alt_u8 num) 
{
 100311c:	defffc04 	addi	sp,sp,-16
 1003120:	df000315 	stw	fp,12(sp)
 1003124:	df000304 	addi	fp,sp,12
 1003128:	e13ffe15 	stw	r4,-8(fp)
 100312c:	2805883a 	mov	r2,r5
 1003130:	e0bfff05 	stb	r2,-4(fp)
    for (alt_u8 i = num; i > 0; i--) 
 1003134:	e0bfff03 	ldbu	r2,-4(fp)
 1003138:	e0bffd05 	stb	r2,-12(fp)
 100313c:	00001206 	br	1003188 <SerialWrite_dbg_r+0x6c>
    {
        while (!(IORD_ALTERA_AVALON_UART_STATUS(UART_DBG_BASE) & ALTERA_AVALON_UART_STATUS_TRDY_MSK));
 1003140:	0001883a 	nop
 1003144:	00808034 	movhi	r2,512
 1003148:	10889204 	addi	r2,r2,8776
 100314c:	10800037 	ldwio	r2,0(r2)
 1003150:	1080100c 	andi	r2,r2,64
 1003154:	103ffb26 	beq	r2,zero,1003144 <__alt_mem_epcs+0xff002144>
        IOWR_ALTERA_AVALON_UART_TXDATA(UART_DBG_BASE, buf[i - 1]);
 1003158:	e0bffd03 	ldbu	r2,-12(fp)
 100315c:	10bfffc4 	addi	r2,r2,-1
 1003160:	e0fffe17 	ldw	r3,-8(fp)
 1003164:	1885883a 	add	r2,r3,r2
 1003168:	10800003 	ldbu	r2,0(r2)
 100316c:	10c03fcc 	andi	r3,r2,255
 1003170:	00808034 	movhi	r2,512
 1003174:	10889104 	addi	r2,r2,8772
 1003178:	10c00035 	stwio	r3,0(r2)
    }
}

void SerialWrite_dbg_r(alt_u8* buf, alt_u8 num) 
{
    for (alt_u8 i = num; i > 0; i--) 
 100317c:	e0bffd03 	ldbu	r2,-12(fp)
 1003180:	10bfffc4 	addi	r2,r2,-1
 1003184:	e0bffd05 	stb	r2,-12(fp)
 1003188:	e0bffd03 	ldbu	r2,-12(fp)
 100318c:	103fec1e 	bne	r2,zero,1003140 <__alt_mem_epcs+0xff002140>
    {
        while (!(IORD_ALTERA_AVALON_UART_STATUS(UART_DBG_BASE) & ALTERA_AVALON_UART_STATUS_TRDY_MSK));
        IOWR_ALTERA_AVALON_UART_TXDATA(UART_DBG_BASE, buf[i - 1]);
    }
}
 1003190:	0001883a 	nop
 1003194:	e037883a 	mov	sp,fp
 1003198:	df000017 	ldw	fp,0(sp)
 100319c:	dec00104 	addi	sp,sp,4
 10031a0:	f800283a 	ret

010031a4 <IEEE_754_F2INT>:

int IEEE_754_F2INT(float in)
{
 10031a4:	defffd04 	addi	sp,sp,-12
 10031a8:	df000215 	stw	fp,8(sp)
 10031ac:	df000204 	addi	fp,sp,8
 10031b0:	e13fff15 	stw	r4,-4(fp)
	my_float_t temp;
	temp.float_val = in;
 10031b4:	e0bfff17 	ldw	r2,-4(fp)
 10031b8:	e0bffe15 	stw	r2,-8(fp)

	return temp.int_val;
 10031bc:	e0bffe17 	ldw	r2,-8(fp)
}
 10031c0:	e037883a 	mov	sp,fp
 10031c4:	df000017 	ldw	fp,0(sp)
 10031c8:	dec00104 	addi	sp,sp,4
 10031cc:	f800283a 	ret

010031d0 <crc32_init_table>:


void crc32_init_table() {
 10031d0:	defffc04 	addi	sp,sp,-16
 10031d4:	df000315 	stw	fp,12(sp)
 10031d8:	df000304 	addi	fp,sp,12
	for (int i = 0; i < 256; ++i) {
 10031dc:	e03ffd15 	stw	zero,-12(fp)
 10031e0:	00002306 	br	1003270 <crc32_init_table+0xa0>
		alt_u32 remainder = i << 24;
 10031e4:	e0bffd17 	ldw	r2,-12(fp)
 10031e8:	1004963a 	slli	r2,r2,24
 10031ec:	e0bffe15 	stw	r2,-8(fp)
		for (int bit = 0; bit < 8; ++bit) {
 10031f0:	e03fff15 	stw	zero,-4(fp)
 10031f4:	00001006 	br	1003238 <crc32_init_table+0x68>
			if (remainder & 0x80000000) {
 10031f8:	e0bffe17 	ldw	r2,-8(fp)
 10031fc:	1000080e 	bge	r2,zero,1003220 <crc32_init_table+0x50>
				remainder = (remainder << 1) ^ POLYNOMIAL_32;
 1003200:	e0bffe17 	ldw	r2,-8(fp)
 1003204:	1085883a 	add	r2,r2,r2
 1003208:	1007883a 	mov	r3,r2
 100320c:	00813074 	movhi	r2,1217
 1003210:	10876dc4 	addi	r2,r2,7607
 1003214:	1884f03a 	xor	r2,r3,r2
 1003218:	e0bffe15 	stw	r2,-8(fp)
 100321c:	00000306 	br	100322c <crc32_init_table+0x5c>
			} else {
				remainder = (remainder << 1);
 1003220:	e0bffe17 	ldw	r2,-8(fp)
 1003224:	1085883a 	add	r2,r2,r2
 1003228:	e0bffe15 	stw	r2,-8(fp)


void crc32_init_table() {
	for (int i = 0; i < 256; ++i) {
		alt_u32 remainder = i << 24;
		for (int bit = 0; bit < 8; ++bit) {
 100322c:	e0bfff17 	ldw	r2,-4(fp)
 1003230:	10800044 	addi	r2,r2,1
 1003234:	e0bfff15 	stw	r2,-4(fp)
 1003238:	e0bfff17 	ldw	r2,-4(fp)
 100323c:	10800210 	cmplti	r2,r2,8
 1003240:	103fed1e 	bne	r2,zero,10031f8 <__alt_mem_epcs+0xff0021f8>
				remainder = (remainder << 1) ^ POLYNOMIAL_32;
			} else {
				remainder = (remainder << 1);
			}
		}
		crc_table[i] = remainder;
 1003244:	008040b4 	movhi	r2,258
 1003248:	10945804 	addi	r2,r2,20832
 100324c:	e0fffd17 	ldw	r3,-12(fp)
 1003250:	18c7883a 	add	r3,r3,r3
 1003254:	18c7883a 	add	r3,r3,r3
 1003258:	10c5883a 	add	r2,r2,r3
 100325c:	e0fffe17 	ldw	r3,-8(fp)
 1003260:	10c00015 	stw	r3,0(r2)
	return temp.int_val;
}


void crc32_init_table() {
	for (int i = 0; i < 256; ++i) {
 1003264:	e0bffd17 	ldw	r2,-12(fp)
 1003268:	10800044 	addi	r2,r2,1
 100326c:	e0bffd15 	stw	r2,-12(fp)
 1003270:	e0bffd17 	ldw	r2,-12(fp)
 1003274:	10804010 	cmplti	r2,r2,256
 1003278:	103fda1e 	bne	r2,zero,10031e4 <__alt_mem_epcs+0xff0021e4>
				remainder = (remainder << 1);
			}
		}
		crc_table[i] = remainder;
	}
}
 100327c:	0001883a 	nop
 1003280:	e037883a 	mov	sp,fp
 1003284:	df000017 	ldw	fp,0(sp)
 1003288:	dec00104 	addi	sp,sp,4
 100328c:	f800283a 	ret

01003290 <crc_32>:

void crc_32(const alt_u8* message, alt_u8 nBytes, alt_u8* crc)
{
 1003290:	defffa04 	addi	sp,sp,-24
 1003294:	df000515 	stw	fp,20(sp)
 1003298:	df000504 	addi	fp,sp,20
 100329c:	e13ffd15 	stw	r4,-12(fp)
 10032a0:	2805883a 	mov	r2,r5
 10032a4:	e1bfff15 	stw	r6,-4(fp)
 10032a8:	e0bffe05 	stb	r2,-8(fp)
    alt_u32 remainder = 0xFFFFFFFF;
 10032ac:	00bfffc4 	movi	r2,-1
 10032b0:	e0bffb15 	stw	r2,-20(fp)

    for (alt_u8 byte = 0; byte < nBytes; ++byte)
 10032b4:	e03ffc05 	stb	zero,-16(fp)
 10032b8:	00001706 	br	1003318 <crc_32+0x88>
    {
        alt_u8 index = (remainder >> 24) ^ message[byte];
 10032bc:	e0bffb17 	ldw	r2,-20(fp)
 10032c0:	1004d63a 	srli	r2,r2,24
 10032c4:	1009883a 	mov	r4,r2
 10032c8:	e0bffc03 	ldbu	r2,-16(fp)
 10032cc:	e0fffd17 	ldw	r3,-12(fp)
 10032d0:	1885883a 	add	r2,r3,r2
 10032d4:	10800003 	ldbu	r2,0(r2)
 10032d8:	2084f03a 	xor	r2,r4,r2
 10032dc:	e0bffc45 	stb	r2,-15(fp)
        remainder = (remainder << 8) ^ crc_table[index];
 10032e0:	e0bffb17 	ldw	r2,-20(fp)
 10032e4:	1008923a 	slli	r4,r2,8
 10032e8:	e0fffc43 	ldbu	r3,-15(fp)
 10032ec:	008040b4 	movhi	r2,258
 10032f0:	10945804 	addi	r2,r2,20832
 10032f4:	18c7883a 	add	r3,r3,r3
 10032f8:	18c7883a 	add	r3,r3,r3
 10032fc:	10c5883a 	add	r2,r2,r3
 1003300:	10800017 	ldw	r2,0(r2)
 1003304:	2084f03a 	xor	r2,r4,r2
 1003308:	e0bffb15 	stw	r2,-20(fp)

void crc_32(const alt_u8* message, alt_u8 nBytes, alt_u8* crc)
{
    alt_u32 remainder = 0xFFFFFFFF;

    for (alt_u8 byte = 0; byte < nBytes; ++byte)
 100330c:	e0bffc03 	ldbu	r2,-16(fp)
 1003310:	10800044 	addi	r2,r2,1
 1003314:	e0bffc05 	stb	r2,-16(fp)
 1003318:	e0fffc03 	ldbu	r3,-16(fp)
 100331c:	e0bffe03 	ldbu	r2,-8(fp)
 1003320:	18bfe636 	bltu	r3,r2,10032bc <__alt_mem_epcs+0xff0022bc>
        alt_u8 index = (remainder >> 24) ^ message[byte];
        remainder = (remainder << 8) ^ crc_table[index];
    }

    //  (MSB first)
    crc[0] = (remainder >> 24) & 0xFF;
 1003324:	e0bffb17 	ldw	r2,-20(fp)
 1003328:	1004d63a 	srli	r2,r2,24
 100332c:	1007883a 	mov	r3,r2
 1003330:	e0bfff17 	ldw	r2,-4(fp)
 1003334:	10c00005 	stb	r3,0(r2)
    crc[1] = (remainder >> 16) & 0xFF;
 1003338:	e0bfff17 	ldw	r2,-4(fp)
 100333c:	10800044 	addi	r2,r2,1
 1003340:	e0fffb17 	ldw	r3,-20(fp)
 1003344:	1806d43a 	srli	r3,r3,16
 1003348:	10c00005 	stb	r3,0(r2)
    crc[2] = (remainder >> 8) & 0xFF;
 100334c:	e0bfff17 	ldw	r2,-4(fp)
 1003350:	10800084 	addi	r2,r2,2
 1003354:	e0fffb17 	ldw	r3,-20(fp)
 1003358:	1806d23a 	srli	r3,r3,8
 100335c:	10c00005 	stb	r3,0(r2)
    crc[3] = remainder & 0xFF;
 1003360:	e0bfff17 	ldw	r2,-4(fp)
 1003364:	108000c4 	addi	r2,r2,3
 1003368:	e0fffb17 	ldw	r3,-20(fp)
 100336c:	10c00005 	stb	r3,0(r2)
}
 1003370:	0001883a 	nop
 1003374:	e037883a 	mov	sp,fp
 1003378:	df000017 	ldw	fp,0(sp)
 100337c:	dec00104 	addi	sp,sp,4
 1003380:	f800283a 	ret

01003384 <print_crc>:
		
// 	}
// }


void print_crc(const char* label, alt_u8* crc) {
 1003384:	defffa04 	addi	sp,sp,-24
 1003388:	dfc00515 	stw	ra,20(sp)
 100338c:	df000415 	stw	fp,16(sp)
 1003390:	df000404 	addi	fp,sp,16
 1003394:	e13ffe15 	stw	r4,-8(fp)
 1003398:	e17fff15 	stw	r5,-4(fp)
	DEBUG_PRINT("%s: %02X %02X %02X %02X\n", label, crc[0], crc[1], crc[2], crc[3]);
 100339c:	e0bfff17 	ldw	r2,-4(fp)
 10033a0:	10800003 	ldbu	r2,0(r2)
 10033a4:	11003fcc 	andi	r4,r2,255
 10033a8:	e0bfff17 	ldw	r2,-4(fp)
 10033ac:	10800044 	addi	r2,r2,1
 10033b0:	10800003 	ldbu	r2,0(r2)
 10033b4:	11403fcc 	andi	r5,r2,255
 10033b8:	e0bfff17 	ldw	r2,-4(fp)
 10033bc:	10800084 	addi	r2,r2,2
 10033c0:	10800003 	ldbu	r2,0(r2)
 10033c4:	10803fcc 	andi	r2,r2,255
 10033c8:	e0ffff17 	ldw	r3,-4(fp)
 10033cc:	18c000c4 	addi	r3,r3,3
 10033d0:	18c00003 	ldbu	r3,0(r3)
 10033d4:	18c03fcc 	andi	r3,r3,255
 10033d8:	d8c00115 	stw	r3,4(sp)
 10033dc:	d8800015 	stw	r2,0(sp)
 10033e0:	280f883a 	mov	r7,r5
 10033e4:	200d883a 	mov	r6,r4
 10033e8:	e17ffe17 	ldw	r5,-8(fp)
 10033ec:	010040b4 	movhi	r4,258
 10033f0:	2106d804 	addi	r4,r4,7008
 10033f4:	1002ea00 	call	1002ea0 <uart_printf_dbg>
}
 10033f8:	0001883a 	nop
 10033fc:	e037883a 	mov	sp,fp
 1003400:	dfc00117 	ldw	ra,4(sp)
 1003404:	df000017 	ldw	fp,0(sp)
 1003408:	dec00204 	addi	sp,sp,8
 100340c:	f800283a 	ret

01003410 <get_uart_cmd>:

void get_uart_cmd(alt_u8* data, cmd_ctrl_t* rx)
{
 1003410:	defffa04 	addi	sp,sp,-24
 1003414:	dfc00515 	stw	ra,20(sp)
 1003418:	df000415 	stw	fp,16(sp)
 100341c:	df000404 	addi	fp,sp,16
 1003420:	e13ffe15 	stw	r4,-8(fp)
 1003424:	e17fff15 	stw	r5,-4(fp)
    if(data){
 1003428:	e0bffe17 	ldw	r2,-8(fp)
 100342c:	1000a426 	beq	r2,zero,10036c0 <get_uart_cmd+0x2b0>
		rx->condition = data[0];
 1003430:	e0bffe17 	ldw	r2,-8(fp)
 1003434:	10800003 	ldbu	r2,0(r2)
 1003438:	10c03fcc 	andi	r3,r2,255
 100343c:	e0bfff17 	ldw	r2,-4(fp)
 1003440:	10c00015 	stw	r3,0(r2)
		if(rx->condition == RX_CONDITION_ABBA_5556) { // update normal parameter
 1003444:	e0bfff17 	ldw	r2,-4(fp)
 1003448:	10800017 	ldw	r2,0(r2)
 100344c:	10800058 	cmpnei	r2,r2,1
 1003450:	1000351e 	bne	r2,zero,1003528 <get_uart_cmd+0x118>
			rx->complete = 1;
 1003454:	e0bfff17 	ldw	r2,-4(fp)
 1003458:	00c00044 	movi	r3,1
 100345c:	10c00445 	stb	r3,17(r2)
			rx->cmd = data[1];
 1003460:	e0bffe17 	ldw	r2,-8(fp)
 1003464:	10c00043 	ldbu	r3,1(r2)
 1003468:	e0bfff17 	ldw	r2,-4(fp)
 100346c:	10c00545 	stb	r3,21(r2)
			rx->value = data[2]<<24 | data[3]<<16 | data[4]<<8 | data[5];
 1003470:	e0bffe17 	ldw	r2,-8(fp)
 1003474:	10800084 	addi	r2,r2,2
 1003478:	10800003 	ldbu	r2,0(r2)
 100347c:	10803fcc 	andi	r2,r2,255
 1003480:	1006963a 	slli	r3,r2,24
 1003484:	e0bffe17 	ldw	r2,-8(fp)
 1003488:	108000c4 	addi	r2,r2,3
 100348c:	10800003 	ldbu	r2,0(r2)
 1003490:	10803fcc 	andi	r2,r2,255
 1003494:	1004943a 	slli	r2,r2,16
 1003498:	1886b03a 	or	r3,r3,r2
 100349c:	e0bffe17 	ldw	r2,-8(fp)
 10034a0:	10800104 	addi	r2,r2,4
 10034a4:	10800003 	ldbu	r2,0(r2)
 10034a8:	10803fcc 	andi	r2,r2,255
 10034ac:	1004923a 	slli	r2,r2,8
 10034b0:	1886b03a 	or	r3,r3,r2
 10034b4:	e0bffe17 	ldw	r2,-8(fp)
 10034b8:	10800144 	addi	r2,r2,5
 10034bc:	10800003 	ldbu	r2,0(r2)
 10034c0:	10803fcc 	andi	r2,r2,255
 10034c4:	1886b03a 	or	r3,r3,r2
 10034c8:	e0bfff17 	ldw	r2,-4(fp)
 10034cc:	10c00615 	stw	r3,24(r2)
			rx->ch = data[6];
 10034d0:	e0bffe17 	ldw	r2,-8(fp)
 10034d4:	10c00183 	ldbu	r3,6(r2)
 10034d8:	e0bfff17 	ldw	r2,-4(fp)
 10034dc:	10c00505 	stb	r3,20(r2)
			// UART_PRINT("\nuart_cmd, uart_value, ch, condition: 0x%x, %ld, %d, %u\n", rx->cmd , rx->value, rx->ch, rx->condition);
			DEBUG_PRINT("\nuart_cmd, uart_value, ch, condition: 0x%x, %ld, %d, %u\n", rx->cmd , rx->value, rx->ch, rx->condition);
 10034e0:	e0bfff17 	ldw	r2,-4(fp)
 10034e4:	10800543 	ldbu	r2,21(r2)
 10034e8:	10c03fcc 	andi	r3,r2,255
 10034ec:	e0bfff17 	ldw	r2,-4(fp)
 10034f0:	11000617 	ldw	r4,24(r2)
 10034f4:	e0bfff17 	ldw	r2,-4(fp)
 10034f8:	10800503 	ldbu	r2,20(r2)
 10034fc:	11403fcc 	andi	r5,r2,255
 1003500:	e0bfff17 	ldw	r2,-4(fp)
 1003504:	10800017 	ldw	r2,0(r2)
 1003508:	d8800015 	stw	r2,0(sp)
 100350c:	280f883a 	mov	r7,r5
 1003510:	200d883a 	mov	r6,r4
 1003514:	180b883a 	mov	r5,r3
 1003518:	010040b4 	movhi	r4,258
 100351c:	2106df04 	addi	r4,r4,7036
 1003520:	1002ea00 	call	1002ea0 <uart_printf_dbg>
 1003524:	00006706 	br	10036c4 <get_uart_cmd+0x2b4>
		}
		else if(rx->condition == RX_CONDITION_CDDC_5758) { // update SN
 1003528:	e0bfff17 	ldw	r2,-4(fp)
 100352c:	10800017 	ldw	r2,0(r2)
 1003530:	10800098 	cmpnei	r2,r2,2
 1003534:	1000291e 	bne	r2,zero,10035dc <get_uart_cmd+0x1cc>
			rx->complete = 1;
 1003538:	e0bfff17 	ldw	r2,-4(fp)
 100353c:	00c00044 	movi	r3,1
 1003540:	10c00445 	stb	r3,17(r2)
			rx->cmd = data[1];
 1003544:	e0bffe17 	ldw	r2,-8(fp)
 1003548:	10c00043 	ldbu	r3,1(r2)
 100354c:	e0bfff17 	ldw	r2,-4(fp)
 1003550:	10c00545 	stb	r3,21(r2)
			for (int i = 0; i < 12; i++) {
 1003554:	e03ffd15 	stw	zero,-12(fp)
 1003558:	00000d06 	br	1003590 <get_uart_cmd+0x180>
				rx->SN[i] = data[i + 2];  
 100355c:	e0bffd17 	ldw	r2,-12(fp)
 1003560:	10800084 	addi	r2,r2,2
 1003564:	e0fffe17 	ldw	r3,-8(fp)
 1003568:	1885883a 	add	r2,r3,r2
 100356c:	10c00003 	ldbu	r3,0(r2)
 1003570:	e13fff17 	ldw	r4,-4(fp)
 1003574:	e0bffd17 	ldw	r2,-12(fp)
 1003578:	2085883a 	add	r2,r4,r2
 100357c:	10800104 	addi	r2,r2,4
 1003580:	10c00005 	stb	r3,0(r2)
			DEBUG_PRINT("\nuart_cmd, uart_value, ch, condition: 0x%x, %ld, %d, %u\n", rx->cmd , rx->value, rx->ch, rx->condition);
		}
		else if(rx->condition == RX_CONDITION_CDDC_5758) { // update SN
			rx->complete = 1;
			rx->cmd = data[1];
			for (int i = 0; i < 12; i++) {
 1003584:	e0bffd17 	ldw	r2,-12(fp)
 1003588:	10800044 	addi	r2,r2,1
 100358c:	e0bffd15 	stw	r2,-12(fp)
 1003590:	e0bffd17 	ldw	r2,-12(fp)
 1003594:	10800310 	cmplti	r2,r2,12
 1003598:	103ff01e 	bne	r2,zero,100355c <__alt_mem_epcs+0xff00255c>
				rx->SN[i] = data[i + 2];  
			}
			rx->SN[12] = '\0'; 
 100359c:	e0bfff17 	ldw	r2,-4(fp)
 10035a0:	10000405 	stb	zero,16(r2)
			// UART_PRINT("\nuart_cmd, condition, SN: 0x%x, %u, %s\n", rx->cmd , rx->condition, rx->SN);
			DEBUG_PRINT("\nuart_cmd, condition, SN: 0x%x, %u, %s\n", rx->cmd , rx->condition, rx->SN);
 10035a4:	e0bfff17 	ldw	r2,-4(fp)
 10035a8:	10800543 	ldbu	r2,21(r2)
 10035ac:	10c03fcc 	andi	r3,r2,255
 10035b0:	e0bfff17 	ldw	r2,-4(fp)
 10035b4:	11000017 	ldw	r4,0(r2)
 10035b8:	e0bfff17 	ldw	r2,-4(fp)
 10035bc:	10800104 	addi	r2,r2,4
 10035c0:	100f883a 	mov	r7,r2
 10035c4:	200d883a 	mov	r6,r4
 10035c8:	180b883a 	mov	r5,r3
 10035cc:	010040b4 	movhi	r4,258
 10035d0:	2106ee04 	addi	r4,r4,7096
 10035d4:	1002ea00 	call	1002ea0 <uart_printf_dbg>
 10035d8:	00003a06 	br	10036c4 <get_uart_cmd+0x2b4>
		} 
		else if(rx->condition == RX_CONDITION_EFFE_5354) { // read normal parameter
 10035dc:	e0bfff17 	ldw	r2,-4(fp)
 10035e0:	10800017 	ldw	r2,0(r2)
 10035e4:	108000d8 	cmpnei	r2,r2,3
 10035e8:	1000361e 	bne	r2,zero,10036c4 <get_uart_cmd+0x2b4>
			rx->complete = 1;
 10035ec:	e0bfff17 	ldw	r2,-4(fp)
 10035f0:	00c00044 	movi	r3,1
 10035f4:	10c00445 	stb	r3,17(r2)
			rx->cmd = data[1];
 10035f8:	e0bffe17 	ldw	r2,-8(fp)
 10035fc:	10c00043 	ldbu	r3,1(r2)
 1003600:	e0bfff17 	ldw	r2,-4(fp)
 1003604:	10c00545 	stb	r3,21(r2)
			rx->value = data[2]<<24 | data[3]<<16 | data[4]<<8 | data[5];
 1003608:	e0bffe17 	ldw	r2,-8(fp)
 100360c:	10800084 	addi	r2,r2,2
 1003610:	10800003 	ldbu	r2,0(r2)
 1003614:	10803fcc 	andi	r2,r2,255
 1003618:	1006963a 	slli	r3,r2,24
 100361c:	e0bffe17 	ldw	r2,-8(fp)
 1003620:	108000c4 	addi	r2,r2,3
 1003624:	10800003 	ldbu	r2,0(r2)
 1003628:	10803fcc 	andi	r2,r2,255
 100362c:	1004943a 	slli	r2,r2,16
 1003630:	1886b03a 	or	r3,r3,r2
 1003634:	e0bffe17 	ldw	r2,-8(fp)
 1003638:	10800104 	addi	r2,r2,4
 100363c:	10800003 	ldbu	r2,0(r2)
 1003640:	10803fcc 	andi	r2,r2,255
 1003644:	1004923a 	slli	r2,r2,8
 1003648:	1886b03a 	or	r3,r3,r2
 100364c:	e0bffe17 	ldw	r2,-8(fp)
 1003650:	10800144 	addi	r2,r2,5
 1003654:	10800003 	ldbu	r2,0(r2)
 1003658:	10803fcc 	andi	r2,r2,255
 100365c:	1886b03a 	or	r3,r3,r2
 1003660:	e0bfff17 	ldw	r2,-4(fp)
 1003664:	10c00615 	stw	r3,24(r2)
			rx->ch = data[6];
 1003668:	e0bffe17 	ldw	r2,-8(fp)
 100366c:	10c00183 	ldbu	r3,6(r2)
 1003670:	e0bfff17 	ldw	r2,-4(fp)
 1003674:	10c00505 	stb	r3,20(r2)
			// UART_PRINT("\nuart_cmd, uart_value, ch, condition: 0x%x, %ld, %d, %u\n", rx->cmd , rx->value, rx->ch, rx->condition);
			DEBUG_PRINT("\nuart_cmd, uart_value, ch, condition: 0x%x, %ld, %d, %u\n", rx->cmd , rx->value, rx->ch, rx->condition);
 1003678:	e0bfff17 	ldw	r2,-4(fp)
 100367c:	10800543 	ldbu	r2,21(r2)
 1003680:	10c03fcc 	andi	r3,r2,255
 1003684:	e0bfff17 	ldw	r2,-4(fp)
 1003688:	11000617 	ldw	r4,24(r2)
 100368c:	e0bfff17 	ldw	r2,-4(fp)
 1003690:	10800503 	ldbu	r2,20(r2)
 1003694:	11403fcc 	andi	r5,r2,255
 1003698:	e0bfff17 	ldw	r2,-4(fp)
 100369c:	10800017 	ldw	r2,0(r2)
 10036a0:	d8800015 	stw	r2,0(sp)
 10036a4:	280f883a 	mov	r7,r5
 10036a8:	200d883a 	mov	r6,r4
 10036ac:	180b883a 	mov	r5,r3
 10036b0:	010040b4 	movhi	r4,258
 10036b4:	2106df04 	addi	r4,r4,7036
 10036b8:	1002ea00 	call	1002ea0 <uart_printf_dbg>
 10036bc:	00000106 	br	10036c4 <get_uart_cmd+0x2b4>
		} 
    }
    else return;
 10036c0:	0001883a 	nop
}
 10036c4:	e037883a 	mov	sp,fp
 10036c8:	dfc00117 	ldw	ra,4(sp)
 10036cc:	df000017 	ldw	fp,0(sp)
 10036d0:	dec00204 	addi	sp,sp,8
 10036d4:	f800283a 	ret

010036d8 <cmd_mux>:

void cmd_mux(cmd_ctrl_t* rx)
{
 10036d8:	defffe04 	addi	sp,sp,-8
 10036dc:	df000115 	stw	fp,4(sp)
 10036e0:	df000104 	addi	fp,sp,4
 10036e4:	e13fff15 	stw	r4,-4(fp)
	if(rx->complete == 1)
 10036e8:	e0bfff17 	ldw	r2,-4(fp)
 10036ec:	10800443 	ldbu	r2,17(r2)
 10036f0:	10803fcc 	andi	r2,r2,255
 10036f4:	10800058 	cmpnei	r2,r2,1
 10036f8:	10000d1e 	bne	r2,zero,1003730 <cmd_mux+0x58>
	{
        
		rx->complete = 0;
 10036fc:	e0bfff17 	ldw	r2,-4(fp)
 1003700:	10000445 	stb	zero,17(r2)
		if(rx->cmd >7) rx->mux = MUX_PARAMETER; 
 1003704:	e0bfff17 	ldw	r2,-4(fp)
 1003708:	10800543 	ldbu	r2,21(r2)
 100370c:	10803fcc 	andi	r2,r2,255
 1003710:	10800230 	cmpltui	r2,r2,8
 1003714:	1000041e 	bne	r2,zero,1003728 <cmd_mux+0x50>
 1003718:	e0bfff17 	ldw	r2,-4(fp)
 100371c:	00c00044 	movi	r3,1
 1003720:	10c00485 	stb	r3,18(r2)
		else rx->mux = MUX_OUTPUT;
        // DEBUG_PRINT("cmd_mux: mux=%u, complete=%u\n", rx->mux, rx->complete);
	}
}
 1003724:	00000206 	br	1003730 <cmd_mux+0x58>
	if(rx->complete == 1)
	{
        
		rx->complete = 0;
		if(rx->cmd >7) rx->mux = MUX_PARAMETER; 
		else rx->mux = MUX_OUTPUT;
 1003728:	e0bfff17 	ldw	r2,-4(fp)
 100372c:	10000485 	stb	zero,18(r2)
        // DEBUG_PRINT("cmd_mux: mux=%u, complete=%u\n", rx->mux, rx->complete);
	}
}
 1003730:	0001883a 	nop
 1003734:	e037883a 	mov	sp,fp
 1003738:	df000017 	ldw	fp,0(sp)
 100373c:	dec00104 	addi	sp,sp,4
 1003740:	f800283a 	ret

01003744 <Set_Dac_Gain_x>:

void Set_Dac_Gain_x(alt_32 gain)
{
 1003744:	defffd04 	addi	sp,sp,-12
 1003748:	dfc00215 	stw	ra,8(sp)
 100374c:	df000115 	stw	fp,4(sp)
 1003750:	df000104 	addi	fp,sp,4
 1003754:	e13fff15 	stw	r4,-4(fp)
	// UART_PRINT("Set_Dac_Gain_x: %d\n", gain);
	// DEBUG_PRINT("Set_Dac_Gain_x: %d\n", gain);
	// IOWR_ALTERA_AVALON_SPI_SLAVE_SEL(SPI_DAC_BASE, SEL_CS_DAC_2CH); usleep (10); 
	IOWR_ALTERA_AVALON_SPI_SLAVE_SEL(SPI_DAC_BASE, SEL_CS_DAC); usleep (10); 
 1003758:	00c00044 	movi	r3,1
 100375c:	00808034 	movhi	r2,512
 1003760:	10888504 	addi	r2,r2,8724
 1003764:	10c00035 	stwio	r3,0(r2)
 1003768:	01000284 	movi	r4,10
 100376c:	101dc480 	call	101dc48 <usleep>
	IOWR_ALTERA_AVALON_SPI_TXDATA(SPI_DAC_BASE, (DAC2_GAIN_LSB_ADDR<<8) | (gain&0xFF)); usleep (10);
 1003770:	e0bfff17 	ldw	r2,-4(fp)
 1003774:	10803fcc 	andi	r2,r2,255
 1003778:	10c3c014 	ori	r3,r2,3840
 100377c:	00808034 	movhi	r2,512
 1003780:	10888104 	addi	r2,r2,8708
 1003784:	10c00035 	stwio	r3,0(r2)
 1003788:	01000284 	movi	r4,10
 100378c:	101dc480 	call	101dc48 <usleep>
	IOWR_ALTERA_AVALON_SPI_TXDATA(SPI_DAC_BASE, (DAC2_GAIN_MSB_ADDR<<8) | (gain>>8)); usleep (10);
 1003790:	e0bfff17 	ldw	r2,-4(fp)
 1003794:	1005d23a 	srai	r2,r2,8
 1003798:	10c40014 	ori	r3,r2,4096
 100379c:	00808034 	movhi	r2,512
 10037a0:	10888104 	addi	r2,r2,8708
 10037a4:	10c00035 	stwio	r3,0(r2)
 10037a8:	01000284 	movi	r4,10
 10037ac:	101dc480 	call	101dc48 <usleep>
}
 10037b0:	0001883a 	nop
 10037b4:	e037883a 	mov	sp,fp
 10037b8:	dfc00117 	ldw	ra,4(sp)
 10037bc:	df000017 	ldw	fp,0(sp)
 10037c0:	dec00204 	addi	sp,sp,8
 10037c4:	f800283a 	ret

010037c8 <Set_Dac_Gain_y>:
void Set_Dac_Gain_y(alt_32 gain)
{
 10037c8:	defffd04 	addi	sp,sp,-12
 10037cc:	dfc00215 	stw	ra,8(sp)
 10037d0:	df000115 	stw	fp,4(sp)
 10037d4:	df000104 	addi	fp,sp,4
 10037d8:	e13fff15 	stw	r4,-4(fp)
	// UART_PRINT("Set_Dac_Gain_y: %d\n", gain);
	// DEBUG_PRINT("Set_Dac_Gain_y: %d\n", gain);
	IOWR_ALTERA_AVALON_SPI_SLAVE_SEL(SPI_DAC_BASE, SEL_CS_DAC); usleep (10); 
 10037dc:	00c00044 	movi	r3,1
 10037e0:	00808034 	movhi	r2,512
 10037e4:	10888504 	addi	r2,r2,8724
 10037e8:	10c00035 	stwio	r3,0(r2)
 10037ec:	01000284 	movi	r4,10
 10037f0:	101dc480 	call	101dc48 <usleep>
	IOWR_ALTERA_AVALON_SPI_TXDATA(SPI_DAC_BASE, (DAC2_GAIN_LSB_ADDR<<8) | (gain&0xFF)); usleep (10);
 10037f4:	e0bfff17 	ldw	r2,-4(fp)
 10037f8:	10803fcc 	andi	r2,r2,255
 10037fc:	10c3c014 	ori	r3,r2,3840
 1003800:	00808034 	movhi	r2,512
 1003804:	10888104 	addi	r2,r2,8708
 1003808:	10c00035 	stwio	r3,0(r2)
 100380c:	01000284 	movi	r4,10
 1003810:	101dc480 	call	101dc48 <usleep>
	IOWR_ALTERA_AVALON_SPI_TXDATA(SPI_DAC_BASE, (DAC2_GAIN_MSB_ADDR<<8) | (gain>>8)); usleep (10);
 1003814:	e0bfff17 	ldw	r2,-4(fp)
 1003818:	1005d23a 	srai	r2,r2,8
 100381c:	10c40014 	ori	r3,r2,4096
 1003820:	00808034 	movhi	r2,512
 1003824:	10888104 	addi	r2,r2,8708
 1003828:	10c00035 	stwio	r3,0(r2)
 100382c:	01000284 	movi	r4,10
 1003830:	101dc480 	call	101dc48 <usleep>
}
 1003834:	0001883a 	nop
 1003838:	e037883a 	mov	sp,fp
 100383c:	dfc00117 	ldw	ra,4(sp)
 1003840:	df000017 	ldw	fp,0(sp)
 1003844:	dec00204 	addi	sp,sp,8
 1003848:	f800283a 	ret

0100384c <Set_Dac_Gain_z>:
void Set_Dac_Gain_z(alt_32 gain)
{
 100384c:	defffd04 	addi	sp,sp,-12
 1003850:	dfc00215 	stw	ra,8(sp)
 1003854:	df000115 	stw	fp,4(sp)
 1003858:	df000104 	addi	fp,sp,4
 100385c:	e13fff15 	stw	r4,-4(fp)
	// UART_PRINT("Set_Dac_Gain_z: %d\n", gain);
	// DEBUG_PRINT("Set_Dac_Gain_z: %d\n", gain);
	IOWR_ALTERA_AVALON_SPI_SLAVE_SEL(SPI_DAC_BASE, SEL_CS_DAC); usleep (10); 
 1003860:	00c00044 	movi	r3,1
 1003864:	00808034 	movhi	r2,512
 1003868:	10888504 	addi	r2,r2,8724
 100386c:	10c00035 	stwio	r3,0(r2)
 1003870:	01000284 	movi	r4,10
 1003874:	101dc480 	call	101dc48 <usleep>
	IOWR_ALTERA_AVALON_SPI_TXDATA(SPI_DAC_BASE, (DAC2_GAIN_LSB_ADDR<<8) | (gain&0xFF)); usleep (10);
 1003878:	e0bfff17 	ldw	r2,-4(fp)
 100387c:	10803fcc 	andi	r2,r2,255
 1003880:	10c3c014 	ori	r3,r2,3840
 1003884:	00808034 	movhi	r2,512
 1003888:	10888104 	addi	r2,r2,8708
 100388c:	10c00035 	stwio	r3,0(r2)
 1003890:	01000284 	movi	r4,10
 1003894:	101dc480 	call	101dc48 <usleep>
	IOWR_ALTERA_AVALON_SPI_TXDATA(SPI_DAC_BASE, (DAC2_GAIN_MSB_ADDR<<8) | (gain>>8)); usleep (10);
 1003898:	e0bfff17 	ldw	r2,-4(fp)
 100389c:	1005d23a 	srai	r2,r2,8
 10038a0:	10c40014 	ori	r3,r2,4096
 10038a4:	00808034 	movhi	r2,512
 10038a8:	10888104 	addi	r2,r2,8708
 10038ac:	10c00035 	stwio	r3,0(r2)
 10038b0:	01000284 	movi	r4,10
 10038b4:	101dc480 	call	101dc48 <usleep>
}
 10038b8:	0001883a 	nop
 10038bc:	e037883a 	mov	sp,fp
 10038c0:	dfc00117 	ldw	ra,4(sp)
 10038c4:	df000017 	ldw	fp,0(sp)
 10038c8:	dec00204 	addi	sp,sp,8
 10038cc:	f800283a 	ret

010038d0 <fog_parameter>:


void fog_parameter(cmd_ctrl_t* rx, fog_parameter_t* fog_inst)
{
 10038d0:	deffb104 	addi	sp,sp,-316
 10038d4:	dfc04e15 	stw	ra,312(sp)
 10038d8:	df004d15 	stw	fp,308(sp)
 10038dc:	df004d04 	addi	fp,sp,308
 10038e0:	e13ffe15 	stw	r4,-8(fp)
 10038e4:	e17fff15 	stw	r5,-4(fp)

	if(rx->mux == MUX_PARAMETER){
 10038e8:	e0bffe17 	ldw	r2,-8(fp)
 10038ec:	10800483 	ldbu	r2,18(r2)
 10038f0:	10803fcc 	andi	r2,r2,255
 10038f4:	10800058 	cmpnei	r2,r2,1
 10038f8:	100cb51e 	bne	r2,zero,1006bd0 <fog_parameter+0x3300>
        // DEBUG_PRINT("fog_parameter\n");
        rx->mux = MUX_ESCAPE;
 10038fc:	e0bffe17 	ldw	r2,-8(fp)
 1003900:	00c00084 	movi	r3,2
 1003904:	10c00485 	stb	r3,18(r2)
		alt_u8 base = 0;
 1003908:	e03fb305 	stb	zero,-308(fp)
		alt_8 cmd2hwreg=0;
 100390c:	e03fb345 	stb	zero,-307(fp)

            if(rx->ch == 1) {
 1003910:	e0bffe17 	ldw	r2,-8(fp)
 1003914:	10800503 	ldbu	r2,20(r2)
 1003918:	10803fcc 	andi	r2,r2,255
 100391c:	10800058 	cmpnei	r2,r2,1
 1003920:	1000051e 	bne	r2,zero,1003938 <fog_parameter+0x68>
				base = MEM_BASE_X;
 1003924:	008000c4 	movi	r2,3
 1003928:	e0bfb305 	stb	r2,-308(fp)
				cmd2hwreg = CMD_TO_HW_REG_OFFSET_CH1; // 1
 100392c:	00bffe04 	movi	r2,-8
 1003930:	e0bfb345 	stb	r2,-307(fp)
 1003934:	00002306 	br	10039c4 <fog_parameter+0xf4>
			}
			else if(rx->ch == 2) {
 1003938:	e0bffe17 	ldw	r2,-8(fp)
 100393c:	10800503 	ldbu	r2,20(r2)
 1003940:	10803fcc 	andi	r2,r2,255
 1003944:	10800098 	cmpnei	r2,r2,2
 1003948:	1000051e 	bne	r2,zero,1003960 <fog_parameter+0x90>
				base = MEM_BASE_Y;
 100394c:	00800ac4 	movi	r2,43
 1003950:	e0bfb305 	stb	r2,-308(fp)
				cmd2hwreg = CMD_TO_HW_REG_OFFSET_CH2; // 12
 1003954:	008000c4 	movi	r2,3
 1003958:	e0bfb345 	stb	r2,-307(fp)
 100395c:	00001906 	br	10039c4 <fog_parameter+0xf4>
			}
			else if(rx->ch == 3) {
 1003960:	e0bffe17 	ldw	r2,-8(fp)
 1003964:	10800503 	ldbu	r2,20(r2)
 1003968:	10803fcc 	andi	r2,r2,255
 100396c:	108000d8 	cmpnei	r2,r2,3
 1003970:	1000051e 	bne	r2,zero,1003988 <fog_parameter+0xb8>
				base = MEM_BASE_Z;
 1003974:	008014c4 	movi	r2,83
 1003978:	e0bfb305 	stb	r2,-308(fp)
				cmd2hwreg = CMD_TO_HW_REG_OFFSET_CH3; // 23
 100397c:	00800384 	movi	r2,14
 1003980:	e0bfb345 	stb	r2,-307(fp)
 1003984:	00000f06 	br	10039c4 <fog_parameter+0xf4>
			}
			else if(rx->ch == 4) {
 1003988:	e0bffe17 	ldw	r2,-8(fp)
 100398c:	10800503 	ldbu	r2,20(r2)
 1003990:	10803fcc 	andi	r2,r2,255
 1003994:	10800118 	cmpnei	r2,r2,4
 1003998:	1000031e 	bne	r2,zero,10039a8 <fog_parameter+0xd8>
				base = MEM_BASE_MIS;
 100399c:	00801ec4 	movi	r2,123
 10039a0:	e0bfb305 	stb	r2,-308(fp)
 10039a4:	00000706 	br	10039c4 <fog_parameter+0xf4>
			}
			else if(rx->ch == 6) {
 10039a8:	e0bffe17 	ldw	r2,-8(fp)
 10039ac:	10800503 	ldbu	r2,20(r2)
 10039b0:	10803fcc 	andi	r2,r2,255
 10039b4:	10800198 	cmpnei	r2,r2,6
 10039b8:	1000021e 	bne	r2,zero,10039c4 <fog_parameter+0xf4>
				base = MEM_BASE_CFG;
 10039bc:	00bfe644 	movi	r2,-103
 10039c0:	e0bfb305 	stb	r2,-308(fp)
			}

			if(rx->condition == RX_CONDITION_ABBA_5556 || rx->condition == RX_CONDITION_EFFE_5354) {
 10039c4:	e0bffe17 	ldw	r2,-8(fp)
 10039c8:	10800017 	ldw	r2,0(r2)
 10039cc:	10800060 	cmpeqi	r2,r2,1
 10039d0:	1000041e 	bne	r2,zero,10039e4 <fog_parameter+0x114>
 10039d4:	e0bffe17 	ldw	r2,-8(fp)
 10039d8:	10800017 	ldw	r2,0(r2)
 10039dc:	108000d8 	cmpnei	r2,r2,3
 10039e0:	100c141e 	bne	r2,zero,1006a34 <fog_parameter+0x3164>
				switch(rx->cmd ){
 10039e4:	e0bffe17 	ldw	r2,-8(fp)
 10039e8:	10800543 	ldbu	r2,21(r2)
 10039ec:	10803fcc 	andi	r2,r2,255
 10039f0:	10bffe04 	addi	r2,r2,-8
 10039f4:	10c01f68 	cmpgeui	r3,r2,125
 10039f8:	180b901e 	bne	r3,zero,100683c <fog_parameter+0x2f6c>
 10039fc:	100690ba 	slli	r3,r2,2
 1003a00:	00804034 	movhi	r2,256
 1003a04:	108e8504 	addi	r2,r2,14868
 1003a08:	1885883a 	add	r2,r3,r2
 1003a0c:	10800017 	ldw	r2,0(r2)
 1003a10:	1000683a 	jmp	r2
 1003a14:	01003c08 	cmpgei	r4,zero,240
 1003a18:	01003ccc 	andi	r4,zero,243
 1003a1c:	01003d90 	cmplti	r4,zero,246
 1003a20:	01003e54 	movui	r4,249
 1003a24:	01003f18 	cmpnei	r4,zero,252
 1003a28:	01003fdc 	xori	r4,zero,255
 1003a2c:	010040a0 	cmpeqi	r4,zero,258
 1003a30:	01004164 	muli	r4,zero,261
 1003a34:	01004228 	cmpgeui	r4,zero,264
 1003a38:	010042ec 	andhi	r4,zero,267
 1003a3c:	010043b0 	cmpltui	r4,zero,270
 1003a40:	01004474 	movhi	r4,273
 1003a44:	01004568 	cmpgeui	r4,zero,277
 1003a48:	0100462c 	andhi	r4,zero,280
 1003a4c:	010046f0 	cmpltui	r4,zero,283
 1003a50:	010047b4 	movhi	r4,286
 1003a54:	0100484c 	andi	r4,zero,289
 1003a58:	010048e4 	muli	r4,zero,291
 1003a5c:	0100497c 	xorhi	r4,zero,293
 1003a60:	01004a14 	movui	r4,296
 1003a64:	01004aac 	andhi	r4,zero,298
 1003a68:	01004b44 	movi	r4,301
 1003a6c:	01004bdc 	xori	r4,zero,303
 1003a70:	01004c74 	movhi	r4,305
 1003a74:	01004d0c 	andi	r4,zero,308
 1003a78:	01004da4 	muli	r4,zero,310
 1003a7c:	01004e3c 	xorhi	r4,zero,312
 1003a80:	01004ed4 	movui	r4,315
 1003a84:	01004f6c 	andhi	r4,zero,317
 1003a88:	01005004 	movi	r4,320
 1003a8c:	0100509c 	xori	r4,zero,322
 1003a90:	01005134 	movhi	r4,324
 1003a94:	010051cc 	andi	r4,zero,327
 1003a98:	01005264 	muli	r4,zero,329
 1003a9c:	010052fc 	xorhi	r4,zero,331
 1003aa0:	0100683c 	xorhi	r4,zero,416
 1003aa4:	0100683c 	xorhi	r4,zero,416
 1003aa8:	0100683c 	xorhi	r4,zero,416
 1003aac:	0100683c 	xorhi	r4,zero,416
 1003ab0:	0100683c 	xorhi	r4,zero,416
 1003ab4:	01005394 	movui	r4,334
 1003ab8:	01005450 	cmplti	r4,zero,337
 1003abc:	0100550c 	andi	r4,zero,340
 1003ac0:	010055c8 	cmpgei	r4,zero,343
 1003ac4:	01005684 	movi	r4,346
 1003ac8:	01005740 	call	100574 <__alt_mem_sdram-0xeffa8c>
 1003acc:	010057fc 	xorhi	r4,zero,351
 1003ad0:	010058b8 	rdprs	r4,zero,354
 1003ad4:	01005974 	movhi	r4,357
 1003ad8:	01005a30 	cmpltui	r4,zero,360
 1003adc:	01005aec 	andhi	r4,zero,363
 1003ae0:	01005ba8 	cmpgeui	r4,zero,366
 1003ae4:	01005c64 	muli	r4,zero,369
 1003ae8:	01005d20 	cmpeqi	r4,zero,372
 1003aec:	01005ddc 	xori	r4,zero,375
 1003af0:	01005e98 	cmpnei	r4,zero,378
 1003af4:	01005f54 	movui	r4,381
 1003af8:	01006010 	cmplti	r4,zero,384
 1003afc:	010060cc 	andi	r4,zero,387
 1003b00:	01006188 	cmpgei	r4,zero,390
 1003b04:	01006244 	movi	r4,393
 1003b08:	01006300 	call	100630 <__alt_mem_sdram-0xeff9d0>
 1003b0c:	010063bc 	xorhi	r4,zero,398
 1003b10:	01006478 	rdprs	r4,zero,401
 1003b14:	01006534 	movhi	r4,404
 1003b18:	010065f0 	cmpltui	r4,zero,407
 1003b1c:	0100683c 	xorhi	r4,zero,416
 1003b20:	0100683c 	xorhi	r4,zero,416
 1003b24:	0100683c 	xorhi	r4,zero,416
 1003b28:	0100683c 	xorhi	r4,zero,416
 1003b2c:	0100683c 	xorhi	r4,zero,416
 1003b30:	0100683c 	xorhi	r4,zero,416
 1003b34:	0100683c 	xorhi	r4,zero,416
 1003b38:	0100683c 	xorhi	r4,zero,416
 1003b3c:	0100683c 	xorhi	r4,zero,416
 1003b40:	0100683c 	xorhi	r4,zero,416
 1003b44:	0100683c 	xorhi	r4,zero,416
 1003b48:	0100683c 	xorhi	r4,zero,416
 1003b4c:	0100683c 	xorhi	r4,zero,416
 1003b50:	0100683c 	xorhi	r4,zero,416
 1003b54:	0100683c 	xorhi	r4,zero,416
 1003b58:	0100683c 	xorhi	r4,zero,416
 1003b5c:	0100683c 	xorhi	r4,zero,416
 1003b60:	0100683c 	xorhi	r4,zero,416
 1003b64:	0100683c 	xorhi	r4,zero,416
 1003b68:	0100683c 	xorhi	r4,zero,416
 1003b6c:	0100683c 	xorhi	r4,zero,416
 1003b70:	0100683c 	xorhi	r4,zero,416
 1003b74:	0100683c 	xorhi	r4,zero,416
 1003b78:	0100683c 	xorhi	r4,zero,416
 1003b7c:	0100683c 	xorhi	r4,zero,416
 1003b80:	010067e4 	muli	r4,zero,415
 1003b84:	01006818 	cmpnei	r4,zero,416
 1003b88:	010067f4 	movhi	r4,415
 1003b8c:	010066ac 	andhi	r4,zero,410
 1003b90:	0100683c 	xorhi	r4,zero,416
 1003b94:	0100683c 	xorhi	r4,zero,416
 1003b98:	0100683c 	xorhi	r4,zero,416
 1003b9c:	0100683c 	xorhi	r4,zero,416
 1003ba0:	0100683c 	xorhi	r4,zero,416
 1003ba4:	0100683c 	xorhi	r4,zero,416
 1003ba8:	0100683c 	xorhi	r4,zero,416
 1003bac:	0100683c 	xorhi	r4,zero,416
 1003bb0:	0100683c 	xorhi	r4,zero,416
 1003bb4:	0100683c 	xorhi	r4,zero,416
 1003bb8:	0100683c 	xorhi	r4,zero,416
 1003bbc:	0100683c 	xorhi	r4,zero,416
 1003bc0:	0100683c 	xorhi	r4,zero,416
 1003bc4:	0100683c 	xorhi	r4,zero,416
 1003bc8:	0100683c 	xorhi	r4,zero,416
 1003bcc:	0100683c 	xorhi	r4,zero,416
 1003bd0:	0100683c 	xorhi	r4,zero,416
 1003bd4:	0100683c 	xorhi	r4,zero,416
 1003bd8:	0100683c 	xorhi	r4,zero,416
 1003bdc:	0100683c 	xorhi	r4,zero,416
 1003be0:	0100683c 	xorhi	r4,zero,416
 1003be4:	0100683c 	xorhi	r4,zero,416
 1003be8:	0100683c 	xorhi	r4,zero,416
 1003bec:	0100683c 	xorhi	r4,zero,416
 1003bf0:	0100683c 	xorhi	r4,zero,416
 1003bf4:	0100683c 	xorhi	r4,zero,416
 1003bf8:	010066f8 	rdprs	r4,zero,411
 1003bfc:	01006734 	movhi	r4,412
 1003c00:	010067ac 	andhi	r4,zero,414
 1003c04:	01006770 	cmpltui	r4,zero,413
					case CMD_MOD_FREQ: {
						DEBUG_PRINT("CMD_MOD_FREQ:\n");	
 1003c08:	010040b4 	movhi	r4,258
 1003c0c:	2106f804 	addi	r4,r4,7136
 1003c10:	1002ea00 	call	1002ea0 <uart_printf_dbg>
						if(rx->condition == 1) {
 1003c14:	e0bffe17 	ldw	r2,-8(fp)
 1003c18:	10800017 	ldw	r2,0(r2)
 1003c1c:	10800058 	cmpnei	r2,r2,1
 1003c20:	10001a1e 	bne	r2,zero,1003c8c <fog_parameter+0x3bc>
							PARAMETER_Write_s(base, CMD_MOD_FREQ - CONTAINER_TO_CMD_OFFSET, rx->value, fog_inst);
 1003c24:	e0ffb303 	ldbu	r3,-308(fp)
 1003c28:	e0bffe17 	ldw	r2,-8(fp)
 1003c2c:	10800617 	ldw	r2,24(r2)
 1003c30:	e1ffff17 	ldw	r7,-4(fp)
 1003c34:	100d883a 	mov	r6,r2
 1003c38:	000b883a 	mov	r5,zero
 1003c3c:	1809883a 	mov	r4,r3
 1003c40:	1008db80 	call	1008db8 <PARAMETER_Write_s>
							IOWR(VARSET_BASE, CMD_MOD_FREQ + cmd2hwreg, rx->value);
 1003c44:	e0bfb347 	ldb	r2,-307(fp)
 1003c48:	10800204 	addi	r2,r2,8
 1003c4c:	1085883a 	add	r2,r2,r2
 1003c50:	1085883a 	add	r2,r2,r2
 1003c54:	1007883a 	mov	r3,r2
 1003c58:	00808034 	movhi	r2,512
 1003c5c:	10880004 	addi	r2,r2,8192
 1003c60:	1885883a 	add	r2,r3,r2
 1003c64:	e0fffe17 	ldw	r3,-8(fp)
 1003c68:	18c00617 	ldw	r3,24(r3)
 1003c6c:	10c00035 	stwio	r3,0(r2)
							DEBUG_PRINT("WRITE: %d\n", rx->value);	
 1003c70:	e0bffe17 	ldw	r2,-8(fp)
 1003c74:	10800617 	ldw	r2,24(r2)
 1003c78:	100b883a 	mov	r5,r2
 1003c7c:	010040b4 	movhi	r4,258
 1003c80:	2106fc04 	addi	r4,r4,7152
 1003c84:	1002ea00 	call	1002ea0 <uart_printf_dbg>
						else if(rx->condition == 3) {
							data_t data;
							PARAMETER_Read(base, CMD_MOD_FREQ - CONTAINER_TO_CMD_OFFSET, data.bin_val);
							DEBUG_PRINT("READ: %d\n", data.int_val);	
						}			
						break;
 1003c88:	000af006 	br	100684c <fog_parameter+0x2f7c>
						if(rx->condition == 1) {
							PARAMETER_Write_s(base, CMD_MOD_FREQ - CONTAINER_TO_CMD_OFFSET, rx->value, fog_inst);
							IOWR(VARSET_BASE, CMD_MOD_FREQ + cmd2hwreg, rx->value);
							DEBUG_PRINT("WRITE: %d\n", rx->value);	
						}
						else if(rx->condition == 3) {
 1003c8c:	e0bffe17 	ldw	r2,-8(fp)
 1003c90:	10800017 	ldw	r2,0(r2)
 1003c94:	108000d8 	cmpnei	r2,r2,3
 1003c98:	100aec1e 	bne	r2,zero,100684c <fog_parameter+0x2f7c>
							data_t data;
							PARAMETER_Read(base, CMD_MOD_FREQ - CONTAINER_TO_CMD_OFFSET, data.bin_val);
 1003c9c:	e0bfb303 	ldbu	r2,-308(fp)
 1003ca0:	e0ffc104 	addi	r3,fp,-252
 1003ca4:	180d883a 	mov	r6,r3
 1003ca8:	000b883a 	mov	r5,zero
 1003cac:	1009883a 	mov	r4,r2
 1003cb0:	1008d080 	call	1008d08 <PARAMETER_Read>
							DEBUG_PRINT("READ: %d\n", data.int_val);	
 1003cb4:	e0bfc117 	ldw	r2,-252(fp)
 1003cb8:	100b883a 	mov	r5,r2
 1003cbc:	010040b4 	movhi	r4,258
 1003cc0:	2106ff04 	addi	r4,r4,7164
 1003cc4:	1002ea00 	call	1002ea0 <uart_printf_dbg>
						}			
						break;
 1003cc8:	000ae006 	br	100684c <fog_parameter+0x2f7c>
					}
					case CMD_MOD_AMP_H: {
						DEBUG_PRINT("CMD_MOD_AMP_H:\n");					
 1003ccc:	010040b4 	movhi	r4,258
 1003cd0:	21070204 	addi	r4,r4,7176
 1003cd4:	1002ea00 	call	1002ea0 <uart_printf_dbg>
						if(rx->condition == 1) {
 1003cd8:	e0bffe17 	ldw	r2,-8(fp)
 1003cdc:	10800017 	ldw	r2,0(r2)
 1003ce0:	10800058 	cmpnei	r2,r2,1
 1003ce4:	10001a1e 	bne	r2,zero,1003d50 <fog_parameter+0x480>
							PARAMETER_Write_s(base, CMD_MOD_AMP_H - CONTAINER_TO_CMD_OFFSET, rx->value, fog_inst);
 1003ce8:	e0ffb303 	ldbu	r3,-308(fp)
 1003cec:	e0bffe17 	ldw	r2,-8(fp)
 1003cf0:	10800617 	ldw	r2,24(r2)
 1003cf4:	e1ffff17 	ldw	r7,-4(fp)
 1003cf8:	100d883a 	mov	r6,r2
 1003cfc:	01400044 	movi	r5,1
 1003d00:	1809883a 	mov	r4,r3
 1003d04:	1008db80 	call	1008db8 <PARAMETER_Write_s>
							IOWR(VARSET_BASE, CMD_MOD_AMP_H + cmd2hwreg, rx->value);
 1003d08:	e0bfb347 	ldb	r2,-307(fp)
 1003d0c:	10800244 	addi	r2,r2,9
 1003d10:	1085883a 	add	r2,r2,r2
 1003d14:	1085883a 	add	r2,r2,r2
 1003d18:	1007883a 	mov	r3,r2
 1003d1c:	00808034 	movhi	r2,512
 1003d20:	10880004 	addi	r2,r2,8192
 1003d24:	1885883a 	add	r2,r3,r2
 1003d28:	e0fffe17 	ldw	r3,-8(fp)
 1003d2c:	18c00617 	ldw	r3,24(r3)
 1003d30:	10c00035 	stwio	r3,0(r2)
							DEBUG_PRINT("WRITE: %d\n", rx->value);	
 1003d34:	e0bffe17 	ldw	r2,-8(fp)
 1003d38:	10800617 	ldw	r2,24(r2)
 1003d3c:	100b883a 	mov	r5,r2
 1003d40:	010040b4 	movhi	r4,258
 1003d44:	2106fc04 	addi	r4,r4,7152
 1003d48:	1002ea00 	call	1002ea0 <uart_printf_dbg>
						else if(rx->condition == 3) {
							data_t data;
							PARAMETER_Read(base, CMD_MOD_AMP_H - CONTAINER_TO_CMD_OFFSET, data.bin_val);
							DEBUG_PRINT("READ: %d\n", data.int_val);	
						}
						break;
 1003d4c:	000ac106 	br	1006854 <fog_parameter+0x2f84>
						if(rx->condition == 1) {
							PARAMETER_Write_s(base, CMD_MOD_AMP_H - CONTAINER_TO_CMD_OFFSET, rx->value, fog_inst);
							IOWR(VARSET_BASE, CMD_MOD_AMP_H + cmd2hwreg, rx->value);
							DEBUG_PRINT("WRITE: %d\n", rx->value);	
						}
						else if(rx->condition == 3) {
 1003d50:	e0bffe17 	ldw	r2,-8(fp)
 1003d54:	10800017 	ldw	r2,0(r2)
 1003d58:	108000d8 	cmpnei	r2,r2,3
 1003d5c:	100abd1e 	bne	r2,zero,1006854 <fog_parameter+0x2f84>
							data_t data;
							PARAMETER_Read(base, CMD_MOD_AMP_H - CONTAINER_TO_CMD_OFFSET, data.bin_val);
 1003d60:	e0bfb303 	ldbu	r2,-308(fp)
 1003d64:	e0ffc204 	addi	r3,fp,-248
 1003d68:	180d883a 	mov	r6,r3
 1003d6c:	01400044 	movi	r5,1
 1003d70:	1009883a 	mov	r4,r2
 1003d74:	1008d080 	call	1008d08 <PARAMETER_Read>
							DEBUG_PRINT("READ: %d\n", data.int_val);	
 1003d78:	e0bfc217 	ldw	r2,-248(fp)
 1003d7c:	100b883a 	mov	r5,r2
 1003d80:	010040b4 	movhi	r4,258
 1003d84:	2106ff04 	addi	r4,r4,7164
 1003d88:	1002ea00 	call	1002ea0 <uart_printf_dbg>
						}
						break;
 1003d8c:	000ab106 	br	1006854 <fog_parameter+0x2f84>
					}
					case CMD_MOD_AMP_L: {
						DEBUG_PRINT("CMD_MOD_AMP_L:\n");					
 1003d90:	010040b4 	movhi	r4,258
 1003d94:	21070604 	addi	r4,r4,7192
 1003d98:	1002ea00 	call	1002ea0 <uart_printf_dbg>
						if(rx->condition == 1) {
 1003d9c:	e0bffe17 	ldw	r2,-8(fp)
 1003da0:	10800017 	ldw	r2,0(r2)
 1003da4:	10800058 	cmpnei	r2,r2,1
 1003da8:	10001a1e 	bne	r2,zero,1003e14 <fog_parameter+0x544>
							PARAMETER_Write_s(base, CMD_MOD_AMP_L - CONTAINER_TO_CMD_OFFSET, rx->value, fog_inst);
 1003dac:	e0ffb303 	ldbu	r3,-308(fp)
 1003db0:	e0bffe17 	ldw	r2,-8(fp)
 1003db4:	10800617 	ldw	r2,24(r2)
 1003db8:	e1ffff17 	ldw	r7,-4(fp)
 1003dbc:	100d883a 	mov	r6,r2
 1003dc0:	01400084 	movi	r5,2
 1003dc4:	1809883a 	mov	r4,r3
 1003dc8:	1008db80 	call	1008db8 <PARAMETER_Write_s>
							IOWR(VARSET_BASE, CMD_MOD_AMP_L + cmd2hwreg, rx->value);
 1003dcc:	e0bfb347 	ldb	r2,-307(fp)
 1003dd0:	10800284 	addi	r2,r2,10
 1003dd4:	1085883a 	add	r2,r2,r2
 1003dd8:	1085883a 	add	r2,r2,r2
 1003ddc:	1007883a 	mov	r3,r2
 1003de0:	00808034 	movhi	r2,512
 1003de4:	10880004 	addi	r2,r2,8192
 1003de8:	1885883a 	add	r2,r3,r2
 1003dec:	e0fffe17 	ldw	r3,-8(fp)
 1003df0:	18c00617 	ldw	r3,24(r3)
 1003df4:	10c00035 	stwio	r3,0(r2)
							DEBUG_PRINT("WRITE: %d\n", rx->value);	
 1003df8:	e0bffe17 	ldw	r2,-8(fp)
 1003dfc:	10800617 	ldw	r2,24(r2)
 1003e00:	100b883a 	mov	r5,r2
 1003e04:	010040b4 	movhi	r4,258
 1003e08:	2106fc04 	addi	r4,r4,7152
 1003e0c:	1002ea00 	call	1002ea0 <uart_printf_dbg>
						else if(rx->condition == 3) {
							data_t data;
							PARAMETER_Read(base, CMD_MOD_AMP_L - CONTAINER_TO_CMD_OFFSET, data.bin_val);
							DEBUG_PRINT("READ: %d\n", data.int_val);	
						}
						break;
 1003e10:	000a9206 	br	100685c <fog_parameter+0x2f8c>
						if(rx->condition == 1) {
							PARAMETER_Write_s(base, CMD_MOD_AMP_L - CONTAINER_TO_CMD_OFFSET, rx->value, fog_inst);
							IOWR(VARSET_BASE, CMD_MOD_AMP_L + cmd2hwreg, rx->value);
							DEBUG_PRINT("WRITE: %d\n", rx->value);	
						}
						else if(rx->condition == 3) {
 1003e14:	e0bffe17 	ldw	r2,-8(fp)
 1003e18:	10800017 	ldw	r2,0(r2)
 1003e1c:	108000d8 	cmpnei	r2,r2,3
 1003e20:	100a8e1e 	bne	r2,zero,100685c <fog_parameter+0x2f8c>
							data_t data;
							PARAMETER_Read(base, CMD_MOD_AMP_L - CONTAINER_TO_CMD_OFFSET, data.bin_val);
 1003e24:	e0bfb303 	ldbu	r2,-308(fp)
 1003e28:	e0ffc304 	addi	r3,fp,-244
 1003e2c:	180d883a 	mov	r6,r3
 1003e30:	01400084 	movi	r5,2
 1003e34:	1009883a 	mov	r4,r2
 1003e38:	1008d080 	call	1008d08 <PARAMETER_Read>
							DEBUG_PRINT("READ: %d\n", data.int_val);	
 1003e3c:	e0bfc317 	ldw	r2,-244(fp)
 1003e40:	100b883a 	mov	r5,r2
 1003e44:	010040b4 	movhi	r4,258
 1003e48:	2106ff04 	addi	r4,r4,7164
 1003e4c:	1002ea00 	call	1002ea0 <uart_printf_dbg>
						}
						break;
 1003e50:	000a8206 	br	100685c <fog_parameter+0x2f8c>
					}
					case CMD_POLARITY: {
						DEBUG_PRINT("CMD_POLARITY:\n");					
 1003e54:	010040b4 	movhi	r4,258
 1003e58:	21070a04 	addi	r4,r4,7208
 1003e5c:	1002ea00 	call	1002ea0 <uart_printf_dbg>
						if(rx->condition == 1) {
 1003e60:	e0bffe17 	ldw	r2,-8(fp)
 1003e64:	10800017 	ldw	r2,0(r2)
 1003e68:	10800058 	cmpnei	r2,r2,1
 1003e6c:	10001a1e 	bne	r2,zero,1003ed8 <fog_parameter+0x608>
							PARAMETER_Write_s(base, CMD_POLARITY - CONTAINER_TO_CMD_OFFSET, rx->value, fog_inst);
 1003e70:	e0ffb303 	ldbu	r3,-308(fp)
 1003e74:	e0bffe17 	ldw	r2,-8(fp)
 1003e78:	10800617 	ldw	r2,24(r2)
 1003e7c:	e1ffff17 	ldw	r7,-4(fp)
 1003e80:	100d883a 	mov	r6,r2
 1003e84:	014000c4 	movi	r5,3
 1003e88:	1809883a 	mov	r4,r3
 1003e8c:	1008db80 	call	1008db8 <PARAMETER_Write_s>
							IOWR(VARSET_BASE, CMD_POLARITY + cmd2hwreg, rx->value);
 1003e90:	e0bfb347 	ldb	r2,-307(fp)
 1003e94:	108002c4 	addi	r2,r2,11
 1003e98:	1085883a 	add	r2,r2,r2
 1003e9c:	1085883a 	add	r2,r2,r2
 1003ea0:	1007883a 	mov	r3,r2
 1003ea4:	00808034 	movhi	r2,512
 1003ea8:	10880004 	addi	r2,r2,8192
 1003eac:	1885883a 	add	r2,r3,r2
 1003eb0:	e0fffe17 	ldw	r3,-8(fp)
 1003eb4:	18c00617 	ldw	r3,24(r3)
 1003eb8:	10c00035 	stwio	r3,0(r2)
							DEBUG_PRINT("WRITE: %d\n", rx->value);	
 1003ebc:	e0bffe17 	ldw	r2,-8(fp)
 1003ec0:	10800617 	ldw	r2,24(r2)
 1003ec4:	100b883a 	mov	r5,r2
 1003ec8:	010040b4 	movhi	r4,258
 1003ecc:	2106fc04 	addi	r4,r4,7152
 1003ed0:	1002ea00 	call	1002ea0 <uart_printf_dbg>
						else if(rx->condition == 3) {
							data_t data;
							PARAMETER_Read(base, CMD_POLARITY - CONTAINER_TO_CMD_OFFSET, data.bin_val);
							DEBUG_PRINT("READ: %d\n", data.int_val);	
						}
						break;
 1003ed4:	000a6306 	br	1006864 <fog_parameter+0x2f94>
						if(rx->condition == 1) {
							PARAMETER_Write_s(base, CMD_POLARITY - CONTAINER_TO_CMD_OFFSET, rx->value, fog_inst);
							IOWR(VARSET_BASE, CMD_POLARITY + cmd2hwreg, rx->value);
							DEBUG_PRINT("WRITE: %d\n", rx->value);	
						}
						else if(rx->condition == 3) {
 1003ed8:	e0bffe17 	ldw	r2,-8(fp)
 1003edc:	10800017 	ldw	r2,0(r2)
 1003ee0:	108000d8 	cmpnei	r2,r2,3
 1003ee4:	100a5f1e 	bne	r2,zero,1006864 <fog_parameter+0x2f94>
							data_t data;
							PARAMETER_Read(base, CMD_POLARITY - CONTAINER_TO_CMD_OFFSET, data.bin_val);
 1003ee8:	e0bfb303 	ldbu	r2,-308(fp)
 1003eec:	e0ffc404 	addi	r3,fp,-240
 1003ef0:	180d883a 	mov	r6,r3
 1003ef4:	014000c4 	movi	r5,3
 1003ef8:	1009883a 	mov	r4,r2
 1003efc:	1008d080 	call	1008d08 <PARAMETER_Read>
							DEBUG_PRINT("READ: %d\n", data.int_val);	
 1003f00:	e0bfc417 	ldw	r2,-240(fp)
 1003f04:	100b883a 	mov	r5,r2
 1003f08:	010040b4 	movhi	r4,258
 1003f0c:	2106ff04 	addi	r4,r4,7164
 1003f10:	1002ea00 	call	1002ea0 <uart_printf_dbg>
						}
						break;
 1003f14:	000a5306 	br	1006864 <fog_parameter+0x2f94>
					}
					case CMD_WAIT_CNT: {
						DEBUG_PRINT("CMD_WAIT_CNT:\n");					
 1003f18:	010040b4 	movhi	r4,258
 1003f1c:	21070e04 	addi	r4,r4,7224
 1003f20:	1002ea00 	call	1002ea0 <uart_printf_dbg>
						if(rx->condition == 1) {
 1003f24:	e0bffe17 	ldw	r2,-8(fp)
 1003f28:	10800017 	ldw	r2,0(r2)
 1003f2c:	10800058 	cmpnei	r2,r2,1
 1003f30:	10001a1e 	bne	r2,zero,1003f9c <fog_parameter+0x6cc>
							PARAMETER_Write_s(base, CMD_WAIT_CNT - CONTAINER_TO_CMD_OFFSET, rx->value, fog_inst);
 1003f34:	e0ffb303 	ldbu	r3,-308(fp)
 1003f38:	e0bffe17 	ldw	r2,-8(fp)
 1003f3c:	10800617 	ldw	r2,24(r2)
 1003f40:	e1ffff17 	ldw	r7,-4(fp)
 1003f44:	100d883a 	mov	r6,r2
 1003f48:	01400104 	movi	r5,4
 1003f4c:	1809883a 	mov	r4,r3
 1003f50:	1008db80 	call	1008db8 <PARAMETER_Write_s>
							IOWR(VARSET_BASE, CMD_WAIT_CNT + cmd2hwreg, rx->value);
 1003f54:	e0bfb347 	ldb	r2,-307(fp)
 1003f58:	10800304 	addi	r2,r2,12
 1003f5c:	1085883a 	add	r2,r2,r2
 1003f60:	1085883a 	add	r2,r2,r2
 1003f64:	1007883a 	mov	r3,r2
 1003f68:	00808034 	movhi	r2,512
 1003f6c:	10880004 	addi	r2,r2,8192
 1003f70:	1885883a 	add	r2,r3,r2
 1003f74:	e0fffe17 	ldw	r3,-8(fp)
 1003f78:	18c00617 	ldw	r3,24(r3)
 1003f7c:	10c00035 	stwio	r3,0(r2)
							DEBUG_PRINT("WRITE: %d\n", rx->value);	
 1003f80:	e0bffe17 	ldw	r2,-8(fp)
 1003f84:	10800617 	ldw	r2,24(r2)
 1003f88:	100b883a 	mov	r5,r2
 1003f8c:	010040b4 	movhi	r4,258
 1003f90:	2106fc04 	addi	r4,r4,7152
 1003f94:	1002ea00 	call	1002ea0 <uart_printf_dbg>
						else if(rx->condition == 3) {
							data_t data;
							PARAMETER_Read(base, CMD_WAIT_CNT - CONTAINER_TO_CMD_OFFSET, data.bin_val);
							DEBUG_PRINT("READ: %d\n", data.int_val);	
						}
						break;
 1003f98:	000a3406 	br	100686c <fog_parameter+0x2f9c>
						if(rx->condition == 1) {
							PARAMETER_Write_s(base, CMD_WAIT_CNT - CONTAINER_TO_CMD_OFFSET, rx->value, fog_inst);
							IOWR(VARSET_BASE, CMD_WAIT_CNT + cmd2hwreg, rx->value);
							DEBUG_PRINT("WRITE: %d\n", rx->value);	
						}
						else if(rx->condition == 3) {
 1003f9c:	e0bffe17 	ldw	r2,-8(fp)
 1003fa0:	10800017 	ldw	r2,0(r2)
 1003fa4:	108000d8 	cmpnei	r2,r2,3
 1003fa8:	100a301e 	bne	r2,zero,100686c <fog_parameter+0x2f9c>
							data_t data;
							PARAMETER_Read(base, CMD_WAIT_CNT - CONTAINER_TO_CMD_OFFSET, data.bin_val);
 1003fac:	e0bfb303 	ldbu	r2,-308(fp)
 1003fb0:	e0ffc504 	addi	r3,fp,-236
 1003fb4:	180d883a 	mov	r6,r3
 1003fb8:	01400104 	movi	r5,4
 1003fbc:	1009883a 	mov	r4,r2
 1003fc0:	1008d080 	call	1008d08 <PARAMETER_Read>
							DEBUG_PRINT("READ: %d\n", data.int_val);	
 1003fc4:	e0bfc517 	ldw	r2,-236(fp)
 1003fc8:	100b883a 	mov	r5,r2
 1003fcc:	010040b4 	movhi	r4,258
 1003fd0:	2106ff04 	addi	r4,r4,7164
 1003fd4:	1002ea00 	call	1002ea0 <uart_printf_dbg>
						}
						break;
 1003fd8:	000a2406 	br	100686c <fog_parameter+0x2f9c>
					} 
					case CMD_ERR_AVG: {
						DEBUG_PRINT("CMD_ERR_AVG:\n");					
 1003fdc:	010040b4 	movhi	r4,258
 1003fe0:	21071204 	addi	r4,r4,7240
 1003fe4:	1002ea00 	call	1002ea0 <uart_printf_dbg>
						if(rx->condition == 1) {
 1003fe8:	e0bffe17 	ldw	r2,-8(fp)
 1003fec:	10800017 	ldw	r2,0(r2)
 1003ff0:	10800058 	cmpnei	r2,r2,1
 1003ff4:	10001a1e 	bne	r2,zero,1004060 <fog_parameter+0x790>
							PARAMETER_Write_s(base, CMD_ERR_AVG - CONTAINER_TO_CMD_OFFSET, rx->value, fog_inst);
 1003ff8:	e0ffb303 	ldbu	r3,-308(fp)
 1003ffc:	e0bffe17 	ldw	r2,-8(fp)
 1004000:	10800617 	ldw	r2,24(r2)
 1004004:	e1ffff17 	ldw	r7,-4(fp)
 1004008:	100d883a 	mov	r6,r2
 100400c:	01400144 	movi	r5,5
 1004010:	1809883a 	mov	r4,r3
 1004014:	1008db80 	call	1008db8 <PARAMETER_Write_s>
							IOWR(VARSET_BASE, CMD_ERR_AVG + cmd2hwreg, rx->value);
 1004018:	e0bfb347 	ldb	r2,-307(fp)
 100401c:	10800344 	addi	r2,r2,13
 1004020:	1085883a 	add	r2,r2,r2
 1004024:	1085883a 	add	r2,r2,r2
 1004028:	1007883a 	mov	r3,r2
 100402c:	00808034 	movhi	r2,512
 1004030:	10880004 	addi	r2,r2,8192
 1004034:	1885883a 	add	r2,r3,r2
 1004038:	e0fffe17 	ldw	r3,-8(fp)
 100403c:	18c00617 	ldw	r3,24(r3)
 1004040:	10c00035 	stwio	r3,0(r2)
							DEBUG_PRINT("WRITE: %d\n", rx->value);	
 1004044:	e0bffe17 	ldw	r2,-8(fp)
 1004048:	10800617 	ldw	r2,24(r2)
 100404c:	100b883a 	mov	r5,r2
 1004050:	010040b4 	movhi	r4,258
 1004054:	2106fc04 	addi	r4,r4,7152
 1004058:	1002ea00 	call	1002ea0 <uart_printf_dbg>
						else if(rx->condition == 3) {
							data_t data;
							PARAMETER_Read(base, CMD_ERR_AVG - CONTAINER_TO_CMD_OFFSET, data.bin_val);
							DEBUG_PRINT("READ: %d\n", data.int_val);	
						}
						break;
 100405c:	000a0506 	br	1006874 <fog_parameter+0x2fa4>
						if(rx->condition == 1) {
							PARAMETER_Write_s(base, CMD_ERR_AVG - CONTAINER_TO_CMD_OFFSET, rx->value, fog_inst);
							IOWR(VARSET_BASE, CMD_ERR_AVG + cmd2hwreg, rx->value);
							DEBUG_PRINT("WRITE: %d\n", rx->value);	
						}
						else if(rx->condition == 3) {
 1004060:	e0bffe17 	ldw	r2,-8(fp)
 1004064:	10800017 	ldw	r2,0(r2)
 1004068:	108000d8 	cmpnei	r2,r2,3
 100406c:	100a011e 	bne	r2,zero,1006874 <fog_parameter+0x2fa4>
							data_t data;
							PARAMETER_Read(base, CMD_ERR_AVG - CONTAINER_TO_CMD_OFFSET, data.bin_val);
 1004070:	e0bfb303 	ldbu	r2,-308(fp)
 1004074:	e0ffc604 	addi	r3,fp,-232
 1004078:	180d883a 	mov	r6,r3
 100407c:	01400144 	movi	r5,5
 1004080:	1009883a 	mov	r4,r2
 1004084:	1008d080 	call	1008d08 <PARAMETER_Read>
							DEBUG_PRINT("READ: %d\n", data.int_val);	
 1004088:	e0bfc617 	ldw	r2,-232(fp)
 100408c:	100b883a 	mov	r5,r2
 1004090:	010040b4 	movhi	r4,258
 1004094:	2106ff04 	addi	r4,r4,7164
 1004098:	1002ea00 	call	1002ea0 <uart_printf_dbg>
						}
						break;
 100409c:	0009f506 	br	1006874 <fog_parameter+0x2fa4>
					} 
					case CMD_GAIN1: {
						DEBUG_PRINT("CMD_GAIN1:\n");					
 10040a0:	010040b4 	movhi	r4,258
 10040a4:	21071604 	addi	r4,r4,7256
 10040a8:	1002ea00 	call	1002ea0 <uart_printf_dbg>
						if(rx->condition == 1) {
 10040ac:	e0bffe17 	ldw	r2,-8(fp)
 10040b0:	10800017 	ldw	r2,0(r2)
 10040b4:	10800058 	cmpnei	r2,r2,1
 10040b8:	10001a1e 	bne	r2,zero,1004124 <fog_parameter+0x854>
							PARAMETER_Write_s(base, CMD_GAIN1 - CONTAINER_TO_CMD_OFFSET, rx->value, fog_inst);
 10040bc:	e0ffb303 	ldbu	r3,-308(fp)
 10040c0:	e0bffe17 	ldw	r2,-8(fp)
 10040c4:	10800617 	ldw	r2,24(r2)
 10040c8:	e1ffff17 	ldw	r7,-4(fp)
 10040cc:	100d883a 	mov	r6,r2
 10040d0:	01400184 	movi	r5,6
 10040d4:	1809883a 	mov	r4,r3
 10040d8:	1008db80 	call	1008db8 <PARAMETER_Write_s>
							IOWR(VARSET_BASE, CMD_GAIN1 + cmd2hwreg, rx->value);
 10040dc:	e0bfb347 	ldb	r2,-307(fp)
 10040e0:	10800384 	addi	r2,r2,14
 10040e4:	1085883a 	add	r2,r2,r2
 10040e8:	1085883a 	add	r2,r2,r2
 10040ec:	1007883a 	mov	r3,r2
 10040f0:	00808034 	movhi	r2,512
 10040f4:	10880004 	addi	r2,r2,8192
 10040f8:	1885883a 	add	r2,r3,r2
 10040fc:	e0fffe17 	ldw	r3,-8(fp)
 1004100:	18c00617 	ldw	r3,24(r3)
 1004104:	10c00035 	stwio	r3,0(r2)
							DEBUG_PRINT("WRITE: %d\n", rx->value);	
 1004108:	e0bffe17 	ldw	r2,-8(fp)
 100410c:	10800617 	ldw	r2,24(r2)
 1004110:	100b883a 	mov	r5,r2
 1004114:	010040b4 	movhi	r4,258
 1004118:	2106fc04 	addi	r4,r4,7152
 100411c:	1002ea00 	call	1002ea0 <uart_printf_dbg>
						else if(rx->condition == 3) {
							data_t data;
							PARAMETER_Read(base, CMD_GAIN1 - CONTAINER_TO_CMD_OFFSET, data.bin_val);
							DEBUG_PRINT("READ: %d\n", data.int_val);	
						}
						break;
 1004120:	0009d606 	br	100687c <fog_parameter+0x2fac>
						if(rx->condition == 1) {
							PARAMETER_Write_s(base, CMD_GAIN1 - CONTAINER_TO_CMD_OFFSET, rx->value, fog_inst);
							IOWR(VARSET_BASE, CMD_GAIN1 + cmd2hwreg, rx->value);
							DEBUG_PRINT("WRITE: %d\n", rx->value);	
						}
						else if(rx->condition == 3) {
 1004124:	e0bffe17 	ldw	r2,-8(fp)
 1004128:	10800017 	ldw	r2,0(r2)
 100412c:	108000d8 	cmpnei	r2,r2,3
 1004130:	1009d21e 	bne	r2,zero,100687c <fog_parameter+0x2fac>
							data_t data;
							PARAMETER_Read(base, CMD_GAIN1 - CONTAINER_TO_CMD_OFFSET, data.bin_val);
 1004134:	e0bfb303 	ldbu	r2,-308(fp)
 1004138:	e0ffc704 	addi	r3,fp,-228
 100413c:	180d883a 	mov	r6,r3
 1004140:	01400184 	movi	r5,6
 1004144:	1009883a 	mov	r4,r2
 1004148:	1008d080 	call	1008d08 <PARAMETER_Read>
							DEBUG_PRINT("READ: %d\n", data.int_val);	
 100414c:	e0bfc717 	ldw	r2,-228(fp)
 1004150:	100b883a 	mov	r5,r2
 1004154:	010040b4 	movhi	r4,258
 1004158:	2106ff04 	addi	r4,r4,7164
 100415c:	1002ea00 	call	1002ea0 <uart_printf_dbg>
						}
						break;
 1004160:	0009c606 	br	100687c <fog_parameter+0x2fac>
					} 
					case CMD_CONST_STEP: {
						DEBUG_PRINT("CMD_CONST_STEP:\n");					
 1004164:	010040b4 	movhi	r4,258
 1004168:	21071904 	addi	r4,r4,7268
 100416c:	1002ea00 	call	1002ea0 <uart_printf_dbg>
						if(rx->condition == 1) {
 1004170:	e0bffe17 	ldw	r2,-8(fp)
 1004174:	10800017 	ldw	r2,0(r2)
 1004178:	10800058 	cmpnei	r2,r2,1
 100417c:	10001a1e 	bne	r2,zero,10041e8 <fog_parameter+0x918>
							PARAMETER_Write_s(base, CMD_CONST_STEP - CONTAINER_TO_CMD_OFFSET, rx->value, fog_inst);
 1004180:	e0ffb303 	ldbu	r3,-308(fp)
 1004184:	e0bffe17 	ldw	r2,-8(fp)
 1004188:	10800617 	ldw	r2,24(r2)
 100418c:	e1ffff17 	ldw	r7,-4(fp)
 1004190:	100d883a 	mov	r6,r2
 1004194:	014001c4 	movi	r5,7
 1004198:	1809883a 	mov	r4,r3
 100419c:	1008db80 	call	1008db8 <PARAMETER_Write_s>
							IOWR(VARSET_BASE, CMD_CONST_STEP + cmd2hwreg, rx->value);
 10041a0:	e0bfb347 	ldb	r2,-307(fp)
 10041a4:	108003c4 	addi	r2,r2,15
 10041a8:	1085883a 	add	r2,r2,r2
 10041ac:	1085883a 	add	r2,r2,r2
 10041b0:	1007883a 	mov	r3,r2
 10041b4:	00808034 	movhi	r2,512
 10041b8:	10880004 	addi	r2,r2,8192
 10041bc:	1885883a 	add	r2,r3,r2
 10041c0:	e0fffe17 	ldw	r3,-8(fp)
 10041c4:	18c00617 	ldw	r3,24(r3)
 10041c8:	10c00035 	stwio	r3,0(r2)
							DEBUG_PRINT("WRITE: %d\n", rx->value);	
 10041cc:	e0bffe17 	ldw	r2,-8(fp)
 10041d0:	10800617 	ldw	r2,24(r2)
 10041d4:	100b883a 	mov	r5,r2
 10041d8:	010040b4 	movhi	r4,258
 10041dc:	2106fc04 	addi	r4,r4,7152
 10041e0:	1002ea00 	call	1002ea0 <uart_printf_dbg>
						else if(rx->condition == 3) {
							data_t data;
							PARAMETER_Read(base, CMD_CONST_STEP - CONTAINER_TO_CMD_OFFSET, data.bin_val);
							DEBUG_PRINT("READ: %d\n", data.int_val);	
						}
						break;
 10041e4:	0009a706 	br	1006884 <fog_parameter+0x2fb4>
						if(rx->condition == 1) {
							PARAMETER_Write_s(base, CMD_CONST_STEP - CONTAINER_TO_CMD_OFFSET, rx->value, fog_inst);
							IOWR(VARSET_BASE, CMD_CONST_STEP + cmd2hwreg, rx->value);
							DEBUG_PRINT("WRITE: %d\n", rx->value);	
						}
						else if(rx->condition == 3) {
 10041e8:	e0bffe17 	ldw	r2,-8(fp)
 10041ec:	10800017 	ldw	r2,0(r2)
 10041f0:	108000d8 	cmpnei	r2,r2,3
 10041f4:	1009a31e 	bne	r2,zero,1006884 <fog_parameter+0x2fb4>
							data_t data;
							PARAMETER_Read(base, CMD_CONST_STEP - CONTAINER_TO_CMD_OFFSET, data.bin_val);
 10041f8:	e0bfb303 	ldbu	r2,-308(fp)
 10041fc:	e0ffc804 	addi	r3,fp,-224
 1004200:	180d883a 	mov	r6,r3
 1004204:	014001c4 	movi	r5,7
 1004208:	1009883a 	mov	r4,r2
 100420c:	1008d080 	call	1008d08 <PARAMETER_Read>
							DEBUG_PRINT("READ: %d\n", data.int_val);	
 1004210:	e0bfc817 	ldw	r2,-224(fp)
 1004214:	100b883a 	mov	r5,r2
 1004218:	010040b4 	movhi	r4,258
 100421c:	2106ff04 	addi	r4,r4,7164
 1004220:	1002ea00 	call	1002ea0 <uart_printf_dbg>
						}
						break;
 1004224:	00099706 	br	1006884 <fog_parameter+0x2fb4>
					} 
					case CMD_FB_ON: {
						DEBUG_PRINT("CMD_FB_ON:\n");					
 1004228:	010040b4 	movhi	r4,258
 100422c:	21071e04 	addi	r4,r4,7288
 1004230:	1002ea00 	call	1002ea0 <uart_printf_dbg>
						if(rx->condition == 1) {
 1004234:	e0bffe17 	ldw	r2,-8(fp)
 1004238:	10800017 	ldw	r2,0(r2)
 100423c:	10800058 	cmpnei	r2,r2,1
 1004240:	10001a1e 	bne	r2,zero,10042ac <fog_parameter+0x9dc>
							PARAMETER_Write_s(base, CMD_FB_ON - CONTAINER_TO_CMD_OFFSET, rx->value, fog_inst);
 1004244:	e0ffb303 	ldbu	r3,-308(fp)
 1004248:	e0bffe17 	ldw	r2,-8(fp)
 100424c:	10800617 	ldw	r2,24(r2)
 1004250:	e1ffff17 	ldw	r7,-4(fp)
 1004254:	100d883a 	mov	r6,r2
 1004258:	01400204 	movi	r5,8
 100425c:	1809883a 	mov	r4,r3
 1004260:	1008db80 	call	1008db8 <PARAMETER_Write_s>
							IOWR(VARSET_BASE, CMD_FB_ON + cmd2hwreg, rx->value);
 1004264:	e0bfb347 	ldb	r2,-307(fp)
 1004268:	10800404 	addi	r2,r2,16
 100426c:	1085883a 	add	r2,r2,r2
 1004270:	1085883a 	add	r2,r2,r2
 1004274:	1007883a 	mov	r3,r2
 1004278:	00808034 	movhi	r2,512
 100427c:	10880004 	addi	r2,r2,8192
 1004280:	1885883a 	add	r2,r3,r2
 1004284:	e0fffe17 	ldw	r3,-8(fp)
 1004288:	18c00617 	ldw	r3,24(r3)
 100428c:	10c00035 	stwio	r3,0(r2)
							DEBUG_PRINT("WRITE: %d\n", rx->value);	
 1004290:	e0bffe17 	ldw	r2,-8(fp)
 1004294:	10800617 	ldw	r2,24(r2)
 1004298:	100b883a 	mov	r5,r2
 100429c:	010040b4 	movhi	r4,258
 10042a0:	2106fc04 	addi	r4,r4,7152
 10042a4:	1002ea00 	call	1002ea0 <uart_printf_dbg>
						else if(rx->condition == 3) {
							data_t data;
							PARAMETER_Read(base, CMD_FB_ON - CONTAINER_TO_CMD_OFFSET, data.bin_val);
							DEBUG_PRINT("READ: %d\n", data.int_val);	
						}
						break;
 10042a8:	00097806 	br	100688c <fog_parameter+0x2fbc>
						if(rx->condition == 1) {
							PARAMETER_Write_s(base, CMD_FB_ON - CONTAINER_TO_CMD_OFFSET, rx->value, fog_inst);
							IOWR(VARSET_BASE, CMD_FB_ON + cmd2hwreg, rx->value);
							DEBUG_PRINT("WRITE: %d\n", rx->value);	
						}
						else if(rx->condition == 3) {
 10042ac:	e0bffe17 	ldw	r2,-8(fp)
 10042b0:	10800017 	ldw	r2,0(r2)
 10042b4:	108000d8 	cmpnei	r2,r2,3
 10042b8:	1009741e 	bne	r2,zero,100688c <fog_parameter+0x2fbc>
							data_t data;
							PARAMETER_Read(base, CMD_FB_ON - CONTAINER_TO_CMD_OFFSET, data.bin_val);
 10042bc:	e0bfb303 	ldbu	r2,-308(fp)
 10042c0:	e0ffc904 	addi	r3,fp,-220
 10042c4:	180d883a 	mov	r6,r3
 10042c8:	01400204 	movi	r5,8
 10042cc:	1009883a 	mov	r4,r2
 10042d0:	1008d080 	call	1008d08 <PARAMETER_Read>
							DEBUG_PRINT("READ: %d\n", data.int_val);	
